 AwayExtensionsFlashPro

 Timestamp is 540dfca3 (Mon Sep 08 20:59:47 2014)

 Preferred load address is 0000000000400000

 Start         Length     Name                   Class
 0001:00000000 00038be2H .text                   CODE
 0001:00038bf0 00002710H .text$x                 CODE
 0001:0003b300 00000998H .text$yc                CODE
 0001:0003bca0 00000b79H .text$yd                CODE
 0002:00000000 000004b0H .idata$5                DATA
 0002:000004b0 00000008H .CRT$XCA                DATA
 0002:000004b8 00000008H .CRT$XCL                DATA
 0002:000004c0 000000b8H .CRT$XCU                DATA
 0002:00000578 00000008H .CRT$XCZ                DATA
 0002:00000580 00000008H .CRT$XIA                DATA
 0002:00000588 00000008H .CRT$XIAA               DATA
 0002:00000590 00000008H .CRT$XIC                DATA
 0002:00000598 00000008H .CRT$XIZ                DATA
 0002:000005a0 00005810H .rdata                  DATA
 0002:00005db0 000000bcH .rdata$debug            DATA
 0002:00005e70 000028c4H .rdata$r                DATA
 0002:00008738 00000008H .rtc$IAA                DATA
 0002:00008740 00000008H .rtc$IZZ                DATA
 0002:00008748 00000008H .rtc$TAA                DATA
 0002:00008750 00000008H .rtc$TZZ                DATA
 0002:00008758 00009d9cH .xdata                  DATA
 0002:000124f8 00000084H .xdata$x                DATA
 0002:0001257c 00000064H .idata$2                DATA
 0002:000125e0 00000014H .idata$3                DATA
 0002:000125f8 000004b0H .idata$4                DATA
 0002:00012aa8 000015c4H .idata$6                DATA
 0002:00014070 000000e3H .edata                  DATA
 0003:00000000 00001eb8H .data                   DATA
 0003:00001ec0 00000b40H .bss                    DATA
 0004:00000000 000048a8H .pdata                  DATA
 0005:00000000 00000058H .rsrc$01                DATA
 0005:00000060 00000180H .rsrc$02                DATA

  Address         Publics by Value              Rva+Base               Lib:Object

 0000:00000000       ___safe_se_handler_table   0000000000000000     <absolute>
 0000:00000000       ___safe_se_handler_count   0000000000000000     <absolute>
 0000:00000000       __ImageBase                0000000000400000     <linker-defined>
 0001:00000000       ??$?0AEAV?$_Tree_iterator@V?$_Tree_val@U?$_Tree_simple_types@U?$pair@$$CBV?$basic_string@DU?$char_traits@D@std@@V?$allocator@D@2@@std@@PEAVFeature@AwayJS@@@std@@@std@@@std@@@std@@_N@?$pair@V?$_Tree_iterator@V?$_Tree_val@U?$_Tree_simple_types@U?$pair@$$CBV?$basic_string@DU?$char_traits@D@std@@V?$allocator@D@2@@std@@PEAVFeature@AwayJS@@@std@@@std@@@std@@@std@@_N@std@@QEAA@AEAV?$_Tree_iterator@V?$_Tree_val@U?$_Tree_simple_types@U?$pair@$$CBV?$basic_string@DU?$char_traits@D@std@@V?$allocator@D@2@@std@@PEAVFeature@AwayJS@@@std@@@std@@@std@@@1@$$QEA_NPEAPEAX@Z 0000000000401000 f i DocType.obj
 0001:00000020       ??$?0AEAV?$_Tree_iterator@V?$_Tree_val@U?$_Tree_simple_types@U?$pair@$$CBV?$basic_string@DU?$char_traits@D@std@@V?$allocator@D@2@@std@@PEAVProperty@AwayJS@@@std@@@std@@@std@@@std@@_N@?$pair@V?$_Tree_iterator@V?$_Tree_val@U?$_Tree_simple_types@U?$pair@$$CBV?$basic_string@DU?$char_traits@D@std@@V?$allocator@D@2@@std@@PEAVProperty@AwayJS@@@std@@@std@@@std@@@std@@_N@std@@QEAA@AEAV?$_Tree_iterator@V?$_Tree_val@U?$_Tree_simple_types@U?$pair@$$CBV?$basic_string@DU?$char_traits@D@std@@V?$allocator@D@2@@std@@PEAVProperty@AwayJS@@@std@@@std@@@std@@@1@$$QEA_NPEAPEAX@Z 0000000000401020 f i DocType.obj
 0001:00000040       ??$?0AEAV?$_Tree_iterator@V?$_Tree_val@U?$_Tree_simple_types@U?$pair@$$CBV?$basic_string@DU?$char_traits@D@std@@V?$allocator@D@2@@std@@PEAVValue@AwayJS@@@std@@@std@@@std@@@std@@_N@?$pair@V?$_Tree_iterator@V?$_Tree_val@U?$_Tree_simple_types@U?$pair@$$CBV?$basic_string@DU?$char_traits@D@std@@V?$allocator@D@2@@std@@PEAVValue@AwayJS@@@std@@@std@@@std@@@std@@_N@std@@QEAA@AEAV?$_Tree_iterator@V?$_Tree_val@U?$_Tree_simple_types@U?$pair@$$CBV?$basic_string@DU?$char_traits@D@std@@V?$allocator@D@2@@std@@PEAVValue@AwayJS@@@std@@@std@@@std@@@1@$$QEA_NPEAPEAX@Z 0000000000401040 f i DocType.obj
 0001:00000060       ??$?0AEAV?$basic_string@DU?$char_traits@D@std@@V?$allocator@D@2@@std@@AEAPEAVFeature@AwayJS@@@?$pair@V?$basic_string@DU?$char_traits@D@std@@V?$allocator@D@2@@std@@PEAVFeature@AwayJS@@@std@@QEAA@AEAV?$basic_string@DU?$char_traits@D@std@@V?$allocator@D@2@@1@AEAPEAVFeature@AwayJS@@PEAPEAX@Z 0000000000401060 f i DocType.obj
 0001:000000b0       ??$?0AEBV?$basic_string@DU?$char_traits@D@std@@V?$allocator@D@2@@std@@AEAPEAVProperty@AwayJS@@@?$pair@V?$basic_string@DU?$char_traits@D@std@@V?$allocator@D@2@@std@@PEAVProperty@AwayJS@@@std@@QEAA@AEBV?$basic_string@DU?$char_traits@D@std@@V?$allocator@D@2@@1@AEAPEAVProperty@AwayJS@@PEAPEAX@Z 00000000004010b0 f i DocType.obj
 0001:00000100       ??$?0AEBV?$basic_string@DU?$char_traits@D@std@@V?$allocator@D@2@@std@@AEAPEAVValue@AwayJS@@@?$pair@V?$basic_string@DU?$char_traits@D@std@@V?$allocator@D@2@@std@@PEAVValue@AwayJS@@@std@@QEAA@AEBV?$basic_string@DU?$char_traits@D@std@@V?$allocator@D@2@@1@AEAPEAVValue@AwayJS@@PEAPEAX@Z 0000000000401100 f i DocType.obj
 0001:00000150       ??$?0V?$_Tree_iterator@V?$_Tree_val@U?$_Tree_simple_types@U?$pair@$$CBV?$basic_string@DU?$char_traits@D@std@@V?$allocator@D@2@@std@@PEAVFeature@AwayJS@@@std@@@std@@@std@@@std@@_N@?$pair@V?$_Tree_iterator@V?$_Tree_val@U?$_Tree_simple_types@U?$pair@$$CBV?$basic_string@DU?$char_traits@D@std@@V?$allocator@D@2@@std@@PEAVFeature@AwayJS@@@std@@@std@@@std@@@std@@_N@std@@QEAA@$$QEAU01@PEAPEAX@Z 0000000000401150 f i DocType.obj
 0001:00000170       ??$?0V?$_Tree_iterator@V?$_Tree_val@U?$_Tree_simple_types@U?$pair@$$CBV?$basic_string@DU?$char_traits@D@std@@V?$allocator@D@2@@std@@PEAVFeature@AwayJS@@@std@@@std@@@std@@@std@@_N@?$pair@V?$_Tree_iterator@V?$_Tree_val@U?$_Tree_simple_types@U?$pair@$$CBV?$basic_string@DU?$char_traits@D@std@@V?$allocator@D@2@@std@@PEAVFeature@AwayJS@@@std@@@std@@@std@@@std@@_N@std@@QEAA@$$QEAV?$_Tree_iterator@V?$_Tree_val@U?$_Tree_simple_types@U?$pair@$$CBV?$basic_string@DU?$char_traits@D@std@@V?$allocator@D@2@@std@@PEAVFeature@AwayJS@@@std@@@std@@@std@@@1@$$QEA_NPEAPEAX@Z 0000000000401170 f i DocType.obj
 0001:00000190       ??$?0V?$_Tree_iterator@V?$_Tree_val@U?$_Tree_simple_types@U?$pair@$$CBV?$basic_string@DU?$char_traits@D@std@@V?$allocator@D@2@@std@@PEAVProperty@AwayJS@@@std@@@std@@@std@@@std@@_N@?$pair@V?$_Tree_iterator@V?$_Tree_val@U?$_Tree_simple_types@U?$pair@$$CBV?$basic_string@DU?$char_traits@D@std@@V?$allocator@D@2@@std@@PEAVProperty@AwayJS@@@std@@@std@@@std@@@std@@_N@std@@QEAA@$$QEAU01@PEAPEAX@Z 0000000000401190 f i DocType.obj
 0001:000001b0       ??$?0V?$_Tree_iterator@V?$_Tree_val@U?$_Tree_simple_types@U?$pair@$$CBV?$basic_string@DU?$char_traits@D@std@@V?$allocator@D@2@@std@@PEAVProperty@AwayJS@@@std@@@std@@@std@@@std@@_N@?$pair@V?$_Tree_iterator@V?$_Tree_val@U?$_Tree_simple_types@U?$pair@$$CBV?$basic_string@DU?$char_traits@D@std@@V?$allocator@D@2@@std@@PEAVProperty@AwayJS@@@std@@@std@@@std@@@std@@_N@std@@QEAA@$$QEAV?$_Tree_iterator@V?$_Tree_val@U?$_Tree_simple_types@U?$pair@$$CBV?$basic_string@DU?$char_traits@D@std@@V?$allocator@D@2@@std@@PEAVProperty@AwayJS@@@std@@@std@@@std@@@1@$$QEA_NPEAPEAX@Z 00000000004011b0 f i DocType.obj
 0001:000001d0       ??$?0V?$_Tree_iterator@V?$_Tree_val@U?$_Tree_simple_types@U?$pair@$$CBV?$basic_string@DU?$char_traits@D@std@@V?$allocator@D@2@@std@@PEAVValue@AwayJS@@@std@@@std@@@std@@@std@@_N@?$pair@V?$_Tree_iterator@V?$_Tree_val@U?$_Tree_simple_types@U?$pair@$$CBV?$basic_string@DU?$char_traits@D@std@@V?$allocator@D@2@@std@@PEAVValue@AwayJS@@@std@@@std@@@std@@@std@@_N@std@@QEAA@$$QEAU01@PEAPEAX@Z 00000000004011d0 f i DocType.obj
 0001:000001f0       ??$?0V?$_Tree_iterator@V?$_Tree_val@U?$_Tree_simple_types@U?$pair@$$CBV?$basic_string@DU?$char_traits@D@std@@V?$allocator@D@2@@std@@PEAVValue@AwayJS@@@std@@@std@@@std@@@std@@_N@?$pair@V?$_Tree_iterator@V?$_Tree_val@U?$_Tree_simple_types@U?$pair@$$CBV?$basic_string@DU?$char_traits@D@std@@V?$allocator@D@2@@std@@PEAVValue@AwayJS@@@std@@@std@@@std@@@std@@_N@std@@QEAA@$$QEAV?$_Tree_iterator@V?$_Tree_val@U?$_Tree_simple_types@U?$pair@$$CBV?$basic_string@DU?$char_traits@D@std@@V?$allocator@D@2@@std@@PEAVValue@AwayJS@@@std@@@std@@@std@@@1@$$QEA_NPEAPEAX@Z 00000000004011f0 f i DocType.obj
 0001:00000210       ??$?0V?$basic_string@DU?$char_traits@D@std@@V?$allocator@D@2@@std@@PEAVFeature@AwayJS@@@?$pair@$$CBV?$basic_string@DU?$char_traits@D@std@@V?$allocator@D@2@@std@@PEAVFeature@AwayJS@@@std@@QEAA@$$QEAU?$pair@V?$basic_string@DU?$char_traits@D@std@@V?$allocator@D@2@@std@@PEAVFeature@AwayJS@@@1@PEAPEAX@Z 0000000000401210 f i DocType.obj
 0001:000002a0       ??$?0V?$basic_string@DU?$char_traits@D@std@@V?$allocator@D@2@@std@@PEAVProperty@AwayJS@@@?$pair@$$CBV?$basic_string@DU?$char_traits@D@std@@V?$allocator@D@2@@std@@PEAVProperty@AwayJS@@@std@@QEAA@$$QEAU?$pair@V?$basic_string@DU?$char_traits@D@std@@V?$allocator@D@2@@std@@PEAVProperty@AwayJS@@@1@PEAPEAX@Z 00000000004012a0 f i DocType.obj
 0001:00000330       ??$?0V?$basic_string@DU?$char_traits@D@std@@V?$allocator@D@2@@std@@PEAVValue@AwayJS@@@?$pair@$$CBV?$basic_string@DU?$char_traits@D@std@@V?$allocator@D@2@@std@@PEAVValue@AwayJS@@@std@@QEAA@$$QEAU?$pair@V?$basic_string@DU?$char_traits@D@std@@V?$allocator@D@2@@std@@PEAVValue@AwayJS@@@1@PEAPEAX@Z 0000000000401330 f i DocType.obj
 0001:000003c0       ??$?0VIFCMUnknown@FCM@@@?$AutoPtr@VIOutputConsoleService@Service@FlashApplication@@@FCM@@QEAA@AEBV?$AutoPtr@VIFCMUnknown@FCM@@@1@@Z 00000000004013c0 f i DocType.obj
 0001:00000400       ??$?8DD@std@@YA_NAEBV?$allocator@D@0@0@Z 0000000000401400 f i DocType.obj
 0001:00000410       ??$?8DU?$char_traits@D@std@@V?$allocator@D@1@@std@@YA_NAEBV?$basic_string@DU?$char_traits@D@std@@V?$allocator@D@2@@0@0@Z 0000000000401410 f i DocType.obj
 0001:00000430       ??$?8V?$allocator@D@std@@V01@@std@@YA_NAEBU?$_Wrap_alloc@V?$allocator@D@std@@@0@0@Z 0000000000401430 f i DocType.obj
 0001:00000440       ??$?9V?$allocator@D@std@@V01@@std@@YA_NAEBU?$_Wrap_alloc@V?$allocator@D@std@@@0@0@Z 0000000000401440 f i DocType.obj
 0001:00000450       ??$?MDU?$char_traits@D@std@@V?$allocator@D@1@@std@@YA_NAEBV?$basic_string@DU?$char_traits@D@std@@V?$allocator@D@2@@0@0@Z 0000000000401450 f i DocType.obj
 0001:00000470       ??$IsSameUnknown@VIFCMUnknown@FCM@@@?$AutoPtr@VIOutputConsoleService@Service@FlashApplication@@@FCM@@QEAA_NPEAVIFCMUnknown@1@@Z 0000000000401470 f i DocType.obj
 0001:00000580       ??$_Allocate@D@std@@YAPEAD_KPEAD@Z 0000000000401580 f i DocType.obj
 0001:000005b0       ??$_Allocate@U?$_Tree_node@U?$pair@$$CBV?$basic_string@DU?$char_traits@D@std@@V?$allocator@D@2@@std@@PEAVFeature@AwayJS@@@std@@PEAX@std@@@std@@YAPEAU?$_Tree_node@U?$pair@$$CBV?$basic_string@DU?$char_traits@D@std@@V?$allocator@D@2@@std@@PEAVFeature@AwayJS@@@std@@PEAX@0@_KPEAU10@@Z 00000000004015b0 f i DocType.obj
 0001:000005f0       ??$_Allocate@U?$_Tree_node@U?$pair@$$CBV?$basic_string@DU?$char_traits@D@std@@V?$allocator@D@2@@std@@PEAVProperty@AwayJS@@@std@@PEAX@std@@@std@@YAPEAU?$_Tree_node@U?$pair@$$CBV?$basic_string@DU?$char_traits@D@std@@V?$allocator@D@2@@std@@PEAVProperty@AwayJS@@@std@@PEAX@0@_KPEAU10@@Z 00000000004015f0 f i DocType.obj
 0001:00000630       ??$_Allocate@U?$_Tree_node@U?$pair@$$CBV?$basic_string@DU?$char_traits@D@std@@V?$allocator@D@2@@std@@PEAVValue@AwayJS@@@std@@PEAX@std@@@std@@YAPEAU?$_Tree_node@U?$pair@$$CBV?$basic_string@DU?$char_traits@D@std@@V?$allocator@D@2@@std@@PEAVValue@AwayJS@@@std@@PEAX@0@_KPEAU10@@Z 0000000000401630 f i DocType.obj
 0001:00000670       ??$_Buynode@U?$pair@V?$basic_string@DU?$char_traits@D@std@@V?$allocator@D@2@@std@@PEAVFeature@AwayJS@@@std@@@?$_Tree_buy@U?$pair@$$CBV?$basic_string@DU?$char_traits@D@std@@V?$allocator@D@2@@std@@PEAVFeature@AwayJS@@@std@@V?$allocator@U?$pair@$$CBV?$basic_string@DU?$char_traits@D@std@@V?$allocator@D@2@@std@@PEAVFeature@AwayJS@@@std@@@2@@std@@QEAAPEAU?$_Tree_node@U?$pair@$$CBV?$basic_string@DU?$char_traits@D@std@@V?$allocator@D@2@@std@@PEAVFeature@AwayJS@@@std@@PEAX@1@$$QEAU?$pair@V?$basic_string@DU?$char_traits@D@std@@V?$allocator@D@2@@std@@PEAVFeature@AwayJS@@@1@@Z 0000000000401670 f i DocType.obj
 0001:000006c0       ??$_Buynode@U?$pair@V?$basic_string@DU?$char_traits@D@std@@V?$allocator@D@2@@std@@PEAVProperty@AwayJS@@@std@@@?$_Tree_buy@U?$pair@$$CBV?$basic_string@DU?$char_traits@D@std@@V?$allocator@D@2@@std@@PEAVProperty@AwayJS@@@std@@V?$allocator@U?$pair@$$CBV?$basic_string@DU?$char_traits@D@std@@V?$allocator@D@2@@std@@PEAVProperty@AwayJS@@@std@@@2@@std@@QEAAPEAU?$_Tree_node@U?$pair@$$CBV?$basic_string@DU?$char_traits@D@std@@V?$allocator@D@2@@std@@PEAVProperty@AwayJS@@@std@@PEAX@1@$$QEAU?$pair@V?$basic_string@DU?$char_traits@D@std@@V?$allocator@D@2@@std@@PEAVProperty@AwayJS@@@1@@Z 00000000004016c0 f i DocType.obj
 0001:00000710       ??$_Buynode@U?$pair@V?$basic_string@DU?$char_traits@D@std@@V?$allocator@D@2@@std@@PEAVValue@AwayJS@@@std@@@?$_Tree_buy@U?$pair@$$CBV?$basic_string@DU?$char_traits@D@std@@V?$allocator@D@2@@std@@PEAVValue@AwayJS@@@std@@V?$allocator@U?$pair@$$CBV?$basic_string@DU?$char_traits@D@std@@V?$allocator@D@2@@std@@PEAVValue@AwayJS@@@std@@@2@@std@@QEAAPEAU?$_Tree_node@U?$pair@$$CBV?$basic_string@DU?$char_traits@D@std@@V?$allocator@D@2@@std@@PEAVValue@AwayJS@@@std@@PEAX@1@$$QEAU?$pair@V?$basic_string@DU?$char_traits@D@std@@V?$allocator@D@2@@std@@PEAVValue@AwayJS@@@1@@Z 0000000000401710 f i DocType.obj
 0001:00000760       ??$_Buynode_if_nil@AEAU?$pair@$$CBV?$basic_string@DU?$char_traits@D@std@@V?$allocator@D@2@@std@@PEAVFeature@AwayJS@@@std@@@?$_Tree@V?$_Tmap_traits@V?$basic_string@DU?$char_traits@D@std@@V?$allocator@D@2@@std@@PEAVFeature@AwayJS@@U?$less@V?$basic_string@DU?$char_traits@D@std@@V?$allocator@D@2@@std@@@2@V?$allocator@U?$pair@$$CBV?$basic_string@DU?$char_traits@D@std@@V?$allocator@D@2@@std@@PEAVFeature@AwayJS@@@std@@@2@$0A@@std@@@std@@IEAAPEAU?$_Tree_node@U?$pair@$$CBV?$basic_string@DU?$char_traits@D@std@@V?$allocator@D@2@@std@@PEAVFeature@AwayJS@@@std@@PEAX@1@PEAU21@AEAU?$pair@$$CBV?$basic_string@DU?$char_traits@D@std@@V?$allocator@D@2@@std@@PEAVFeature@AwayJS@@@1@@Z 0000000000401760 f i DocType.obj
 0001:00000770       ??$_Buynode_if_nil@AEAU?$pair@$$CBV?$basic_string@DU?$char_traits@D@std@@V?$allocator@D@2@@std@@PEAVProperty@AwayJS@@@std@@@?$_Tree@V?$_Tmap_traits@V?$basic_string@DU?$char_traits@D@std@@V?$allocator@D@2@@std@@PEAVProperty@AwayJS@@U?$less@V?$basic_string@DU?$char_traits@D@std@@V?$allocator@D@2@@std@@@2@V?$allocator@U?$pair@$$CBV?$basic_string@DU?$char_traits@D@std@@V?$allocator@D@2@@std@@PEAVProperty@AwayJS@@@std@@@2@$0A@@std@@@std@@IEAAPEAU?$_Tree_node@U?$pair@$$CBV?$basic_string@DU?$char_traits@D@std@@V?$allocator@D@2@@std@@PEAVProperty@AwayJS@@@std@@PEAX@1@PEAU21@AEAU?$pair@$$CBV?$basic_string@DU?$char_traits@D@std@@V?$allocator@D@2@@std@@PEAVProperty@AwayJS@@@1@@Z 0000000000401770 f i DocType.obj
 0001:00000780       ??$_Buynode_if_nil@AEAU?$pair@$$CBV?$basic_string@DU?$char_traits@D@std@@V?$allocator@D@2@@std@@PEAVValue@AwayJS@@@std@@@?$_Tree@V?$_Tmap_traits@V?$basic_string@DU?$char_traits@D@std@@V?$allocator@D@2@@std@@PEAVValue@AwayJS@@U?$less@V?$basic_string@DU?$char_traits@D@std@@V?$allocator@D@2@@std@@@2@V?$allocator@U?$pair@$$CBV?$basic_string@DU?$char_traits@D@std@@V?$allocator@D@2@@std@@PEAVValue@AwayJS@@@std@@@2@$0A@@std@@@std@@IEAAPEAU?$_Tree_node@U?$pair@$$CBV?$basic_string@DU?$char_traits@D@std@@V?$allocator@D@2@@std@@PEAVValue@AwayJS@@@std@@PEAX@1@PEAU21@AEAU?$pair@$$CBV?$basic_string@DU?$char_traits@D@std@@V?$allocator@D@2@@std@@PEAVValue@AwayJS@@@1@@Z 0000000000401780 f i DocType.obj
 0001:00000790       ??$_Fgetc@D@std@@YA_NAEADPEAU_iobuf@@@Z 0000000000401790 f i DocType.obj
 0001:000007c0       ??$_Fputc@D@std@@YA_NDPEAU_iobuf@@@Z 00000000004017c0 f i DocType.obj
 0001:000007e0       ??$_Insert_at@AEAU?$pair@$$CBV?$basic_string@DU?$char_traits@D@std@@V?$allocator@D@2@@std@@PEAVFeature@AwayJS@@@std@@PEAU?$_Tree_node@U?$pair@$$CBV?$basic_string@DU?$char_traits@D@std@@V?$allocator@D@2@@std@@PEAVFeature@AwayJS@@@std@@PEAX@2@@?$_Tree@V?$_Tmap_traits@V?$basic_string@DU?$char_traits@D@std@@V?$allocator@D@2@@std@@PEAVFeature@AwayJS@@U?$less@V?$basic_string@DU?$char_traits@D@std@@V?$allocator@D@2@@std@@@2@V?$allocator@U?$pair@$$CBV?$basic_string@DU?$char_traits@D@std@@V?$allocator@D@2@@std@@PEAVFeature@AwayJS@@@std@@@2@$0A@@std@@@std@@IEAA?AV?$_Tree_iterator@V?$_Tree_val@U?$_Tree_simple_types@U?$pair@$$CBV?$basic_string@DU?$char_traits@D@std@@V?$allocator@D@2@@std@@PEAVFeature@AwayJS@@@std@@@std@@@std@@@1@_NPEAU?$_Tree_node@U?$pair@$$CBV?$basic_string@DU?$char_traits@D@std@@V?$allocator@D@2@@std@@PEAVFeature@AwayJS@@@std@@PEAX@1@AEAU?$pair@$$CBV?$basic_string@DU?$char_traits@D@std@@V?$allocator@D@2@@std@@PEAVFeature@AwayJS@@@1@1@Z 00000000004017e0 f i DocType.obj
 0001:00000ab0       ??$_Insert_at@AEAU?$pair@$$CBV?$basic_string@DU?$char_traits@D@std@@V?$allocator@D@2@@std@@PEAVProperty@AwayJS@@@std@@PEAU?$_Tree_node@U?$pair@$$CBV?$basic_string@DU?$char_traits@D@std@@V?$allocator@D@2@@std@@PEAVProperty@AwayJS@@@std@@PEAX@2@@?$_Tree@V?$_Tmap_traits@V?$basic_string@DU?$char_traits@D@std@@V?$allocator@D@2@@std@@PEAVProperty@AwayJS@@U?$less@V?$basic_string@DU?$char_traits@D@std@@V?$allocator@D@2@@std@@@2@V?$allocator@U?$pair@$$CBV?$basic_string@DU?$char_traits@D@std@@V?$allocator@D@2@@std@@PEAVProperty@AwayJS@@@std@@@2@$0A@@std@@@std@@IEAA?AV?$_Tree_iterator@V?$_Tree_val@U?$_Tree_simple_types@U?$pair@$$CBV?$basic_string@DU?$char_traits@D@std@@V?$allocator@D@2@@std@@PEAVProperty@AwayJS@@@std@@@std@@@std@@@1@_NPEAU?$_Tree_node@U?$pair@$$CBV?$basic_string@DU?$char_traits@D@std@@V?$allocator@D@2@@std@@PEAVProperty@AwayJS@@@std@@PEAX@1@AEAU?$pair@$$CBV?$basic_string@DU?$char_traits@D@std@@V?$allocator@D@2@@std@@PEAVProperty@AwayJS@@@1@1@Z 0000000000401ab0 f i DocType.obj
 0001:00000d80       ??$_Insert_at@AEAU?$pair@$$CBV?$basic_string@DU?$char_traits@D@std@@V?$allocator@D@2@@std@@PEAVValue@AwayJS@@@std@@PEAU?$_Tree_node@U?$pair@$$CBV?$basic_string@DU?$char_traits@D@std@@V?$allocator@D@2@@std@@PEAVValue@AwayJS@@@std@@PEAX@2@@?$_Tree@V?$_Tmap_traits@V?$basic_string@DU?$char_traits@D@std@@V?$allocator@D@2@@std@@PEAVValue@AwayJS@@U?$less@V?$basic_string@DU?$char_traits@D@std@@V?$allocator@D@2@@std@@@2@V?$allocator@U?$pair@$$CBV?$basic_string@DU?$char_traits@D@std@@V?$allocator@D@2@@std@@PEAVValue@AwayJS@@@std@@@2@$0A@@std@@@std@@IEAA?AV?$_Tree_iterator@V?$_Tree_val@U?$_Tree_simple_types@U?$pair@$$CBV?$basic_string@DU?$char_traits@D@std@@V?$allocator@D@2@@std@@PEAVValue@AwayJS@@@std@@@std@@@std@@@1@_NPEAU?$_Tree_node@U?$pair@$$CBV?$basic_string@DU?$char_traits@D@std@@V?$allocator@D@2@@std@@PEAVValue@AwayJS@@@std@@PEAX@1@AEAU?$pair@$$CBV?$basic_string@DU?$char_traits@D@std@@V?$allocator@D@2@@std@@PEAVValue@AwayJS@@@1@1@Z 0000000000401d80 f i DocType.obj
 0001:00001050       ??$_Insert_nohint@AEAU?$pair@$$CBV?$basic_string@DU?$char_traits@D@std@@V?$allocator@D@2@@std@@PEAVFeature@AwayJS@@@std@@PEAU?$_Tree_node@U?$pair@$$CBV?$basic_string@DU?$char_traits@D@std@@V?$allocator@D@2@@std@@PEAVFeature@AwayJS@@@std@@PEAX@2@@?$_Tree@V?$_Tmap_traits@V?$basic_string@DU?$char_traits@D@std@@V?$allocator@D@2@@std@@PEAVFeature@AwayJS@@U?$less@V?$basic_string@DU?$char_traits@D@std@@V?$allocator@D@2@@std@@@2@V?$allocator@U?$pair@$$CBV?$basic_string@DU?$char_traits@D@std@@V?$allocator@D@2@@std@@PEAVFeature@AwayJS@@@std@@@2@$0A@@std@@@std@@IEAA?AU?$pair@V?$_Tree_iterator@V?$_Tree_val@U?$_Tree_simple_types@U?$pair@$$CBV?$basic_string@DU?$char_traits@D@std@@V?$allocator@D@2@@std@@PEAVFeature@AwayJS@@@std@@@std@@@std@@@std@@_N@1@_NAEAU?$pair@$$CBV?$basic_string@DU?$char_traits@D@std@@V?$allocator@D@2@@std@@PEAVFeature@AwayJS@@@1@PEAU?$_Tree_node@U?$pair@$$CBV?$basic_string@DU?$char_traits@D@std@@V?$allocator@D@2@@std@@PEAVFeature@AwayJS@@@std@@PEAX@1@@Z 0000000000402050 f i DocType.obj
 0001:000012e0       ??$_Insert_nohint@AEAU?$pair@$$CBV?$basic_string@DU?$char_traits@D@std@@V?$allocator@D@2@@std@@PEAVProperty@AwayJS@@@std@@PEAU?$_Tree_node@U?$pair@$$CBV?$basic_string@DU?$char_traits@D@std@@V?$allocator@D@2@@std@@PEAVProperty@AwayJS@@@std@@PEAX@2@@?$_Tree@V?$_Tmap_traits@V?$basic_string@DU?$char_traits@D@std@@V?$allocator@D@2@@std@@PEAVProperty@AwayJS@@U?$less@V?$basic_string@DU?$char_traits@D@std@@V?$allocator@D@2@@std@@@2@V?$allocator@U?$pair@$$CBV?$basic_string@DU?$char_traits@D@std@@V?$allocator@D@2@@std@@PEAVProperty@AwayJS@@@std@@@2@$0A@@std@@@std@@IEAA?AU?$pair@V?$_Tree_iterator@V?$_Tree_val@U?$_Tree_simple_types@U?$pair@$$CBV?$basic_string@DU?$char_traits@D@std@@V?$allocator@D@2@@std@@PEAVProperty@AwayJS@@@std@@@std@@@std@@@std@@_N@1@_NAEAU?$pair@$$CBV?$basic_string@DU?$char_traits@D@std@@V?$allocator@D@2@@std@@PEAVProperty@AwayJS@@@1@PEAU?$_Tree_node@U?$pair@$$CBV?$basic_string@DU?$char_traits@D@std@@V?$allocator@D@2@@std@@PEAVProperty@AwayJS@@@std@@PEAX@1@@Z 00000000004022e0 f i DocType.obj
 0001:00001570       ??$_Insert_nohint@AEAU?$pair@$$CBV?$basic_string@DU?$char_traits@D@std@@V?$allocator@D@2@@std@@PEAVValue@AwayJS@@@std@@PEAU?$_Tree_node@U?$pair@$$CBV?$basic_string@DU?$char_traits@D@std@@V?$allocator@D@2@@std@@PEAVValue@AwayJS@@@std@@PEAX@2@@?$_Tree@V?$_Tmap_traits@V?$basic_string@DU?$char_traits@D@std@@V?$allocator@D@2@@std@@PEAVValue@AwayJS@@U?$less@V?$basic_string@DU?$char_traits@D@std@@V?$allocator@D@2@@std@@@2@V?$allocator@U?$pair@$$CBV?$basic_string@DU?$char_traits@D@std@@V?$allocator@D@2@@std@@PEAVValue@AwayJS@@@std@@@2@$0A@@std@@@std@@IEAA?AU?$pair@V?$_Tree_iterator@V?$_Tree_val@U?$_Tree_simple_types@U?$pair@$$CBV?$basic_string@DU?$char_traits@D@std@@V?$allocator@D@2@@std@@PEAVValue@AwayJS@@@std@@@std@@@std@@@std@@_N@1@_NAEAU?$pair@$$CBV?$basic_string@DU?$char_traits@D@std@@V?$allocator@D@2@@std@@PEAVValue@AwayJS@@@1@PEAU?$_Tree_node@U?$pair@$$CBV?$basic_string@DU?$char_traits@D@std@@V?$allocator@D@2@@std@@PEAVValue@AwayJS@@@std@@PEAX@1@@Z 0000000000402570 f i DocType.obj
 0001:00001800       ??$_Kfn@$$CBV?$basic_string@DU?$char_traits@D@std@@V?$allocator@D@2@@std@@PEAVFeature@AwayJS@@@?$_Tmap_traits@V?$basic_string@DU?$char_traits@D@std@@V?$allocator@D@2@@std@@PEAVFeature@AwayJS@@U?$less@V?$basic_string@DU?$char_traits@D@std@@V?$allocator@D@2@@std@@@2@V?$allocator@U?$pair@$$CBV?$basic_string@DU?$char_traits@D@std@@V?$allocator@D@2@@std@@PEAVFeature@AwayJS@@@std@@@2@$0A@@std@@SAAEBV?$basic_string@DU?$char_traits@D@std@@V?$allocator@D@2@@1@AEBU?$pair@$$CBV?$basic_string@DU?$char_traits@D@std@@V?$allocator@D@2@@std@@PEAVFeature@AwayJS@@@1@@Z 0000000000402800 f i DocType.obj
 0001:00001810       ??$_Kfn@$$CBV?$basic_string@DU?$char_traits@D@std@@V?$allocator@D@2@@std@@PEAVProperty@AwayJS@@@?$_Tmap_traits@V?$basic_string@DU?$char_traits@D@std@@V?$allocator@D@2@@std@@PEAVProperty@AwayJS@@U?$less@V?$basic_string@DU?$char_traits@D@std@@V?$allocator@D@2@@std@@@2@V?$allocator@U?$pair@$$CBV?$basic_string@DU?$char_traits@D@std@@V?$allocator@D@2@@std@@PEAVProperty@AwayJS@@@std@@@2@$0A@@std@@SAAEBV?$basic_string@DU?$char_traits@D@std@@V?$allocator@D@2@@1@AEBU?$pair@$$CBV?$basic_string@DU?$char_traits@D@std@@V?$allocator@D@2@@std@@PEAVProperty@AwayJS@@@1@@Z 0000000000402810 f i DocType.obj
 0001:00001820       ??$_Kfn@$$CBV?$basic_string@DU?$char_traits@D@std@@V?$allocator@D@2@@std@@PEAVValue@AwayJS@@@?$_Tmap_traits@V?$basic_string@DU?$char_traits@D@std@@V?$allocator@D@2@@std@@PEAVValue@AwayJS@@U?$less@V?$basic_string@DU?$char_traits@D@std@@V?$allocator@D@2@@std@@@2@V?$allocator@U?$pair@$$CBV?$basic_string@DU?$char_traits@D@std@@V?$allocator@D@2@@std@@PEAVValue@AwayJS@@@std@@@2@$0A@@std@@SAAEBV?$basic_string@DU?$char_traits@D@std@@V?$allocator@D@2@@1@AEBU?$pair@$$CBV?$basic_string@DU?$char_traits@D@std@@V?$allocator@D@2@@std@@PEAVValue@AwayJS@@@1@@Z 0000000000402820 f i DocType.obj
 0001:00001830       ??$_Kfn@$$CBV?$basic_string@DU?$char_traits@D@std@@V?$allocator@D@2@@std@@V12@@?$_Tmap_traits@V?$basic_string@DU?$char_traits@D@std@@V?$allocator@D@2@@std@@V12@U?$less@V?$basic_string@DU?$char_traits@D@std@@V?$allocator@D@2@@std@@@2@V?$allocator@U?$pair@$$CBV?$basic_string@DU?$char_traits@D@std@@V?$allocator@D@2@@std@@V12@@std@@@2@$0A@@std@@SAAEBV?$basic_string@DU?$char_traits@D@std@@V?$allocator@D@2@@1@AEBU?$pair@$$CBV?$basic_string@DU?$char_traits@D@std@@V?$allocator@D@2@@std@@V12@@1@@Z 0000000000402830 f i DocType.obj
 0001:00001840       ??$_Move@AEAD@std@@YA$$QEADAEAD@Z 0000000000402840 f i DocType.obj
 0001:00001850       ??$_Ungetc@D@std@@YA_NAEBDPEAU_iobuf@@@Z 0000000000402850 f i DocType.obj
 0001:00001870       ??$addressof@$$CBU?$pair@$$CBV?$basic_string@DU?$char_traits@D@std@@V?$allocator@D@2@@std@@V12@@std@@@std@@YAPEBU?$pair@$$CBV?$basic_string@DU?$char_traits@D@std@@V?$allocator@D@2@@std@@V12@@0@AEBU10@@Z 0000000000402870 f i DocType.obj
 0001:00001880       ??$addressof@D@std@@YAPEADAEAD@Z 0000000000402880 f i DocType.obj
 0001:00001890       ??$addressof@PEAU?$_Tree_node@U?$pair@$$CBV?$basic_string@DU?$char_traits@D@std@@V?$allocator@D@2@@std@@PEAVFeature@AwayJS@@@std@@PEAX@std@@@std@@YAPEAPEAU?$_Tree_node@U?$pair@$$CBV?$basic_string@DU?$char_traits@D@std@@V?$allocator@D@2@@std@@PEAVFeature@AwayJS@@@std@@PEAX@0@AEAPEAU10@@Z 0000000000402890 f i DocType.obj
 0001:000018a0       ??$addressof@PEAU?$_Tree_node@U?$pair@$$CBV?$basic_string@DU?$char_traits@D@std@@V?$allocator@D@2@@std@@PEAVProperty@AwayJS@@@std@@PEAX@std@@@std@@YAPEAPEAU?$_Tree_node@U?$pair@$$CBV?$basic_string@DU?$char_traits@D@std@@V?$allocator@D@2@@std@@PEAVProperty@AwayJS@@@std@@PEAX@0@AEAPEAU10@@Z 00000000004028a0 f i DocType.obj
 0001:000018b0       ??$addressof@PEAU?$_Tree_node@U?$pair@$$CBV?$basic_string@DU?$char_traits@D@std@@V?$allocator@D@2@@std@@PEAVValue@AwayJS@@@std@@PEAX@std@@@std@@YAPEAPEAU?$_Tree_node@U?$pair@$$CBV?$basic_string@DU?$char_traits@D@std@@V?$allocator@D@2@@std@@PEAVValue@AwayJS@@@std@@PEAX@0@AEAPEAU10@@Z 00000000004028b0 f i DocType.obj
 0001:000018c0       ??$addressof@U?$pair@$$CBV?$basic_string@DU?$char_traits@D@std@@V?$allocator@D@2@@std@@PEAVFeature@AwayJS@@@std@@@std@@YAPEAU?$pair@$$CBV?$basic_string@DU?$char_traits@D@std@@V?$allocator@D@2@@std@@PEAVFeature@AwayJS@@@0@AEAU10@@Z 00000000004028c0 f i DocType.obj
 0001:000018d0       ??$addressof@U?$pair@$$CBV?$basic_string@DU?$char_traits@D@std@@V?$allocator@D@2@@std@@PEAVProperty@AwayJS@@@std@@@std@@YAPEAU?$pair@$$CBV?$basic_string@DU?$char_traits@D@std@@V?$allocator@D@2@@std@@PEAVProperty@AwayJS@@@0@AEAU10@@Z 00000000004028d0 f i DocType.obj
 0001:000018e0       ??$addressof@U?$pair@$$CBV?$basic_string@DU?$char_traits@D@std@@V?$allocator@D@2@@std@@PEAVValue@AwayJS@@@std@@@std@@YAPEAU?$pair@$$CBV?$basic_string@DU?$char_traits@D@std@@V?$allocator@D@2@@std@@PEAVValue@AwayJS@@@0@AEAU10@@Z 00000000004028e0 f i DocType.obj
 0001:000018f0       ??$construct@PEADAEAPEAD@?$_Wrap_alloc@V?$allocator@D@std@@@std@@QEAAXPEAPEADAEAPEAD@Z 00000000004028f0 f i DocType.obj
 0001:00001900       ??$construct@PEADAEAPEAD@?$allocator@D@std@@QEAAXPEAPEADAEAPEAD@Z 0000000000402900 f i DocType.obj
 0001:00001910       ??$construct@PEADAEAPEAD@?$allocator_traits@V?$allocator@D@std@@@std@@SAXAEAV?$allocator@D@1@PEAPEADAEAPEAD@Z 0000000000402910 f i DocType.obj
 0001:00001920       ??$construct@PEAU?$_Tree_node@U?$pair@$$CBV?$basic_string@DU?$char_traits@D@std@@V?$allocator@D@2@@std@@PEAVFeature@AwayJS@@@std@@PEAX@std@@AEAPEAU12@@?$_Wrap_alloc@V?$allocator@U?$_Tree_node@U?$pair@$$CBV?$basic_string@DU?$char_traits@D@std@@V?$allocator@D@2@@std@@PEAVFeature@AwayJS@@@std@@PEAX@std@@@std@@@std@@QEAAXPEAPEAU?$_Tree_node@U?$pair@$$CBV?$basic_string@DU?$char_traits@D@std@@V?$allocator@D@2@@std@@PEAVFeature@AwayJS@@@std@@PEAX@1@AEAPEAU21@@Z 0000000000402920 f i DocType.obj
 0001:00001930       ??$construct@PEAU?$_Tree_node@U?$pair@$$CBV?$basic_string@DU?$char_traits@D@std@@V?$allocator@D@2@@std@@PEAVFeature@AwayJS@@@std@@PEAX@std@@AEAPEAU12@@?$allocator@U?$_Tree_node@U?$pair@$$CBV?$basic_string@DU?$char_traits@D@std@@V?$allocator@D@2@@std@@PEAVFeature@AwayJS@@@std@@PEAX@std@@@std@@QEAAXPEAPEAU?$_Tree_node@U?$pair@$$CBV?$basic_string@DU?$char_traits@D@std@@V?$allocator@D@2@@std@@PEAVFeature@AwayJS@@@std@@PEAX@1@AEAPEAU21@@Z 0000000000402930 f i DocType.obj
 0001:00001940       ??$construct@PEAU?$_Tree_node@U?$pair@$$CBV?$basic_string@DU?$char_traits@D@std@@V?$allocator@D@2@@std@@PEAVFeature@AwayJS@@@std@@PEAX@std@@AEAPEAU12@@?$allocator_traits@V?$allocator@U?$_Tree_node@U?$pair@$$CBV?$basic_string@DU?$char_traits@D@std@@V?$allocator@D@2@@std@@PEAVFeature@AwayJS@@@std@@PEAX@std@@@std@@@std@@SAXAEAV?$allocator@U?$_Tree_node@U?$pair@$$CBV?$basic_string@DU?$char_traits@D@std@@V?$allocator@D@2@@std@@PEAVFeature@AwayJS@@@std@@PEAX@std@@@1@PEAPEAU?$_Tree_node@U?$pair@$$CBV?$basic_string@DU?$char_traits@D@std@@V?$allocator@D@2@@std@@PEAVFeature@AwayJS@@@std@@PEAX@1@AEAPEAU31@@Z 0000000000402940 f i DocType.obj
 0001:00001950       ??$construct@PEAU?$_Tree_node@U?$pair@$$CBV?$basic_string@DU?$char_traits@D@std@@V?$allocator@D@2@@std@@PEAVProperty@AwayJS@@@std@@PEAX@std@@AEAPEAU12@@?$_Wrap_alloc@V?$allocator@U?$_Tree_node@U?$pair@$$CBV?$basic_string@DU?$char_traits@D@std@@V?$allocator@D@2@@std@@PEAVProperty@AwayJS@@@std@@PEAX@std@@@std@@@std@@QEAAXPEAPEAU?$_Tree_node@U?$pair@$$CBV?$basic_string@DU?$char_traits@D@std@@V?$allocator@D@2@@std@@PEAVProperty@AwayJS@@@std@@PEAX@1@AEAPEAU21@@Z 0000000000402950 f i DocType.obj
 0001:00001960       ??$construct@PEAU?$_Tree_node@U?$pair@$$CBV?$basic_string@DU?$char_traits@D@std@@V?$allocator@D@2@@std@@PEAVProperty@AwayJS@@@std@@PEAX@std@@AEAPEAU12@@?$allocator@U?$_Tree_node@U?$pair@$$CBV?$basic_string@DU?$char_traits@D@std@@V?$allocator@D@2@@std@@PEAVProperty@AwayJS@@@std@@PEAX@std@@@std@@QEAAXPEAPEAU?$_Tree_node@U?$pair@$$CBV?$basic_string@DU?$char_traits@D@std@@V?$allocator@D@2@@std@@PEAVProperty@AwayJS@@@std@@PEAX@1@AEAPEAU21@@Z 0000000000402960 f i DocType.obj
 0001:00001970       ??$construct@PEAU?$_Tree_node@U?$pair@$$CBV?$basic_string@DU?$char_traits@D@std@@V?$allocator@D@2@@std@@PEAVProperty@AwayJS@@@std@@PEAX@std@@AEAPEAU12@@?$allocator_traits@V?$allocator@U?$_Tree_node@U?$pair@$$CBV?$basic_string@DU?$char_traits@D@std@@V?$allocator@D@2@@std@@PEAVProperty@AwayJS@@@std@@PEAX@std@@@std@@@std@@SAXAEAV?$allocator@U?$_Tree_node@U?$pair@$$CBV?$basic_string@DU?$char_traits@D@std@@V?$allocator@D@2@@std@@PEAVProperty@AwayJS@@@std@@PEAX@std@@@1@PEAPEAU?$_Tree_node@U?$pair@$$CBV?$basic_string@DU?$char_traits@D@std@@V?$allocator@D@2@@std@@PEAVProperty@AwayJS@@@std@@PEAX@1@AEAPEAU31@@Z 0000000000402970 f i DocType.obj
 0001:00001980       ??$construct@PEAU?$_Tree_node@U?$pair@$$CBV?$basic_string@DU?$char_traits@D@std@@V?$allocator@D@2@@std@@PEAVValue@AwayJS@@@std@@PEAX@std@@AEAPEAU12@@?$_Wrap_alloc@V?$allocator@U?$_Tree_node@U?$pair@$$CBV?$basic_string@DU?$char_traits@D@std@@V?$allocator@D@2@@std@@PEAVValue@AwayJS@@@std@@PEAX@std@@@std@@@std@@QEAAXPEAPEAU?$_Tree_node@U?$pair@$$CBV?$basic_string@DU?$char_traits@D@std@@V?$allocator@D@2@@std@@PEAVValue@AwayJS@@@std@@PEAX@1@AEAPEAU21@@Z 0000000000402980 f i DocType.obj
 0001:00001990       ??$construct@PEAU?$_Tree_node@U?$pair@$$CBV?$basic_string@DU?$char_traits@D@std@@V?$allocator@D@2@@std@@PEAVValue@AwayJS@@@std@@PEAX@std@@AEAPEAU12@@?$allocator@U?$_Tree_node@U?$pair@$$CBV?$basic_string@DU?$char_traits@D@std@@V?$allocator@D@2@@std@@PEAVValue@AwayJS@@@std@@PEAX@std@@@std@@QEAAXPEAPEAU?$_Tree_node@U?$pair@$$CBV?$basic_string@DU?$char_traits@D@std@@V?$allocator@D@2@@std@@PEAVValue@AwayJS@@@std@@PEAX@1@AEAPEAU21@@Z 0000000000402990 f i DocType.obj
 0001:000019a0       ??$construct@PEAU?$_Tree_node@U?$pair@$$CBV?$basic_string@DU?$char_traits@D@std@@V?$allocator@D@2@@std@@PEAVValue@AwayJS@@@std@@PEAX@std@@AEAPEAU12@@?$allocator_traits@V?$allocator@U?$_Tree_node@U?$pair@$$CBV?$basic_string@DU?$char_traits@D@std@@V?$allocator@D@2@@std@@PEAVValue@AwayJS@@@std@@PEAX@std@@@std@@@std@@SAXAEAV?$allocator@U?$_Tree_node@U?$pair@$$CBV?$basic_string@DU?$char_traits@D@std@@V?$allocator@D@2@@std@@PEAVValue@AwayJS@@@std@@PEAX@std@@@1@PEAPEAU?$_Tree_node@U?$pair@$$CBV?$basic_string@DU?$char_traits@D@std@@V?$allocator@D@2@@std@@PEAVValue@AwayJS@@@std@@PEAX@1@AEAPEAU31@@Z 00000000004029a0 f i DocType.obj
 0001:000019b0       ??$construct@U?$pair@$$CBV?$basic_string@DU?$char_traits@D@std@@V?$allocator@D@2@@std@@PEAVFeature@AwayJS@@@std@@U?$pair@V?$basic_string@DU?$char_traits@D@std@@V?$allocator@D@2@@std@@PEAVFeature@AwayJS@@@2@@?$_Wrap_alloc@V?$allocator@U?$_Tree_node@U?$pair@$$CBV?$basic_string@DU?$char_traits@D@std@@V?$allocator@D@2@@std@@PEAVFeature@AwayJS@@@std@@PEAX@std@@@std@@@std@@QEAAXPEAU?$pair@$$CBV?$basic_string@DU?$char_traits@D@std@@V?$allocator@D@2@@std@@PEAVFeature@AwayJS@@@1@$$QEAU?$pair@V?$basic_string@DU?$char_traits@D@std@@V?$allocator@D@2@@std@@PEAVFeature@AwayJS@@@1@@Z 00000000004029b0 f i DocType.obj
 0001:000019d0       ??$construct@U?$pair@$$CBV?$basic_string@DU?$char_traits@D@std@@V?$allocator@D@2@@std@@PEAVFeature@AwayJS@@@std@@U?$pair@V?$basic_string@DU?$char_traits@D@std@@V?$allocator@D@2@@std@@PEAVFeature@AwayJS@@@2@@?$allocator@U?$_Tree_node@U?$pair@$$CBV?$basic_string@DU?$char_traits@D@std@@V?$allocator@D@2@@std@@PEAVFeature@AwayJS@@@std@@PEAX@std@@@std@@QEAAXPEAU?$pair@$$CBV?$basic_string@DU?$char_traits@D@std@@V?$allocator@D@2@@std@@PEAVFeature@AwayJS@@@1@$$QEAU?$pair@V?$basic_string@DU?$char_traits@D@std@@V?$allocator@D@2@@std@@PEAVFeature@AwayJS@@@1@@Z 00000000004029d0 f i DocType.obj
 0001:000019f0       ??$construct@U?$pair@$$CBV?$basic_string@DU?$char_traits@D@std@@V?$allocator@D@2@@std@@PEAVFeature@AwayJS@@@std@@U?$pair@V?$basic_string@DU?$char_traits@D@std@@V?$allocator@D@2@@std@@PEAVFeature@AwayJS@@@2@@?$allocator_traits@V?$allocator@U?$_Tree_node@U?$pair@$$CBV?$basic_string@DU?$char_traits@D@std@@V?$allocator@D@2@@std@@PEAVFeature@AwayJS@@@std@@PEAX@std@@@std@@@std@@SAXAEAV?$allocator@U?$_Tree_node@U?$pair@$$CBV?$basic_string@DU?$char_traits@D@std@@V?$allocator@D@2@@std@@PEAVFeature@AwayJS@@@std@@PEAX@std@@@1@PEAU?$pair@$$CBV?$basic_string@DU?$char_traits@D@std@@V?$allocator@D@2@@std@@PEAVFeature@AwayJS@@@1@$$QEAU?$pair@V?$basic_string@DU?$char_traits@D@std@@V?$allocator@D@2@@std@@PEAVFeature@AwayJS@@@1@@Z 00000000004029f0 f i DocType.obj
 0001:00001a10       ??$construct@U?$pair@$$CBV?$basic_string@DU?$char_traits@D@std@@V?$allocator@D@2@@std@@PEAVProperty@AwayJS@@@std@@U?$pair@V?$basic_string@DU?$char_traits@D@std@@V?$allocator@D@2@@std@@PEAVProperty@AwayJS@@@2@@?$_Wrap_alloc@V?$allocator@U?$_Tree_node@U?$pair@$$CBV?$basic_string@DU?$char_traits@D@std@@V?$allocator@D@2@@std@@PEAVProperty@AwayJS@@@std@@PEAX@std@@@std@@@std@@QEAAXPEAU?$pair@$$CBV?$basic_string@DU?$char_traits@D@std@@V?$allocator@D@2@@std@@PEAVProperty@AwayJS@@@1@$$QEAU?$pair@V?$basic_string@DU?$char_traits@D@std@@V?$allocator@D@2@@std@@PEAVProperty@AwayJS@@@1@@Z 0000000000402a10 f i DocType.obj
 0001:00001a30       ??$construct@U?$pair@$$CBV?$basic_string@DU?$char_traits@D@std@@V?$allocator@D@2@@std@@PEAVProperty@AwayJS@@@std@@U?$pair@V?$basic_string@DU?$char_traits@D@std@@V?$allocator@D@2@@std@@PEAVProperty@AwayJS@@@2@@?$allocator@U?$_Tree_node@U?$pair@$$CBV?$basic_string@DU?$char_traits@D@std@@V?$allocator@D@2@@std@@PEAVProperty@AwayJS@@@std@@PEAX@std@@@std@@QEAAXPEAU?$pair@$$CBV?$basic_string@DU?$char_traits@D@std@@V?$allocator@D@2@@std@@PEAVProperty@AwayJS@@@1@$$QEAU?$pair@V?$basic_string@DU?$char_traits@D@std@@V?$allocator@D@2@@std@@PEAVProperty@AwayJS@@@1@@Z 0000000000402a30 f i DocType.obj
 0001:00001a50       ??$construct@U?$pair@$$CBV?$basic_string@DU?$char_traits@D@std@@V?$allocator@D@2@@std@@PEAVProperty@AwayJS@@@std@@U?$pair@V?$basic_string@DU?$char_traits@D@std@@V?$allocator@D@2@@std@@PEAVProperty@AwayJS@@@2@@?$allocator_traits@V?$allocator@U?$_Tree_node@U?$pair@$$CBV?$basic_string@DU?$char_traits@D@std@@V?$allocator@D@2@@std@@PEAVProperty@AwayJS@@@std@@PEAX@std@@@std@@@std@@SAXAEAV?$allocator@U?$_Tree_node@U?$pair@$$CBV?$basic_string@DU?$char_traits@D@std@@V?$allocator@D@2@@std@@PEAVProperty@AwayJS@@@std@@PEAX@std@@@1@PEAU?$pair@$$CBV?$basic_string@DU?$char_traits@D@std@@V?$allocator@D@2@@std@@PEAVProperty@AwayJS@@@1@$$QEAU?$pair@V?$basic_string@DU?$char_traits@D@std@@V?$allocator@D@2@@std@@PEAVProperty@AwayJS@@@1@@Z 0000000000402a50 f i DocType.obj
 0001:00001a70       ??$construct@U?$pair@$$CBV?$basic_string@DU?$char_traits@D@std@@V?$allocator@D@2@@std@@PEAVValue@AwayJS@@@std@@U?$pair@V?$basic_string@DU?$char_traits@D@std@@V?$allocator@D@2@@std@@PEAVValue@AwayJS@@@2@@?$_Wrap_alloc@V?$allocator@U?$_Tree_node@U?$pair@$$CBV?$basic_string@DU?$char_traits@D@std@@V?$allocator@D@2@@std@@PEAVValue@AwayJS@@@std@@PEAX@std@@@std@@@std@@QEAAXPEAU?$pair@$$CBV?$basic_string@DU?$char_traits@D@std@@V?$allocator@D@2@@std@@PEAVValue@AwayJS@@@1@$$QEAU?$pair@V?$basic_string@DU?$char_traits@D@std@@V?$allocator@D@2@@std@@PEAVValue@AwayJS@@@1@@Z 0000000000402a70 f i DocType.obj
 0001:00001a90       ??$construct@U?$pair@$$CBV?$basic_string@DU?$char_traits@D@std@@V?$allocator@D@2@@std@@PEAVValue@AwayJS@@@std@@U?$pair@V?$basic_string@DU?$char_traits@D@std@@V?$allocator@D@2@@std@@PEAVValue@AwayJS@@@2@@?$allocator@U?$_Tree_node@U?$pair@$$CBV?$basic_string@DU?$char_traits@D@std@@V?$allocator@D@2@@std@@PEAVValue@AwayJS@@@std@@PEAX@std@@@std@@QEAAXPEAU?$pair@$$CBV?$basic_string@DU?$char_traits@D@std@@V?$allocator@D@2@@std@@PEAVValue@AwayJS@@@1@$$QEAU?$pair@V?$basic_string@DU?$char_traits@D@std@@V?$allocator@D@2@@std@@PEAVValue@AwayJS@@@1@@Z 0000000000402a90 f i DocType.obj
 0001:00001ab0       ??$construct@U?$pair@$$CBV?$basic_string@DU?$char_traits@D@std@@V?$allocator@D@2@@std@@PEAVValue@AwayJS@@@std@@U?$pair@V?$basic_string@DU?$char_traits@D@std@@V?$allocator@D@2@@std@@PEAVValue@AwayJS@@@2@@?$allocator_traits@V?$allocator@U?$_Tree_node@U?$pair@$$CBV?$basic_string@DU?$char_traits@D@std@@V?$allocator@D@2@@std@@PEAVValue@AwayJS@@@std@@PEAX@std@@@std@@@std@@SAXAEAV?$allocator@U?$_Tree_node@U?$pair@$$CBV?$basic_string@DU?$char_traits@D@std@@V?$allocator@D@2@@std@@PEAVValue@AwayJS@@@std@@PEAX@std@@@1@PEAU?$pair@$$CBV?$basic_string@DU?$char_traits@D@std@@V?$allocator@D@2@@std@@PEAVValue@AwayJS@@@1@$$QEAU?$pair@V?$basic_string@DU?$char_traits@D@std@@V?$allocator@D@2@@std@@PEAVValue@AwayJS@@@1@@Z 0000000000402ab0 f i DocType.obj
 0001:00001ad0       ??$destroy@PEAD@?$_Wrap_alloc@V?$allocator@D@std@@@std@@QEAAXPEAPEAD@Z 0000000000402ad0 f i DocType.obj
 0001:00001ae0       ??$destroy@PEAD@?$allocator@D@std@@QEAAXPEAPEAD@Z 0000000000402ae0 f i DocType.obj
 0001:00001af0       ??$destroy@PEAD@?$allocator_traits@V?$allocator@D@std@@@std@@SAXAEAV?$allocator@D@1@PEAPEAD@Z 0000000000402af0 f i DocType.obj
 0001:00001b00       ??$destroy@PEAU?$_Tree_node@U?$pair@$$CBV?$basic_string@DU?$char_traits@D@std@@V?$allocator@D@2@@std@@PEAVFeature@AwayJS@@@std@@PEAX@std@@@?$_Wrap_alloc@V?$allocator@U?$_Tree_node@U?$pair@$$CBV?$basic_string@DU?$char_traits@D@std@@V?$allocator@D@2@@std@@PEAVFeature@AwayJS@@@std@@PEAX@std@@@std@@@std@@QEAAXPEAPEAU?$_Tree_node@U?$pair@$$CBV?$basic_string@DU?$char_traits@D@std@@V?$allocator@D@2@@std@@PEAVFeature@AwayJS@@@std@@PEAX@1@@Z 0000000000402b00 f i DocType.obj
 0001:00001b10       ??$destroy@PEAU?$_Tree_node@U?$pair@$$CBV?$basic_string@DU?$char_traits@D@std@@V?$allocator@D@2@@std@@PEAVFeature@AwayJS@@@std@@PEAX@std@@@?$allocator@U?$_Tree_node@U?$pair@$$CBV?$basic_string@DU?$char_traits@D@std@@V?$allocator@D@2@@std@@PEAVFeature@AwayJS@@@std@@PEAX@std@@@std@@QEAAXPEAPEAU?$_Tree_node@U?$pair@$$CBV?$basic_string@DU?$char_traits@D@std@@V?$allocator@D@2@@std@@PEAVFeature@AwayJS@@@std@@PEAX@1@@Z 0000000000402b10 f i DocType.obj
 0001:00001b20       ??$destroy@PEAU?$_Tree_node@U?$pair@$$CBV?$basic_string@DU?$char_traits@D@std@@V?$allocator@D@2@@std@@PEAVFeature@AwayJS@@@std@@PEAX@std@@@?$allocator_traits@V?$allocator@U?$_Tree_node@U?$pair@$$CBV?$basic_string@DU?$char_traits@D@std@@V?$allocator@D@2@@std@@PEAVFeature@AwayJS@@@std@@PEAX@std@@@std@@@std@@SAXAEAV?$allocator@U?$_Tree_node@U?$pair@$$CBV?$basic_string@DU?$char_traits@D@std@@V?$allocator@D@2@@std@@PEAVFeature@AwayJS@@@std@@PEAX@std@@@1@PEAPEAU?$_Tree_node@U?$pair@$$CBV?$basic_string@DU?$char_traits@D@std@@V?$allocator@D@2@@std@@PEAVFeature@AwayJS@@@std@@PEAX@1@@Z 0000000000402b20 f i DocType.obj
 0001:00001b30       ??$destroy@PEAU?$_Tree_node@U?$pair@$$CBV?$basic_string@DU?$char_traits@D@std@@V?$allocator@D@2@@std@@PEAVProperty@AwayJS@@@std@@PEAX@std@@@?$_Wrap_alloc@V?$allocator@U?$_Tree_node@U?$pair@$$CBV?$basic_string@DU?$char_traits@D@std@@V?$allocator@D@2@@std@@PEAVProperty@AwayJS@@@std@@PEAX@std@@@std@@@std@@QEAAXPEAPEAU?$_Tree_node@U?$pair@$$CBV?$basic_string@DU?$char_traits@D@std@@V?$allocator@D@2@@std@@PEAVProperty@AwayJS@@@std@@PEAX@1@@Z 0000000000402b30 f i DocType.obj
 0001:00001b40       ??$destroy@PEAU?$_Tree_node@U?$pair@$$CBV?$basic_string@DU?$char_traits@D@std@@V?$allocator@D@2@@std@@PEAVProperty@AwayJS@@@std@@PEAX@std@@@?$allocator@U?$_Tree_node@U?$pair@$$CBV?$basic_string@DU?$char_traits@D@std@@V?$allocator@D@2@@std@@PEAVProperty@AwayJS@@@std@@PEAX@std@@@std@@QEAAXPEAPEAU?$_Tree_node@U?$pair@$$CBV?$basic_string@DU?$char_traits@D@std@@V?$allocator@D@2@@std@@PEAVProperty@AwayJS@@@std@@PEAX@1@@Z 0000000000402b40 f i DocType.obj
 0001:00001b50       ??$destroy@PEAU?$_Tree_node@U?$pair@$$CBV?$basic_string@DU?$char_traits@D@std@@V?$allocator@D@2@@std@@PEAVProperty@AwayJS@@@std@@PEAX@std@@@?$allocator_traits@V?$allocator@U?$_Tree_node@U?$pair@$$CBV?$basic_string@DU?$char_traits@D@std@@V?$allocator@D@2@@std@@PEAVProperty@AwayJS@@@std@@PEAX@std@@@std@@@std@@SAXAEAV?$allocator@U?$_Tree_node@U?$pair@$$CBV?$basic_string@DU?$char_traits@D@std@@V?$allocator@D@2@@std@@PEAVProperty@AwayJS@@@std@@PEAX@std@@@1@PEAPEAU?$_Tree_node@U?$pair@$$CBV?$basic_string@DU?$char_traits@D@std@@V?$allocator@D@2@@std@@PEAVProperty@AwayJS@@@std@@PEAX@1@@Z 0000000000402b50 f i DocType.obj
 0001:00001b60       ??$destroy@PEAU?$_Tree_node@U?$pair@$$CBV?$basic_string@DU?$char_traits@D@std@@V?$allocator@D@2@@std@@PEAVValue@AwayJS@@@std@@PEAX@std@@@?$_Wrap_alloc@V?$allocator@U?$_Tree_node@U?$pair@$$CBV?$basic_string@DU?$char_traits@D@std@@V?$allocator@D@2@@std@@PEAVValue@AwayJS@@@std@@PEAX@std@@@std@@@std@@QEAAXPEAPEAU?$_Tree_node@U?$pair@$$CBV?$basic_string@DU?$char_traits@D@std@@V?$allocator@D@2@@std@@PEAVValue@AwayJS@@@std@@PEAX@1@@Z 0000000000402b60 f i DocType.obj
 0001:00001b70       ??$destroy@PEAU?$_Tree_node@U?$pair@$$CBV?$basic_string@DU?$char_traits@D@std@@V?$allocator@D@2@@std@@PEAVValue@AwayJS@@@std@@PEAX@std@@@?$allocator@U?$_Tree_node@U?$pair@$$CBV?$basic_string@DU?$char_traits@D@std@@V?$allocator@D@2@@std@@PEAVValue@AwayJS@@@std@@PEAX@std@@@std@@QEAAXPEAPEAU?$_Tree_node@U?$pair@$$CBV?$basic_string@DU?$char_traits@D@std@@V?$allocator@D@2@@std@@PEAVValue@AwayJS@@@std@@PEAX@1@@Z 0000000000402b70 f i DocType.obj
 0001:00001b80       ??$destroy@PEAU?$_Tree_node@U?$pair@$$CBV?$basic_string@DU?$char_traits@D@std@@V?$allocator@D@2@@std@@PEAVValue@AwayJS@@@std@@PEAX@std@@@?$allocator_traits@V?$allocator@U?$_Tree_node@U?$pair@$$CBV?$basic_string@DU?$char_traits@D@std@@V?$allocator@D@2@@std@@PEAVValue@AwayJS@@@std@@PEAX@std@@@std@@@std@@SAXAEAV?$allocator@U?$_Tree_node@U?$pair@$$CBV?$basic_string@DU?$char_traits@D@std@@V?$allocator@D@2@@std@@PEAVValue@AwayJS@@@std@@PEAX@std@@@1@PEAPEAU?$_Tree_node@U?$pair@$$CBV?$basic_string@DU?$char_traits@D@std@@V?$allocator@D@2@@std@@PEAVValue@AwayJS@@@std@@PEAX@1@@Z 0000000000402b80 f i DocType.obj
 0001:00001b90       ??$destroy@U?$pair@$$CBV?$basic_string@DU?$char_traits@D@std@@V?$allocator@D@2@@std@@PEAVFeature@AwayJS@@@std@@@?$_Wrap_alloc@V?$allocator@U?$_Tree_node@U?$pair@$$CBV?$basic_string@DU?$char_traits@D@std@@V?$allocator@D@2@@std@@PEAVFeature@AwayJS@@@std@@PEAX@std@@@std@@@std@@QEAAXPEAU?$pair@$$CBV?$basic_string@DU?$char_traits@D@std@@V?$allocator@D@2@@std@@PEAVFeature@AwayJS@@@1@@Z 0000000000402b90 f i DocType.obj
 0001:00001bd0       ??$destroy@U?$pair@$$CBV?$basic_string@DU?$char_traits@D@std@@V?$allocator@D@2@@std@@PEAVFeature@AwayJS@@@std@@@?$allocator@U?$_Tree_node@U?$pair@$$CBV?$basic_string@DU?$char_traits@D@std@@V?$allocator@D@2@@std@@PEAVFeature@AwayJS@@@std@@PEAX@std@@@std@@QEAAXPEAU?$pair@$$CBV?$basic_string@DU?$char_traits@D@std@@V?$allocator@D@2@@std@@PEAVFeature@AwayJS@@@1@@Z 0000000000402bd0 f i DocType.obj
 0001:00001c10       ??$destroy@U?$pair@$$CBV?$basic_string@DU?$char_traits@D@std@@V?$allocator@D@2@@std@@PEAVFeature@AwayJS@@@std@@@?$allocator_traits@V?$allocator@U?$_Tree_node@U?$pair@$$CBV?$basic_string@DU?$char_traits@D@std@@V?$allocator@D@2@@std@@PEAVFeature@AwayJS@@@std@@PEAX@std@@@std@@@std@@SAXAEAV?$allocator@U?$_Tree_node@U?$pair@$$CBV?$basic_string@DU?$char_traits@D@std@@V?$allocator@D@2@@std@@PEAVFeature@AwayJS@@@std@@PEAX@std@@@1@PEAU?$pair@$$CBV?$basic_string@DU?$char_traits@D@std@@V?$allocator@D@2@@std@@PEAVFeature@AwayJS@@@1@@Z 0000000000402c10 f i DocType.obj
 0001:00001c50       ??$destroy@U?$pair@$$CBV?$basic_string@DU?$char_traits@D@std@@V?$allocator@D@2@@std@@PEAVProperty@AwayJS@@@std@@@?$_Wrap_alloc@V?$allocator@U?$_Tree_node@U?$pair@$$CBV?$basic_string@DU?$char_traits@D@std@@V?$allocator@D@2@@std@@PEAVProperty@AwayJS@@@std@@PEAX@std@@@std@@@std@@QEAAXPEAU?$pair@$$CBV?$basic_string@DU?$char_traits@D@std@@V?$allocator@D@2@@std@@PEAVProperty@AwayJS@@@1@@Z 0000000000402c50 f i DocType.obj
 0001:00001c90       ??$destroy@U?$pair@$$CBV?$basic_string@DU?$char_traits@D@std@@V?$allocator@D@2@@std@@PEAVProperty@AwayJS@@@std@@@?$allocator@U?$_Tree_node@U?$pair@$$CBV?$basic_string@DU?$char_traits@D@std@@V?$allocator@D@2@@std@@PEAVProperty@AwayJS@@@std@@PEAX@std@@@std@@QEAAXPEAU?$pair@$$CBV?$basic_string@DU?$char_traits@D@std@@V?$allocator@D@2@@std@@PEAVProperty@AwayJS@@@1@@Z 0000000000402c90 f i DocType.obj
 0001:00001cd0       ??$destroy@U?$pair@$$CBV?$basic_string@DU?$char_traits@D@std@@V?$allocator@D@2@@std@@PEAVProperty@AwayJS@@@std@@@?$allocator_traits@V?$allocator@U?$_Tree_node@U?$pair@$$CBV?$basic_string@DU?$char_traits@D@std@@V?$allocator@D@2@@std@@PEAVProperty@AwayJS@@@std@@PEAX@std@@@std@@@std@@SAXAEAV?$allocator@U?$_Tree_node@U?$pair@$$CBV?$basic_string@DU?$char_traits@D@std@@V?$allocator@D@2@@std@@PEAVProperty@AwayJS@@@std@@PEAX@std@@@1@PEAU?$pair@$$CBV?$basic_string@DU?$char_traits@D@std@@V?$allocator@D@2@@std@@PEAVProperty@AwayJS@@@1@@Z 0000000000402cd0 f i DocType.obj
 0001:00001d10       ??$destroy@U?$pair@$$CBV?$basic_string@DU?$char_traits@D@std@@V?$allocator@D@2@@std@@PEAVValue@AwayJS@@@std@@@?$_Wrap_alloc@V?$allocator@U?$_Tree_node@U?$pair@$$CBV?$basic_string@DU?$char_traits@D@std@@V?$allocator@D@2@@std@@PEAVValue@AwayJS@@@std@@PEAX@std@@@std@@@std@@QEAAXPEAU?$pair@$$CBV?$basic_string@DU?$char_traits@D@std@@V?$allocator@D@2@@std@@PEAVValue@AwayJS@@@1@@Z 0000000000402d10 f i DocType.obj
 0001:00001d50       ??$destroy@U?$pair@$$CBV?$basic_string@DU?$char_traits@D@std@@V?$allocator@D@2@@std@@PEAVValue@AwayJS@@@std@@@?$allocator@U?$_Tree_node@U?$pair@$$CBV?$basic_string@DU?$char_traits@D@std@@V?$allocator@D@2@@std@@PEAVValue@AwayJS@@@std@@PEAX@std@@@std@@QEAAXPEAU?$pair@$$CBV?$basic_string@DU?$char_traits@D@std@@V?$allocator@D@2@@std@@PEAVValue@AwayJS@@@1@@Z 0000000000402d50 f i DocType.obj
 0001:00001d90       ??$destroy@U?$pair@$$CBV?$basic_string@DU?$char_traits@D@std@@V?$allocator@D@2@@std@@PEAVValue@AwayJS@@@std@@@?$allocator_traits@V?$allocator@U?$_Tree_node@U?$pair@$$CBV?$basic_string@DU?$char_traits@D@std@@V?$allocator@D@2@@std@@PEAVValue@AwayJS@@@std@@PEAX@std@@@std@@@std@@SAXAEAV?$allocator@U?$_Tree_node@U?$pair@$$CBV?$basic_string@DU?$char_traits@D@std@@V?$allocator@D@2@@std@@PEAVValue@AwayJS@@@std@@PEAX@std@@@1@PEAU?$pair@$$CBV?$basic_string@DU?$char_traits@D@std@@V?$allocator@D@2@@std@@PEAVValue@AwayJS@@@1@@Z 0000000000402d90 f i DocType.obj
 0001:00001dd0       ??$forward@AEAPEAD@std@@YAAEAPEADAEAPEAD@Z 0000000000402dd0 f i DocType.obj
 0001:00001de0       ??$forward@AEAPEAU?$_Tree_node@U?$pair@$$CBV?$basic_string@DU?$char_traits@D@std@@V?$allocator@D@2@@std@@PEAVFeature@AwayJS@@@std@@PEAX@std@@@std@@YAAEAPEAU?$_Tree_node@U?$pair@$$CBV?$basic_string@DU?$char_traits@D@std@@V?$allocator@D@2@@std@@PEAVFeature@AwayJS@@@std@@PEAX@0@AEAPEAU10@@Z 0000000000402de0 f i DocType.obj
 0001:00001df0       ??$forward@AEAPEAU?$_Tree_node@U?$pair@$$CBV?$basic_string@DU?$char_traits@D@std@@V?$allocator@D@2@@std@@PEAVProperty@AwayJS@@@std@@PEAX@std@@@std@@YAAEAPEAU?$_Tree_node@U?$pair@$$CBV?$basic_string@DU?$char_traits@D@std@@V?$allocator@D@2@@std@@PEAVProperty@AwayJS@@@std@@PEAX@0@AEAPEAU10@@Z 0000000000402df0 f i DocType.obj
 0001:00001e00       ??$forward@AEAPEAU?$_Tree_node@U?$pair@$$CBV?$basic_string@DU?$char_traits@D@std@@V?$allocator@D@2@@std@@PEAVValue@AwayJS@@@std@@PEAX@std@@@std@@YAAEAPEAU?$_Tree_node@U?$pair@$$CBV?$basic_string@DU?$char_traits@D@std@@V?$allocator@D@2@@std@@PEAVValue@AwayJS@@@std@@PEAX@0@AEAPEAU10@@Z 0000000000402e00 f i DocType.obj
 0001:00001e10       ??$forward@AEAPEAVFeature@AwayJS@@@std@@YAAEAPEAVFeature@AwayJS@@AEAPEAV12@@Z 0000000000402e10 f i DocType.obj
 0001:00001e20       ??$forward@AEAPEAVProperty@AwayJS@@@std@@YAAEAPEAVProperty@AwayJS@@AEAPEAV12@@Z 0000000000402e20 f i DocType.obj
 0001:00001e30       ??$forward@AEAPEAVValue@AwayJS@@@std@@YAAEAPEAVValue@AwayJS@@AEAPEAV12@@Z 0000000000402e30 f i DocType.obj
 0001:00001e40       ??$forward@AEAU?$pair@$$CBV?$basic_string@DU?$char_traits@D@std@@V?$allocator@D@2@@std@@PEAVFeature@AwayJS@@@std@@@std@@YAAEAU?$pair@$$CBV?$basic_string@DU?$char_traits@D@std@@V?$allocator@D@2@@std@@PEAVFeature@AwayJS@@@0@AEAU10@@Z 0000000000402e40 f i DocType.obj
 0001:00001e50       ??$forward@AEAU?$pair@$$CBV?$basic_string@DU?$char_traits@D@std@@V?$allocator@D@2@@std@@PEAVProperty@AwayJS@@@std@@@std@@YAAEAU?$pair@$$CBV?$basic_string@DU?$char_traits@D@std@@V?$allocator@D@2@@std@@PEAVProperty@AwayJS@@@0@AEAU10@@Z 0000000000402e50 f i DocType.obj
 0001:00001e60       ??$forward@AEAU?$pair@$$CBV?$basic_string@DU?$char_traits@D@std@@V?$allocator@D@2@@std@@PEAVValue@AwayJS@@@std@@@std@@YAAEAU?$pair@$$CBV?$basic_string@DU?$char_traits@D@std@@V?$allocator@D@2@@std@@PEAVValue@AwayJS@@@0@AEAU10@@Z 0000000000402e60 f i DocType.obj
 0001:00001e70       ??$forward@AEAV?$_Tree_iterator@V?$_Tree_val@U?$_Tree_simple_types@U?$pair@$$CBV?$basic_string@DU?$char_traits@D@std@@V?$allocator@D@2@@std@@PEAVFeature@AwayJS@@@std@@@std@@@std@@@std@@@std@@YAAEAV?$_Tree_iterator@V?$_Tree_val@U?$_Tree_simple_types@U?$pair@$$CBV?$basic_string@DU?$char_traits@D@std@@V?$allocator@D@2@@std@@PEAVFeature@AwayJS@@@std@@@std@@@std@@@0@AEAV10@@Z 0000000000402e70 f i DocType.obj
 0001:00001e80       ??$forward@AEAV?$_Tree_iterator@V?$_Tree_val@U?$_Tree_simple_types@U?$pair@$$CBV?$basic_string@DU?$char_traits@D@std@@V?$allocator@D@2@@std@@PEAVProperty@AwayJS@@@std@@@std@@@std@@@std@@@std@@YAAEAV?$_Tree_iterator@V?$_Tree_val@U?$_Tree_simple_types@U?$pair@$$CBV?$basic_string@DU?$char_traits@D@std@@V?$allocator@D@2@@std@@PEAVProperty@AwayJS@@@std@@@std@@@std@@@0@AEAV10@@Z 0000000000402e80 f i DocType.obj
 0001:00001e90       ??$forward@AEAV?$_Tree_iterator@V?$_Tree_val@U?$_Tree_simple_types@U?$pair@$$CBV?$basic_string@DU?$char_traits@D@std@@V?$allocator@D@2@@std@@PEAVValue@AwayJS@@@std@@@std@@@std@@@std@@@std@@YAAEAV?$_Tree_iterator@V?$_Tree_val@U?$_Tree_simple_types@U?$pair@$$CBV?$basic_string@DU?$char_traits@D@std@@V?$allocator@D@2@@std@@PEAVValue@AwayJS@@@std@@@std@@@std@@@0@AEAV10@@Z 0000000000402e90 f i DocType.obj
 0001:00001ea0       ??$forward@AEAV?$basic_string@DU?$char_traits@D@std@@V?$allocator@D@2@@std@@@std@@YAAEAV?$basic_string@DU?$char_traits@D@std@@V?$allocator@D@2@@0@AEAV10@@Z 0000000000402ea0 f i DocType.obj
 0001:00001eb0       ??$forward@AEBV?$basic_string@DU?$char_traits@D@std@@V?$allocator@D@2@@std@@@std@@YAAEBV?$basic_string@DU?$char_traits@D@std@@V?$allocator@D@2@@0@AEBV10@@Z 0000000000402eb0 f i DocType.obj
 0001:00001ec0       ??$forward@PEAVFeature@AwayJS@@@std@@YA$$QEAPEAVFeature@AwayJS@@AEAPEAV12@@Z 0000000000402ec0 f i DocType.obj
 0001:00001ed0       ??$forward@PEAVProperty@AwayJS@@@std@@YA$$QEAPEAVProperty@AwayJS@@AEAPEAV12@@Z 0000000000402ed0 f i DocType.obj
 0001:00001ee0       ??$forward@PEAVValue@AwayJS@@@std@@YA$$QEAPEAVValue@AwayJS@@AEAPEAV12@@Z 0000000000402ee0 f i DocType.obj
 0001:00001ef0       ??$forward@U?$pair@V?$basic_string@DU?$char_traits@D@std@@V?$allocator@D@2@@std@@PEAVFeature@AwayJS@@@std@@@std@@YA$$QEAU?$pair@V?$basic_string@DU?$char_traits@D@std@@V?$allocator@D@2@@std@@PEAVFeature@AwayJS@@@0@AEAU10@@Z 0000000000402ef0 f i DocType.obj
 0001:00001f00       ??$forward@U?$pair@V?$basic_string@DU?$char_traits@D@std@@V?$allocator@D@2@@std@@PEAVProperty@AwayJS@@@std@@@std@@YA$$QEAU?$pair@V?$basic_string@DU?$char_traits@D@std@@V?$allocator@D@2@@std@@PEAVProperty@AwayJS@@@0@AEAU10@@Z 0000000000402f00 f i DocType.obj
 0001:00001f10       ??$forward@U?$pair@V?$basic_string@DU?$char_traits@D@std@@V?$allocator@D@2@@std@@PEAVValue@AwayJS@@@std@@@std@@YA$$QEAU?$pair@V?$basic_string@DU?$char_traits@D@std@@V?$allocator@D@2@@std@@PEAVValue@AwayJS@@@0@AEAU10@@Z 0000000000402f10 f i DocType.obj
 0001:00001f20       ??$forward@V?$_Tree_iterator@V?$_Tree_val@U?$_Tree_simple_types@U?$pair@$$CBV?$basic_string@DU?$char_traits@D@std@@V?$allocator@D@2@@std@@PEAVFeature@AwayJS@@@std@@@std@@@std@@@std@@@std@@YA$$QEAV?$_Tree_iterator@V?$_Tree_val@U?$_Tree_simple_types@U?$pair@$$CBV?$basic_string@DU?$char_traits@D@std@@V?$allocator@D@2@@std@@PEAVFeature@AwayJS@@@std@@@std@@@std@@@0@AEAV10@@Z 0000000000402f20 f i DocType.obj
 0001:00001f30       ??$forward@V?$_Tree_iterator@V?$_Tree_val@U?$_Tree_simple_types@U?$pair@$$CBV?$basic_string@DU?$char_traits@D@std@@V?$allocator@D@2@@std@@PEAVProperty@AwayJS@@@std@@@std@@@std@@@std@@@std@@YA$$QEAV?$_Tree_iterator@V?$_Tree_val@U?$_Tree_simple_types@U?$pair@$$CBV?$basic_string@DU?$char_traits@D@std@@V?$allocator@D@2@@std@@PEAVProperty@AwayJS@@@std@@@std@@@std@@@0@AEAV10@@Z 0000000000402f30 f i DocType.obj
 0001:00001f40       ??$forward@V?$_Tree_iterator@V?$_Tree_val@U?$_Tree_simple_types@U?$pair@$$CBV?$basic_string@DU?$char_traits@D@std@@V?$allocator@D@2@@std@@PEAVValue@AwayJS@@@std@@@std@@@std@@@std@@@std@@YA$$QEAV?$_Tree_iterator@V?$_Tree_val@U?$_Tree_simple_types@U?$pair@$$CBV?$basic_string@DU?$char_traits@D@std@@V?$allocator@D@2@@std@@PEAVValue@AwayJS@@@std@@@std@@@std@@@0@AEAV10@@Z 0000000000402f40 f i DocType.obj
 0001:00001f50       ??$forward@V?$basic_string@DU?$char_traits@D@std@@V?$allocator@D@2@@std@@@std@@YA$$QEAV?$basic_string@DU?$char_traits@D@std@@V?$allocator@D@2@@0@AEAV10@@Z 0000000000402f50 f i DocType.obj
 0001:00001f60       ??$forward@_N@std@@YA$$QEA_NAEA_N@Z 0000000000402f60 f i DocType.obj
 0001:00001f70       ??$insert@U?$pair@V?$basic_string@DU?$char_traits@D@std@@V?$allocator@D@2@@std@@PEAVFeature@AwayJS@@@std@@@?$_Tree@V?$_Tmap_traits@V?$basic_string@DU?$char_traits@D@std@@V?$allocator@D@2@@std@@PEAVFeature@AwayJS@@U?$less@V?$basic_string@DU?$char_traits@D@std@@V?$allocator@D@2@@std@@@2@V?$allocator@U?$pair@$$CBV?$basic_string@DU?$char_traits@D@std@@V?$allocator@D@2@@std@@PEAVFeature@AwayJS@@@std@@@2@$0A@@std@@@std@@QEAA?AU?$pair@V?$_Tree_iterator@V?$_Tree_val@U?$_Tree_simple_types@U?$pair@$$CBV?$basic_string@DU?$char_traits@D@std@@V?$allocator@D@2@@std@@PEAVFeature@AwayJS@@@std@@@std@@@std@@@std@@_N@1@$$QEAU?$pair@V?$basic_string@DU?$char_traits@D@std@@V?$allocator@D@2@@std@@PEAVFeature@AwayJS@@@1@@Z 0000000000402f70 f i DocType.obj
 0001:00001fc0       ??$insert@U?$pair@V?$basic_string@DU?$char_traits@D@std@@V?$allocator@D@2@@std@@PEAVProperty@AwayJS@@@std@@@?$_Tree@V?$_Tmap_traits@V?$basic_string@DU?$char_traits@D@std@@V?$allocator@D@2@@std@@PEAVProperty@AwayJS@@U?$less@V?$basic_string@DU?$char_traits@D@std@@V?$allocator@D@2@@std@@@2@V?$allocator@U?$pair@$$CBV?$basic_string@DU?$char_traits@D@std@@V?$allocator@D@2@@std@@PEAVProperty@AwayJS@@@std@@@2@$0A@@std@@@std@@QEAA?AU?$pair@V?$_Tree_iterator@V?$_Tree_val@U?$_Tree_simple_types@U?$pair@$$CBV?$basic_string@DU?$char_traits@D@std@@V?$allocator@D@2@@std@@PEAVProperty@AwayJS@@@std@@@std@@@std@@@std@@_N@1@$$QEAU?$pair@V?$basic_string@DU?$char_traits@D@std@@V?$allocator@D@2@@std@@PEAVProperty@AwayJS@@@1@@Z 0000000000402fc0 f i DocType.obj
 0001:00002010       ??$insert@U?$pair@V?$basic_string@DU?$char_traits@D@std@@V?$allocator@D@2@@std@@PEAVValue@AwayJS@@@std@@@?$_Tree@V?$_Tmap_traits@V?$basic_string@DU?$char_traits@D@std@@V?$allocator@D@2@@std@@PEAVValue@AwayJS@@U?$less@V?$basic_string@DU?$char_traits@D@std@@V?$allocator@D@2@@std@@@2@V?$allocator@U?$pair@$$CBV?$basic_string@DU?$char_traits@D@std@@V?$allocator@D@2@@std@@PEAVValue@AwayJS@@@std@@@2@$0A@@std@@@std@@QEAA?AU?$pair@V?$_Tree_iterator@V?$_Tree_val@U?$_Tree_simple_types@U?$pair@$$CBV?$basic_string@DU?$char_traits@D@std@@V?$allocator@D@2@@std@@PEAVValue@AwayJS@@@std@@@std@@@std@@@std@@_N@1@$$QEAU?$pair@V?$basic_string@DU?$char_traits@D@std@@V?$allocator@D@2@@std@@PEAVValue@AwayJS@@@1@@Z 0000000000403010 f i DocType.obj
 0001:00002060       ??$swap@D@std@@YAXAEAD0@Z  0000000000403060 f i DocType.obj
 0001:00002070       ??$use_facet@V?$codecvt@DDH@std@@@std@@YAAEBV?$codecvt@DDH@0@AEBVlocale@0@@Z 0000000000403070 f i DocType.obj
 0001:00002180       ??0?$AutoPtr@VIFCMDictionary@FCM@@@FCM@@QEAA@XZ 0000000000403180 f i DocType.obj
 0001:00002190       ??0?$AutoPtr@VIFCMUnknown@FCM@@@FCM@@QEAA@XZ 0000000000403190 f i DocType.obj
 0001:000021a0       ??0?$_String_alloc@$0A@U?$_String_base_types@DV?$allocator@D@std@@@std@@@std@@QEAA@AEBV?$allocator@D@1@@Z 00000000004031a0 f i DocType.obj
 0001:000021b0       ??0?$_String_const_iterator@V?$_String_val@U?$_Simple_types@D@std@@@std@@@std@@QEAA@PEBDPEBU_Container_base0@1@@Z 00000000004031b0 f i DocType.obj
 0001:000021c0       ??0?$_String_iterator@V?$_String_val@U?$_Simple_types@D@std@@@std@@@std@@QEAA@PEADPEBU_Container_base0@1@@Z 00000000004031c0 f i DocType.obj
 0001:000021d0       ??0?$_String_val@U?$_Simple_types@D@std@@@std@@QEAA@XZ 00000000004031d0 f i DocType.obj
 0001:000021e0       ??0?$_Tree@V?$_Tmap_traits@V?$basic_string@DU?$char_traits@D@std@@V?$allocator@D@2@@std@@PEAVFeature@AwayJS@@U?$less@V?$basic_string@DU?$char_traits@D@std@@V?$allocator@D@2@@std@@@2@V?$allocator@U?$pair@$$CBV?$basic_string@DU?$char_traits@D@std@@V?$allocator@D@2@@std@@PEAVFeature@AwayJS@@@std@@@2@$0A@@std@@@std@@QEAA@AEBU?$less@V?$basic_string@DU?$char_traits@D@std@@V?$allocator@D@2@@std@@@1@AEBV?$allocator@U?$pair@$$CBV?$basic_string@DU?$char_traits@D@std@@V?$allocator@D@2@@std@@PEAVFeature@AwayJS@@@std@@@1@@Z 00000000004031e0 f i DocType.obj
 0001:00002210       ??0?$_Tree@V?$_Tmap_traits@V?$basic_string@DU?$char_traits@D@std@@V?$allocator@D@2@@std@@PEAVProperty@AwayJS@@U?$less@V?$basic_string@DU?$char_traits@D@std@@V?$allocator@D@2@@std@@@2@V?$allocator@U?$pair@$$CBV?$basic_string@DU?$char_traits@D@std@@V?$allocator@D@2@@std@@PEAVProperty@AwayJS@@@std@@@2@$0A@@std@@@std@@QEAA@AEBU?$less@V?$basic_string@DU?$char_traits@D@std@@V?$allocator@D@2@@std@@@1@AEBV?$allocator@U?$pair@$$CBV?$basic_string@DU?$char_traits@D@std@@V?$allocator@D@2@@std@@PEAVProperty@AwayJS@@@std@@@1@@Z 0000000000403210 f i DocType.obj
 0001:00002240       ??0?$_Tree@V?$_Tmap_traits@V?$basic_string@DU?$char_traits@D@std@@V?$allocator@D@2@@std@@PEAVValue@AwayJS@@U?$less@V?$basic_string@DU?$char_traits@D@std@@V?$allocator@D@2@@std@@@2@V?$allocator@U?$pair@$$CBV?$basic_string@DU?$char_traits@D@std@@V?$allocator@D@2@@std@@PEAVValue@AwayJS@@@std@@@2@$0A@@std@@@std@@QEAA@AEBU?$less@V?$basic_string@DU?$char_traits@D@std@@V?$allocator@D@2@@std@@@1@AEBV?$allocator@U?$pair@$$CBV?$basic_string@DU?$char_traits@D@std@@V?$allocator@D@2@@std@@PEAVValue@AwayJS@@@std@@@1@@Z 0000000000403240 f i DocType.obj
 0001:00002270       ??0?$_Tree_alloc@$0A@U?$_Tree_base_types@U?$pair@$$CBV?$basic_string@DU?$char_traits@D@std@@V?$allocator@D@2@@std@@PEAVFeature@AwayJS@@@std@@V?$allocator@U?$pair@$$CBV?$basic_string@DU?$char_traits@D@std@@V?$allocator@D@2@@std@@PEAVFeature@AwayJS@@@std@@@2@@std@@@std@@QEAA@AEBV?$allocator@U?$pair@$$CBV?$basic_string@DU?$char_traits@D@std@@V?$allocator@D@2@@std@@PEAVFeature@AwayJS@@@std@@@1@@Z 0000000000403270 f i DocType.obj
 0001:000022a0       ??0?$_Tree_alloc@$0A@U?$_Tree_base_types@U?$pair@$$CBV?$basic_string@DU?$char_traits@D@std@@V?$allocator@D@2@@std@@PEAVProperty@AwayJS@@@std@@V?$allocator@U?$pair@$$CBV?$basic_string@DU?$char_traits@D@std@@V?$allocator@D@2@@std@@PEAVProperty@AwayJS@@@std@@@2@@std@@@std@@QEAA@AEBV?$allocator@U?$pair@$$CBV?$basic_string@DU?$char_traits@D@std@@V?$allocator@D@2@@std@@PEAVProperty@AwayJS@@@std@@@1@@Z 00000000004032a0 f i DocType.obj
 0001:000022d0       ??0?$_Tree_alloc@$0A@U?$_Tree_base_types@U?$pair@$$CBV?$basic_string@DU?$char_traits@D@std@@V?$allocator@D@2@@std@@PEAVValue@AwayJS@@@std@@V?$allocator@U?$pair@$$CBV?$basic_string@DU?$char_traits@D@std@@V?$allocator@D@2@@std@@PEAVValue@AwayJS@@@std@@@2@@std@@@std@@QEAA@AEBV?$allocator@U?$pair@$$CBV?$basic_string@DU?$char_traits@D@std@@V?$allocator@D@2@@std@@PEAVValue@AwayJS@@@std@@@1@@Z 00000000004032d0 f i DocType.obj
 0001:00002300       ??0?$_Tree_buy@U?$pair@$$CBV?$basic_string@DU?$char_traits@D@std@@V?$allocator@D@2@@std@@PEAVFeature@AwayJS@@@std@@V?$allocator@U?$pair@$$CBV?$basic_string@DU?$char_traits@D@std@@V?$allocator@D@2@@std@@PEAVFeature@AwayJS@@@std@@@2@@std@@QEAA@AEBV?$allocator@U?$pair@$$CBV?$basic_string@DU?$char_traits@D@std@@V?$allocator@D@2@@std@@PEAVFeature@AwayJS@@@std@@@1@@Z 0000000000403300 f i DocType.obj
 0001:00002330       ??0?$_Tree_buy@U?$pair@$$CBV?$basic_string@DU?$char_traits@D@std@@V?$allocator@D@2@@std@@PEAVProperty@AwayJS@@@std@@V?$allocator@U?$pair@$$CBV?$basic_string@DU?$char_traits@D@std@@V?$allocator@D@2@@std@@PEAVProperty@AwayJS@@@std@@@2@@std@@QEAA@AEBV?$allocator@U?$pair@$$CBV?$basic_string@DU?$char_traits@D@std@@V?$allocator@D@2@@std@@PEAVProperty@AwayJS@@@std@@@1@@Z 0000000000403330 f i DocType.obj
 0001:00002360       ??0?$_Tree_buy@U?$pair@$$CBV?$basic_string@DU?$char_traits@D@std@@V?$allocator@D@2@@std@@PEAVValue@AwayJS@@@std@@V?$allocator@U?$pair@$$CBV?$basic_string@DU?$char_traits@D@std@@V?$allocator@D@2@@std@@PEAVValue@AwayJS@@@std@@@2@@std@@QEAA@AEBV?$allocator@U?$pair@$$CBV?$basic_string@DU?$char_traits@D@std@@V?$allocator@D@2@@std@@PEAVValue@AwayJS@@@std@@@1@@Z 0000000000403360 f i DocType.obj
 0001:00002390       ??0?$_Tree_comp@$0A@V?$_Tmap_traits@V?$basic_string@DU?$char_traits@D@std@@V?$allocator@D@2@@std@@PEAVFeature@AwayJS@@U?$less@V?$basic_string@DU?$char_traits@D@std@@V?$allocator@D@2@@std@@@2@V?$allocator@U?$pair@$$CBV?$basic_string@DU?$char_traits@D@std@@V?$allocator@D@2@@std@@PEAVFeature@AwayJS@@@std@@@2@$0A@@std@@@std@@QEAA@AEBU?$less@V?$basic_string@DU?$char_traits@D@std@@V?$allocator@D@2@@std@@@1@AEBV?$allocator@U?$pair@$$CBV?$basic_string@DU?$char_traits@D@std@@V?$allocator@D@2@@std@@PEAVFeature@AwayJS@@@std@@@1@@Z 0000000000403390 f i DocType.obj
 0001:000023c0       ??0?$_Tree_comp@$0A@V?$_Tmap_traits@V?$basic_string@DU?$char_traits@D@std@@V?$allocator@D@2@@std@@PEAVProperty@AwayJS@@U?$less@V?$basic_string@DU?$char_traits@D@std@@V?$allocator@D@2@@std@@@2@V?$allocator@U?$pair@$$CBV?$basic_string@DU?$char_traits@D@std@@V?$allocator@D@2@@std@@PEAVProperty@AwayJS@@@std@@@2@$0A@@std@@@std@@QEAA@AEBU?$less@V?$basic_string@DU?$char_traits@D@std@@V?$allocator@D@2@@std@@@1@AEBV?$allocator@U?$pair@$$CBV?$basic_string@DU?$char_traits@D@std@@V?$allocator@D@2@@std@@PEAVProperty@AwayJS@@@std@@@1@@Z 00000000004033c0 f i DocType.obj
 0001:000023f0       ??0?$_Tree_comp@$0A@V?$_Tmap_traits@V?$basic_string@DU?$char_traits@D@std@@V?$allocator@D@2@@std@@PEAVValue@AwayJS@@U?$less@V?$basic_string@DU?$char_traits@D@std@@V?$allocator@D@2@@std@@@2@V?$allocator@U?$pair@$$CBV?$basic_string@DU?$char_traits@D@std@@V?$allocator@D@2@@std@@PEAVValue@AwayJS@@@std@@@2@$0A@@std@@@std@@QEAA@AEBU?$less@V?$basic_string@DU?$char_traits@D@std@@V?$allocator@D@2@@std@@@1@AEBV?$allocator@U?$pair@$$CBV?$basic_string@DU?$char_traits@D@std@@V?$allocator@D@2@@std@@PEAVValue@AwayJS@@@std@@@1@@Z 00000000004033f0 f i DocType.obj
 0001:00002420       ??0?$_Tree_const_iterator@V?$_Tree_val@U?$_Tree_simple_types@U?$pair@$$CBV?$basic_string@DU?$char_traits@D@std@@V?$allocator@D@2@@std@@PEAVFeature@AwayJS@@@std@@@std@@@std@@@std@@QEAA@PEAU?$_Tree_node@U?$pair@$$CBV?$basic_string@DU?$char_traits@D@std@@V?$allocator@D@2@@std@@PEAVFeature@AwayJS@@@std@@PEAX@1@PEBV?$_Tree_val@U?$_Tree_simple_types@U?$pair@$$CBV?$basic_string@DU?$char_traits@D@std@@V?$allocator@D@2@@std@@PEAVFeature@AwayJS@@@std@@@std@@@1@@Z 0000000000403420 f i DocType.obj
 0001:00002430       ??0?$_Tree_const_iterator@V?$_Tree_val@U?$_Tree_simple_types@U?$pair@$$CBV?$basic_string@DU?$char_traits@D@std@@V?$allocator@D@2@@std@@PEAVProperty@AwayJS@@@std@@@std@@@std@@@std@@QEAA@PEAU?$_Tree_node@U?$pair@$$CBV?$basic_string@DU?$char_traits@D@std@@V?$allocator@D@2@@std@@PEAVProperty@AwayJS@@@std@@PEAX@1@PEBV?$_Tree_val@U?$_Tree_simple_types@U?$pair@$$CBV?$basic_string@DU?$char_traits@D@std@@V?$allocator@D@2@@std@@PEAVProperty@AwayJS@@@std@@@std@@@1@@Z 0000000000403430 f i DocType.obj
 0001:00002440       ??0?$_Tree_const_iterator@V?$_Tree_val@U?$_Tree_simple_types@U?$pair@$$CBV?$basic_string@DU?$char_traits@D@std@@V?$allocator@D@2@@std@@PEAVValue@AwayJS@@@std@@@std@@@std@@@std@@QEAA@PEAU?$_Tree_node@U?$pair@$$CBV?$basic_string@DU?$char_traits@D@std@@V?$allocator@D@2@@std@@PEAVValue@AwayJS@@@std@@PEAX@1@PEBV?$_Tree_val@U?$_Tree_simple_types@U?$pair@$$CBV?$basic_string@DU?$char_traits@D@std@@V?$allocator@D@2@@std@@PEAVValue@AwayJS@@@std@@@std@@@1@@Z 0000000000403440 f i DocType.obj
 0001:00002450       ??0?$_Tree_const_iterator@V?$_Tree_val@U?$_Tree_simple_types@U?$pair@$$CBV?$basic_string@DU?$char_traits@D@std@@V?$allocator@D@2@@std@@V12@@std@@@std@@@std@@@std@@QEAA@PEAU?$_Tree_node@U?$pair@$$CBV?$basic_string@DU?$char_traits@D@std@@V?$allocator@D@2@@std@@V12@@std@@PEAX@1@PEBV?$_Tree_val@U?$_Tree_simple_types@U?$pair@$$CBV?$basic_string@DU?$char_traits@D@std@@V?$allocator@D@2@@std@@V12@@std@@@std@@@1@@Z 0000000000403450 f i DocType.obj
 0001:00002460       ??0?$_Tree_iterator@V?$_Tree_val@U?$_Tree_simple_types@U?$pair@$$CBV?$basic_string@DU?$char_traits@D@std@@V?$allocator@D@2@@std@@PEAVFeature@AwayJS@@@std@@@std@@@std@@@std@@QEAA@PEAU?$_Tree_node@U?$pair@$$CBV?$basic_string@DU?$char_traits@D@std@@V?$allocator@D@2@@std@@PEAVFeature@AwayJS@@@std@@PEAX@1@PEBV?$_Tree_val@U?$_Tree_simple_types@U?$pair@$$CBV?$basic_string@DU?$char_traits@D@std@@V?$allocator@D@2@@std@@PEAVFeature@AwayJS@@@std@@@std@@@1@@Z 0000000000403460 f i DocType.obj
 0001:00002470       ??0?$_Tree_iterator@V?$_Tree_val@U?$_Tree_simple_types@U?$pair@$$CBV?$basic_string@DU?$char_traits@D@std@@V?$allocator@D@2@@std@@PEAVProperty@AwayJS@@@std@@@std@@@std@@@std@@QEAA@PEAU?$_Tree_node@U?$pair@$$CBV?$basic_string@DU?$char_traits@D@std@@V?$allocator@D@2@@std@@PEAVProperty@AwayJS@@@std@@PEAX@1@PEBV?$_Tree_val@U?$_Tree_simple_types@U?$pair@$$CBV?$basic_string@DU?$char_traits@D@std@@V?$allocator@D@2@@std@@PEAVProperty@AwayJS@@@std@@@std@@@1@@Z 0000000000403470 f i DocType.obj
 0001:00002480       ??0?$_Tree_iterator@V?$_Tree_val@U?$_Tree_simple_types@U?$pair@$$CBV?$basic_string@DU?$char_traits@D@std@@V?$allocator@D@2@@std@@PEAVValue@AwayJS@@@std@@@std@@@std@@@std@@QEAA@PEAU?$_Tree_node@U?$pair@$$CBV?$basic_string@DU?$char_traits@D@std@@V?$allocator@D@2@@std@@PEAVValue@AwayJS@@@std@@PEAX@1@PEBV?$_Tree_val@U?$_Tree_simple_types@U?$pair@$$CBV?$basic_string@DU?$char_traits@D@std@@V?$allocator@D@2@@std@@PEAVValue@AwayJS@@@std@@@std@@@1@@Z 0000000000403480 f i DocType.obj
 0001:00002490       ??0?$_Tree_unchecked_const_iterator@V?$_Tree_val@U?$_Tree_simple_types@U?$pair@$$CBV?$basic_string@DU?$char_traits@D@std@@V?$allocator@D@2@@std@@PEAVFeature@AwayJS@@@std@@@std@@@std@@U_Iterator_base0@2@@std@@QEAA@PEAU?$_Tree_node@U?$pair@$$CBV?$basic_string@DU?$char_traits@D@std@@V?$allocator@D@2@@std@@PEAVFeature@AwayJS@@@std@@PEAX@1@PEBV?$_Tree_val@U?$_Tree_simple_types@U?$pair@$$CBV?$basic_string@DU?$char_traits@D@std@@V?$allocator@D@2@@std@@PEAVFeature@AwayJS@@@std@@@std@@@1@@Z 0000000000403490 f i DocType.obj
 0001:000024a0       ??0?$_Tree_unchecked_const_iterator@V?$_Tree_val@U?$_Tree_simple_types@U?$pair@$$CBV?$basic_string@DU?$char_traits@D@std@@V?$allocator@D@2@@std@@PEAVProperty@AwayJS@@@std@@@std@@@std@@U_Iterator_base0@2@@std@@QEAA@PEAU?$_Tree_node@U?$pair@$$CBV?$basic_string@DU?$char_traits@D@std@@V?$allocator@D@2@@std@@PEAVProperty@AwayJS@@@std@@PEAX@1@PEBV?$_Tree_val@U?$_Tree_simple_types@U?$pair@$$CBV?$basic_string@DU?$char_traits@D@std@@V?$allocator@D@2@@std@@PEAVProperty@AwayJS@@@std@@@std@@@1@@Z 00000000004034a0 f i DocType.obj
 0001:000024b0       ??0?$_Tree_unchecked_const_iterator@V?$_Tree_val@U?$_Tree_simple_types@U?$pair@$$CBV?$basic_string@DU?$char_traits@D@std@@V?$allocator@D@2@@std@@PEAVValue@AwayJS@@@std@@@std@@@std@@U_Iterator_base0@2@@std@@QEAA@PEAU?$_Tree_node@U?$pair@$$CBV?$basic_string@DU?$char_traits@D@std@@V?$allocator@D@2@@std@@PEAVValue@AwayJS@@@std@@PEAX@1@PEBV?$_Tree_val@U?$_Tree_simple_types@U?$pair@$$CBV?$basic_string@DU?$char_traits@D@std@@V?$allocator@D@2@@std@@PEAVValue@AwayJS@@@std@@@std@@@1@@Z 00000000004034b0 f i DocType.obj
 0001:000024c0       ??0?$_Tree_unchecked_const_iterator@V?$_Tree_val@U?$_Tree_simple_types@U?$pair@$$CBV?$basic_string@DU?$char_traits@D@std@@V?$allocator@D@2@@std@@V12@@std@@@std@@@std@@U_Iterator_base0@2@@std@@QEAA@PEAU?$_Tree_node@U?$pair@$$CBV?$basic_string@DU?$char_traits@D@std@@V?$allocator@D@2@@std@@V12@@std@@PEAX@1@PEBV?$_Tree_val@U?$_Tree_simple_types@U?$pair@$$CBV?$basic_string@DU?$char_traits@D@std@@V?$allocator@D@2@@std@@V12@@std@@@std@@@1@@Z 00000000004034c0 f i DocType.obj
 0001:000024d0       ??0?$_Tree_val@U?$_Tree_simple_types@U?$pair@$$CBV?$basic_string@DU?$char_traits@D@std@@V?$allocator@D@2@@std@@PEAVFeature@AwayJS@@@std@@@std@@@std@@QEAA@XZ 00000000004034d0 f i DocType.obj
 0001:000024e0       ??0?$_Tree_val@U?$_Tree_simple_types@U?$pair@$$CBV?$basic_string@DU?$char_traits@D@std@@V?$allocator@D@2@@std@@PEAVProperty@AwayJS@@@std@@@std@@@std@@QEAA@XZ 00000000004034e0 f i DocType.obj
 0001:000024f0       ??0?$_Tree_val@U?$_Tree_simple_types@U?$pair@$$CBV?$basic_string@DU?$char_traits@D@std@@V?$allocator@D@2@@std@@PEAVValue@AwayJS@@@std@@@std@@@std@@QEAA@XZ 00000000004034f0 f i DocType.obj
 0001:00002500       ??0?$_Wrap_alloc@V?$allocator@D@std@@@std@@QEAA@AEBV?$allocator@D@1@@Z 0000000000403500 f i DocType.obj
 0001:00002510       ??0?$_Wrap_alloc@V?$allocator@D@std@@@std@@QEAA@XZ 0000000000403510 f i DocType.obj
 0001:00002520       ??0?$_Wrap_alloc@V?$allocator@U?$_Tree_node@U?$pair@$$CBV?$basic_string@DU?$char_traits@D@std@@V?$allocator@D@2@@std@@PEAVFeature@AwayJS@@@std@@PEAX@std@@@std@@@std@@QEAA@XZ 0000000000403520 f i DocType.obj
 0001:00002530       ??0?$_Wrap_alloc@V?$allocator@U?$_Tree_node@U?$pair@$$CBV?$basic_string@DU?$char_traits@D@std@@V?$allocator@D@2@@std@@PEAVProperty@AwayJS@@@std@@PEAX@std@@@std@@@std@@QEAA@XZ 0000000000403530 f i DocType.obj
 0001:00002540       ??0?$_Wrap_alloc@V?$allocator@U?$_Tree_node@U?$pair@$$CBV?$basic_string@DU?$char_traits@D@std@@V?$allocator@D@2@@std@@PEAVValue@AwayJS@@@std@@PEAX@std@@@std@@@std@@QEAA@XZ 0000000000403540 f i DocType.obj
 0001:00002550       ??0?$allocator@D@std@@QEAA@AEBV01@@Z 0000000000403550 f i DocType.obj
 0001:00002560       ??0?$allocator@D@std@@QEAA@XZ 0000000000403560 f i DocType.obj
 0001:00002570       ??0?$allocator@U?$_Tree_node@U?$pair@$$CBV?$basic_string@DU?$char_traits@D@std@@V?$allocator@D@2@@std@@PEAVFeature@AwayJS@@@std@@PEAX@std@@@std@@QEAA@XZ 0000000000403570 f i DocType.obj
 0001:00002580       ??0?$allocator@U?$_Tree_node@U?$pair@$$CBV?$basic_string@DU?$char_traits@D@std@@V?$allocator@D@2@@std@@PEAVProperty@AwayJS@@@std@@PEAX@std@@@std@@QEAA@XZ 0000000000403580 f i DocType.obj
 0001:00002590       ??0?$allocator@U?$_Tree_node@U?$pair@$$CBV?$basic_string@DU?$char_traits@D@std@@V?$allocator@D@2@@std@@PEAVValue@AwayJS@@@std@@PEAX@std@@@std@@QEAA@XZ 0000000000403590 f i DocType.obj
 0001:000025a0       ??0?$allocator@U?$pair@$$CBV?$basic_string@DU?$char_traits@D@std@@V?$allocator@D@2@@std@@PEAVFeature@AwayJS@@@std@@@std@@QEAA@XZ 00000000004035a0 f i DocType.obj
 0001:000025b0       ??0?$allocator@U?$pair@$$CBV?$basic_string@DU?$char_traits@D@std@@V?$allocator@D@2@@std@@PEAVProperty@AwayJS@@@std@@@std@@QEAA@XZ 00000000004035b0 f i DocType.obj
 0001:000025c0       ??0?$allocator@U?$pair@$$CBV?$basic_string@DU?$char_traits@D@std@@V?$allocator@D@2@@std@@PEAVValue@AwayJS@@@std@@@std@@QEAA@XZ 00000000004035c0 f i DocType.obj
 0001:000025d0       ??0?$basic_filebuf@DU?$char_traits@D@std@@@std@@QEAA@PEAU_iobuf@@@Z 00000000004035d0 f i DocType.obj
 0001:00002670       ??0?$basic_ifstream@DU?$char_traits@D@std@@@std@@QEAA@PEBDHH@Z 0000000000403670 f i DocType.obj
 0001:000027b0       ??0?$basic_string@DU?$char_traits@D@std@@V?$allocator@D@2@@std@@QEAA@$$QEAV01@@Z 00000000004037b0 f i DocType.obj
 0001:00002830       ??0?$basic_string@DU?$char_traits@D@std@@V?$allocator@D@2@@std@@QEAA@AEBV01@@Z 0000000000403830 f i DocType.obj
 0001:00002870       ??0?$basic_string@DU?$char_traits@D@std@@V?$allocator@D@2@@std@@QEAA@PEBD@Z 0000000000403870 f i DocType.obj
 0001:000028b0       ??0?$basic_string@DU?$char_traits@D@std@@V?$allocator@D@2@@std@@QEAA@XZ 00000000004038b0 f i DocType.obj
 0001:000028d0       ??0?$basic_string@DU?$char_traits@D@std@@V?$allocator@D@2@@std@@QEAA@_KD@Z 00000000004038d0 f i DocType.obj
 0001:00002900       ??0?$fpos@H@std@@QEAA@H_J@Z 0000000000403900 f i DocType.obj
 0001:00002920       ??0?$fpos@H@std@@QEAA@_J@Z 0000000000403920 f i DocType.obj
 0001:00002930       ??0?$map@V?$basic_string@DU?$char_traits@D@std@@V?$allocator@D@2@@std@@PEAVFeature@AwayJS@@U?$less@V?$basic_string@DU?$char_traits@D@std@@V?$allocator@D@2@@std@@@2@V?$allocator@U?$pair@$$CBV?$basic_string@DU?$char_traits@D@std@@V?$allocator@D@2@@std@@PEAVFeature@AwayJS@@@std@@@2@@std@@QEAA@XZ 0000000000403930 f i DocType.obj
 0001:00002960       ??0?$map@V?$basic_string@DU?$char_traits@D@std@@V?$allocator@D@2@@std@@PEAVProperty@AwayJS@@U?$less@V?$basic_string@DU?$char_traits@D@std@@V?$allocator@D@2@@std@@@2@V?$allocator@U?$pair@$$CBV?$basic_string@DU?$char_traits@D@std@@V?$allocator@D@2@@std@@PEAVProperty@AwayJS@@@std@@@2@@std@@QEAA@XZ 0000000000403960 f i DocType.obj
 0001:00002990       ??0?$map@V?$basic_string@DU?$char_traits@D@std@@V?$allocator@D@2@@std@@PEAVValue@AwayJS@@U?$less@V?$basic_string@DU?$char_traits@D@std@@V?$allocator@D@2@@std@@@2@V?$allocator@U?$pair@$$CBV?$basic_string@DU?$char_traits@D@std@@V?$allocator@D@2@@std@@PEAVValue@AwayJS@@@std@@@2@@std@@QEAA@XZ 0000000000403990 f i DocType.obj
 0001:000029c0       ??0CDocType@AwayJS@@QEAA@XZ 00000000004039c0 f   DocType.obj
 0001:000029e0       ??0Feature@AwayJS@@QEAA@_N@Z 00000000004039e0 f   DocType.obj
 0001:00002a30       ??0FeatureMatrix@AwayJS@@QEAA@XZ 0000000000403a30 f   DocType.obj
 0001:00002a70       ??0IDocType@DocType@@QEAA@XZ 0000000000403a70 f i DocType.obj
 0001:00002a80       ??0IFCMUnknown@FCM@@QEAA@XZ 0000000000403a80 f i DocType.obj
 0001:00002a90       ??0IFeatureMatrix@DocType@@QEAA@XZ 0000000000403a90 f i DocType.obj
 0001:00002aa0       ??0Property@AwayJS@@QEAA@AEBV?$basic_string@DU?$char_traits@D@std@@V?$allocator@D@2@@std@@_N@Z 0000000000403aa0 f   DocType.obj
 0001:00002b30       ??0Value@AwayJS@@QEAA@_N@Z 0000000000403b30 f   DocType.obj
 0001:00002b40       ??0_Generic_error_category@std@@QEAA@XZ 0000000000403b40 f i DocType.obj
 0001:00002b50       ??0_Iostream_error_category@std@@QEAA@XZ 0000000000403b50 f i DocType.obj
 0001:00002b60       ??0_System_error_category@std@@QEAA@XZ 0000000000403b60 f i DocType.obj
 0001:00002b70       ??0error_category@std@@QEAA@XZ 0000000000403b70 f i DocType.obj
 0001:00002b80       ??0error_condition@std@@QEAA@HAEBVerror_category@1@@Z 0000000000403b80 f i DocType.obj
 0001:00002b90       ??1?$AutoPtr@VIFCMCalloc@FCM@@@FCM@@QEAA@XZ 0000000000403b90 f i DocType.obj
 0001:00002bc0       ??1?$AutoPtr@VIFCMDictionary@FCM@@@FCM@@QEAA@XZ 0000000000403bc0 f i DocType.obj
 0001:00002bf0       ??1?$AutoPtr@VIFCMUnknown@FCM@@@FCM@@QEAA@XZ 0000000000403bf0 f i DocType.obj
 0001:00002c20       ??1?$AutoPtr@VIOutputConsoleService@Service@FlashApplication@@@FCM@@QEAA@XZ 0000000000403c20 f i DocType.obj
 0001:00002c50       ??1?$_Tree@V?$_Tmap_traits@V?$basic_string@DU?$char_traits@D@std@@V?$allocator@D@2@@std@@PEAVFeature@AwayJS@@U?$less@V?$basic_string@DU?$char_traits@D@std@@V?$allocator@D@2@@std@@@2@V?$allocator@U?$pair@$$CBV?$basic_string@DU?$char_traits@D@std@@V?$allocator@D@2@@std@@PEAVFeature@AwayJS@@@std@@@2@$0A@@std@@@std@@QEAA@XZ 0000000000403c50 f i DocType.obj
 0001:00002c80       ??1?$_Tree@V?$_Tmap_traits@V?$basic_string@DU?$char_traits@D@std@@V?$allocator@D@2@@std@@PEAVProperty@AwayJS@@U?$less@V?$basic_string@DU?$char_traits@D@std@@V?$allocator@D@2@@std@@@2@V?$allocator@U?$pair@$$CBV?$basic_string@DU?$char_traits@D@std@@V?$allocator@D@2@@std@@PEAVProperty@AwayJS@@@std@@@2@$0A@@std@@@std@@QEAA@XZ 0000000000403c80 f i DocType.obj
 0001:00002cb0       ??1?$_Tree@V?$_Tmap_traits@V?$basic_string@DU?$char_traits@D@std@@V?$allocator@D@2@@std@@PEAVValue@AwayJS@@U?$less@V?$basic_string@DU?$char_traits@D@std@@V?$allocator@D@2@@std@@@2@V?$allocator@U?$pair@$$CBV?$basic_string@DU?$char_traits@D@std@@V?$allocator@D@2@@std@@PEAVValue@AwayJS@@@std@@@2@$0A@@std@@@std@@QEAA@XZ 0000000000403cb0 f i DocType.obj
 0001:00002ce0       ??1?$_Tree_alloc@$0A@U?$_Tree_base_types@U?$pair@$$CBV?$basic_string@DU?$char_traits@D@std@@V?$allocator@D@2@@std@@PEAVFeature@AwayJS@@@std@@V?$allocator@U?$pair@$$CBV?$basic_string@DU?$char_traits@D@std@@V?$allocator@D@2@@std@@PEAVFeature@AwayJS@@@std@@@2@@std@@@std@@QEAA@XZ 0000000000403ce0 f i DocType.obj
 0001:00002cf0       ??1?$_Tree_alloc@$0A@U?$_Tree_base_types@U?$pair@$$CBV?$basic_string@DU?$char_traits@D@std@@V?$allocator@D@2@@std@@PEAVProperty@AwayJS@@@std@@V?$allocator@U?$pair@$$CBV?$basic_string@DU?$char_traits@D@std@@V?$allocator@D@2@@std@@PEAVProperty@AwayJS@@@std@@@2@@std@@@std@@QEAA@XZ 0000000000403cf0 f i DocType.obj
 0001:00002d00       ??1?$_Tree_alloc@$0A@U?$_Tree_base_types@U?$pair@$$CBV?$basic_string@DU?$char_traits@D@std@@V?$allocator@D@2@@std@@PEAVValue@AwayJS@@@std@@V?$allocator@U?$pair@$$CBV?$basic_string@DU?$char_traits@D@std@@V?$allocator@D@2@@std@@PEAVValue@AwayJS@@@std@@@2@@std@@@std@@QEAA@XZ 0000000000403d00 f i DocType.obj
 0001:00002d10       ??1?$_Tree_buy@U?$pair@$$CBV?$basic_string@DU?$char_traits@D@std@@V?$allocator@D@2@@std@@PEAVFeature@AwayJS@@@std@@V?$allocator@U?$pair@$$CBV?$basic_string@DU?$char_traits@D@std@@V?$allocator@D@2@@std@@PEAVFeature@AwayJS@@@std@@@2@@std@@QEAA@XZ 0000000000403d10 f i DocType.obj
 0001:00002d20       ??1?$_Tree_buy@U?$pair@$$CBV?$basic_string@DU?$char_traits@D@std@@V?$allocator@D@2@@std@@PEAVProperty@AwayJS@@@std@@V?$allocator@U?$pair@$$CBV?$basic_string@DU?$char_traits@D@std@@V?$allocator@D@2@@std@@PEAVProperty@AwayJS@@@std@@@2@@std@@QEAA@XZ 0000000000403d20 f i DocType.obj
 0001:00002d30       ??1?$_Tree_buy@U?$pair@$$CBV?$basic_string@DU?$char_traits@D@std@@V?$allocator@D@2@@std@@PEAVValue@AwayJS@@@std@@V?$allocator@U?$pair@$$CBV?$basic_string@DU?$char_traits@D@std@@V?$allocator@D@2@@std@@PEAVValue@AwayJS@@@std@@@2@@std@@QEAA@XZ 0000000000403d30 f i DocType.obj
 0001:00002d40       ??1?$_Tree_comp@$0A@V?$_Tmap_traits@V?$basic_string@DU?$char_traits@D@std@@V?$allocator@D@2@@std@@PEAVFeature@AwayJS@@U?$less@V?$basic_string@DU?$char_traits@D@std@@V?$allocator@D@2@@std@@@2@V?$allocator@U?$pair@$$CBV?$basic_string@DU?$char_traits@D@std@@V?$allocator@D@2@@std@@PEAVFeature@AwayJS@@@std@@@2@$0A@@std@@@std@@QEAA@XZ 0000000000403d40 f i DocType.obj
 0001:00002d50       ??1?$_Tree_comp@$0A@V?$_Tmap_traits@V?$basic_string@DU?$char_traits@D@std@@V?$allocator@D@2@@std@@PEAVProperty@AwayJS@@U?$less@V?$basic_string@DU?$char_traits@D@std@@V?$allocator@D@2@@std@@@2@V?$allocator@U?$pair@$$CBV?$basic_string@DU?$char_traits@D@std@@V?$allocator@D@2@@std@@PEAVProperty@AwayJS@@@std@@@2@$0A@@std@@@std@@QEAA@XZ 0000000000403d50 f i DocType.obj
 0001:00002d60       ??1?$_Tree_comp@$0A@V?$_Tmap_traits@V?$basic_string@DU?$char_traits@D@std@@V?$allocator@D@2@@std@@PEAVValue@AwayJS@@U?$less@V?$basic_string@DU?$char_traits@D@std@@V?$allocator@D@2@@std@@@2@V?$allocator@U?$pair@$$CBV?$basic_string@DU?$char_traits@D@std@@V?$allocator@D@2@@std@@PEAVValue@AwayJS@@@std@@@2@$0A@@std@@@std@@QEAA@XZ 0000000000403d60 f i DocType.obj
 0001:00002d70       ??1?$basic_filebuf@DU?$char_traits@D@std@@@std@@UEAA@XZ 0000000000403d70 f i DocType.obj
 0001:00002de0       ??1?$basic_ifstream@DU?$char_traits@D@std@@@std@@UEAA@XZ 0000000000403de0 f i DocType.obj
 0001:00002e40       ??1?$basic_string@DU?$char_traits@D@std@@V?$allocator@D@2@@std@@QEAA@XZ 0000000000403e40 f i DocType.obj
 0001:00002e80       ??1?$map@V?$basic_string@DU?$char_traits@D@std@@V?$allocator@D@2@@std@@PEAVFeature@AwayJS@@U?$less@V?$basic_string@DU?$char_traits@D@std@@V?$allocator@D@2@@std@@@2@V?$allocator@U?$pair@$$CBV?$basic_string@DU?$char_traits@D@std@@V?$allocator@D@2@@std@@PEAVFeature@AwayJS@@@std@@@2@@std@@QEAA@XZ 0000000000403e80 f i DocType.obj
 0001:00002eb0       ??1?$map@V?$basic_string@DU?$char_traits@D@std@@V?$allocator@D@2@@std@@PEAVProperty@AwayJS@@U?$less@V?$basic_string@DU?$char_traits@D@std@@V?$allocator@D@2@@std@@@2@V?$allocator@U?$pair@$$CBV?$basic_string@DU?$char_traits@D@std@@V?$allocator@D@2@@std@@PEAVProperty@AwayJS@@@std@@@2@@std@@QEAA@XZ 0000000000403eb0 f i DocType.obj
 0001:00002ee0       ??1?$map@V?$basic_string@DU?$char_traits@D@std@@V?$allocator@D@2@@std@@PEAVValue@AwayJS@@U?$less@V?$basic_string@DU?$char_traits@D@std@@V?$allocator@D@2@@std@@@2@V?$allocator@U?$pair@$$CBV?$basic_string@DU?$char_traits@D@std@@V?$allocator@D@2@@std@@PEAVValue@AwayJS@@@std@@@2@@std@@QEAA@XZ 0000000000403ee0 f i DocType.obj
 0001:00002f10       ??1?$pair@$$CBV?$basic_string@DU?$char_traits@D@std@@V?$allocator@D@2@@std@@PEAVFeature@AwayJS@@@std@@QEAA@XZ 0000000000403f10 f i DocType.obj
 0001:00002f50       ??1?$pair@$$CBV?$basic_string@DU?$char_traits@D@std@@V?$allocator@D@2@@std@@PEAVProperty@AwayJS@@@std@@QEAA@XZ 0000000000403f50 f i DocType.obj
 0001:00002f90       ??1?$pair@$$CBV?$basic_string@DU?$char_traits@D@std@@V?$allocator@D@2@@std@@PEAVValue@AwayJS@@@std@@QEAA@XZ 0000000000403f90 f i DocType.obj
 0001:00002fd0       ??1?$pair@V?$basic_string@DU?$char_traits@D@std@@V?$allocator@D@2@@std@@PEAVFeature@AwayJS@@@std@@QEAA@XZ 0000000000403fd0 f i DocType.obj
 0001:00003010       ??1?$pair@V?$basic_string@DU?$char_traits@D@std@@V?$allocator@D@2@@std@@PEAVProperty@AwayJS@@@std@@QEAA@XZ 0000000000404010 f i DocType.obj
 0001:00003050       ??1?$pair@V?$basic_string@DU?$char_traits@D@std@@V?$allocator@D@2@@std@@PEAVValue@AwayJS@@@std@@QEAA@XZ 0000000000404050 f i DocType.obj
 0001:00003090       ??1CDocType@AwayJS@@QEAA@XZ 0000000000404090 f   DocType.obj
 0001:000030c0       ??1Feature@AwayJS@@QEAA@XZ 00000000004040c0 f   DocType.obj
 0001:00003210       ??1FeatureDocumentHandler@AwayJS@@UEAA@XZ 0000000000404210 f i DocType.obj
 0001:00003220       ??1FeatureMatrix@AwayJS@@QEAA@XZ 0000000000404220 f   DocType.obj
 0001:00003260       ??1Property@AwayJS@@QEAA@XZ 0000000000404260 f   DocType.obj
 0001:000033b0       ??1Value@AwayJS@@QEAA@XZ   00000000004043b0 f   DocType.obj
 0001:000033c0       ??1_Generic_error_category@std@@UEAA@XZ 00000000004043c0 f i DocType.obj
 0001:000033d0       ??1_Iostream_error_category@std@@UEAA@XZ 00000000004043d0 f i DocType.obj
 0001:000033e0       ??1_System_error_category@std@@UEAA@XZ 00000000004043e0 f i DocType.obj
 0001:000033f0       ??1error_category@std@@UEAA@XZ 00000000004043f0 f i DocType.obj
 0001:00003400       ??1locale@std@@QEAA@XZ     0000000000404400 f i DocType.obj
 0001:00003430       ??2@YAPEAX_KPEAX@Z         0000000000404430 f i DocType.obj
 0001:00003440       ??3@YAXPEAX0@Z             0000000000404440 f i DocType.obj
 0001:00003450       ??4?$basic_string@DU?$char_traits@D@std@@V?$allocator@D@2@@std@@QEAAAEAV01@AEBV01@@Z 0000000000404450 f i DocType.obj
 0001:00003480       ??8?$_Tree_const_iterator@V?$_Tree_val@U?$_Tree_simple_types@U?$pair@$$CBV?$basic_string@DU?$char_traits@D@std@@V?$allocator@D@2@@std@@PEAVFeature@AwayJS@@@std@@@std@@@std@@@std@@QEBA_NAEBV01@@Z 0000000000404480 f i DocType.obj
 0001:00003490       ??8?$_Tree_const_iterator@V?$_Tree_val@U?$_Tree_simple_types@U?$pair@$$CBV?$basic_string@DU?$char_traits@D@std@@V?$allocator@D@2@@std@@PEAVProperty@AwayJS@@@std@@@std@@@std@@@std@@QEBA_NAEBV01@@Z 0000000000404490 f i DocType.obj
 0001:000034a0       ??8?$_Tree_const_iterator@V?$_Tree_val@U?$_Tree_simple_types@U?$pair@$$CBV?$basic_string@DU?$char_traits@D@std@@V?$allocator@D@2@@std@@PEAVValue@AwayJS@@@std@@@std@@@std@@@std@@QEBA_NAEBV01@@Z 00000000004044a0 f i DocType.obj
 0001:000034b0       ??8?$_Tree_const_iterator@V?$_Tree_val@U?$_Tree_simple_types@U?$pair@$$CBV?$basic_string@DU?$char_traits@D@std@@V?$allocator@D@2@@std@@V12@@std@@@std@@@std@@@std@@QEBA_NAEBV01@@Z 00000000004044b0 f i DocType.obj
 0001:000034c0       ??8error_category@std@@QEBA_NAEBV01@@Z 00000000004044c0 f i DocType.obj
 0001:000034d0       ??8error_condition@std@@QEBA_NAEBV01@@Z 00000000004044d0 f i DocType.obj
 0001:000034f0       ??9?$_Tree_const_iterator@V?$_Tree_val@U?$_Tree_simple_types@U?$pair@$$CBV?$basic_string@DU?$char_traits@D@std@@V?$allocator@D@2@@std@@PEAVFeature@AwayJS@@@std@@@std@@@std@@@std@@QEBA_NAEBV01@@Z 00000000004044f0 f i DocType.obj
 0001:00003500       ??9?$_Tree_const_iterator@V?$_Tree_val@U?$_Tree_simple_types@U?$pair@$$CBV?$basic_string@DU?$char_traits@D@std@@V?$allocator@D@2@@std@@PEAVProperty@AwayJS@@@std@@@std@@@std@@@std@@QEBA_NAEBV01@@Z 0000000000404500 f i DocType.obj
 0001:00003510       ??9?$_Tree_const_iterator@V?$_Tree_val@U?$_Tree_simple_types@U?$pair@$$CBV?$basic_string@DU?$char_traits@D@std@@V?$allocator@D@2@@std@@PEAVValue@AwayJS@@@std@@@std@@@std@@@std@@QEBA_NAEBV01@@Z 0000000000404510 f i DocType.obj
 0001:00003520       ??9?$_Tree_const_iterator@V?$_Tree_val@U?$_Tree_simple_types@U?$pair@$$CBV?$basic_string@DU?$char_traits@D@std@@V?$allocator@D@2@@std@@V12@@std@@@std@@@std@@@std@@QEBA_NAEBV01@@Z 0000000000404520 f i DocType.obj
 0001:00003530       ??B?$fpos@H@std@@QEBA_JXZ  0000000000404530 f i DocType.obj
 0001:00003540       ??C?$AutoPtr@VIFCMCalloc@FCM@@@FCM@@QEBAPEAVIFCMCalloc@1@XZ 0000000000404540 f i DocType.obj
 0001:00003550       ??C?$AutoPtr@VIFCMDictionary@FCM@@@FCM@@QEBAPEAVIFCMDictionary@1@XZ 0000000000404550 f i DocType.obj
 0001:00003560       ??C?$AutoPtr@VIOutputConsoleService@Service@FlashApplication@@@FCM@@QEBAPEAVIOutputConsoleService@Service@FlashApplication@@XZ 0000000000404560 f i DocType.obj
 0001:00003570       ??C?$_Tree_const_iterator@V?$_Tree_val@U?$_Tree_simple_types@U?$pair@$$CBV?$basic_string@DU?$char_traits@D@std@@V?$allocator@D@2@@std@@V12@@std@@@std@@@std@@@std@@QEBAPEBU?$pair@$$CBV?$basic_string@DU?$char_traits@D@std@@V?$allocator@D@2@@std@@V12@@1@XZ 0000000000404570 f i DocType.obj
 0001:00003580       ??C?$_Tree_iterator@V?$_Tree_val@U?$_Tree_simple_types@U?$pair@$$CBV?$basic_string@DU?$char_traits@D@std@@V?$allocator@D@2@@std@@PEAVFeature@AwayJS@@@std@@@std@@@std@@@std@@QEBAPEAU?$pair@$$CBV?$basic_string@DU?$char_traits@D@std@@V?$allocator@D@2@@std@@PEAVFeature@AwayJS@@@1@XZ 0000000000404580 f i DocType.obj
 0001:00003590       ??C?$_Tree_iterator@V?$_Tree_val@U?$_Tree_simple_types@U?$pair@$$CBV?$basic_string@DU?$char_traits@D@std@@V?$allocator@D@2@@std@@PEAVProperty@AwayJS@@@std@@@std@@@std@@@std@@QEBAPEAU?$pair@$$CBV?$basic_string@DU?$char_traits@D@std@@V?$allocator@D@2@@std@@PEAVProperty@AwayJS@@@1@XZ 0000000000404590 f i DocType.obj
 0001:000035a0       ??C?$_Tree_iterator@V?$_Tree_val@U?$_Tree_simple_types@U?$pair@$$CBV?$basic_string@DU?$char_traits@D@std@@V?$allocator@D@2@@std@@PEAVValue@AwayJS@@@std@@@std@@@std@@@std@@QEBAPEAU?$pair@$$CBV?$basic_string@DU?$char_traits@D@std@@V?$allocator@D@2@@std@@PEAVValue@AwayJS@@@1@XZ 00000000004045a0 f i DocType.obj
 0001:000035b0       ??D?$_String_const_iterator@V?$_String_val@U?$_Simple_types@D@std@@@std@@@std@@QEBAAEBDXZ 00000000004045b0 f i DocType.obj
 0001:000035c0       ??D?$_String_iterator@V?$_String_val@U?$_Simple_types@D@std@@@std@@@std@@QEBAAEADXZ 00000000004045c0 f i DocType.obj
 0001:000035d0       ??D?$_Tree_const_iterator@V?$_Tree_val@U?$_Tree_simple_types@U?$pair@$$CBV?$basic_string@DU?$char_traits@D@std@@V?$allocator@D@2@@std@@PEAVFeature@AwayJS@@@std@@@std@@@std@@@std@@QEBAAEBU?$pair@$$CBV?$basic_string@DU?$char_traits@D@std@@V?$allocator@D@2@@std@@PEAVFeature@AwayJS@@@1@XZ 00000000004045d0 f i DocType.obj
 0001:000035e0       ??D?$_Tree_const_iterator@V?$_Tree_val@U?$_Tree_simple_types@U?$pair@$$CBV?$basic_string@DU?$char_traits@D@std@@V?$allocator@D@2@@std@@PEAVProperty@AwayJS@@@std@@@std@@@std@@@std@@QEBAAEBU?$pair@$$CBV?$basic_string@DU?$char_traits@D@std@@V?$allocator@D@2@@std@@PEAVProperty@AwayJS@@@1@XZ 00000000004045e0 f i DocType.obj
 0001:000035f0       ??D?$_Tree_const_iterator@V?$_Tree_val@U?$_Tree_simple_types@U?$pair@$$CBV?$basic_string@DU?$char_traits@D@std@@V?$allocator@D@2@@std@@PEAVValue@AwayJS@@@std@@@std@@@std@@@std@@QEBAAEBU?$pair@$$CBV?$basic_string@DU?$char_traits@D@std@@V?$allocator@D@2@@std@@PEAVValue@AwayJS@@@1@XZ 00000000004045f0 f i DocType.obj
 0001:00003600       ??D?$_Tree_const_iterator@V?$_Tree_val@U?$_Tree_simple_types@U?$pair@$$CBV?$basic_string@DU?$char_traits@D@std@@V?$allocator@D@2@@std@@V12@@std@@@std@@@std@@@std@@QEBAAEBU?$pair@$$CBV?$basic_string@DU?$char_traits@D@std@@V?$allocator@D@2@@std@@V12@@1@XZ 0000000000404600 f i DocType.obj
 0001:00003610       ??D?$_Tree_iterator@V?$_Tree_val@U?$_Tree_simple_types@U?$pair@$$CBV?$basic_string@DU?$char_traits@D@std@@V?$allocator@D@2@@std@@PEAVFeature@AwayJS@@@std@@@std@@@std@@@std@@QEBAAEAU?$pair@$$CBV?$basic_string@DU?$char_traits@D@std@@V?$allocator@D@2@@std@@PEAVFeature@AwayJS@@@1@XZ 0000000000404610 f i DocType.obj
 0001:00003620       ??D?$_Tree_iterator@V?$_Tree_val@U?$_Tree_simple_types@U?$pair@$$CBV?$basic_string@DU?$char_traits@D@std@@V?$allocator@D@2@@std@@PEAVProperty@AwayJS@@@std@@@std@@@std@@@std@@QEBAAEAU?$pair@$$CBV?$basic_string@DU?$char_traits@D@std@@V?$allocator@D@2@@std@@PEAVProperty@AwayJS@@@1@XZ 0000000000404620 f i DocType.obj
 0001:00003630       ??D?$_Tree_iterator@V?$_Tree_val@U?$_Tree_simple_types@U?$pair@$$CBV?$basic_string@DU?$char_traits@D@std@@V?$allocator@D@2@@std@@PEAVValue@AwayJS@@@std@@@std@@@std@@@std@@QEBAAEAU?$pair@$$CBV?$basic_string@DU?$char_traits@D@std@@V?$allocator@D@2@@std@@PEAVValue@AwayJS@@@1@XZ 0000000000404630 f i DocType.obj
 0001:00003640       ??E?$_Tree_const_iterator@V?$_Tree_val@U?$_Tree_simple_types@U?$pair@$$CBV?$basic_string@DU?$char_traits@D@std@@V?$allocator@D@2@@std@@PEAVFeature@AwayJS@@@std@@@std@@@std@@@std@@QEAA?AV01@H@Z 0000000000404640 f i DocType.obj
 0001:000036a0       ??E?$_Tree_const_iterator@V?$_Tree_val@U?$_Tree_simple_types@U?$pair@$$CBV?$basic_string@DU?$char_traits@D@std@@V?$allocator@D@2@@std@@PEAVFeature@AwayJS@@@std@@@std@@@std@@@std@@QEAAAEAV01@XZ 00000000004046a0 f i DocType.obj
 0001:00003700       ??E?$_Tree_const_iterator@V?$_Tree_val@U?$_Tree_simple_types@U?$pair@$$CBV?$basic_string@DU?$char_traits@D@std@@V?$allocator@D@2@@std@@PEAVProperty@AwayJS@@@std@@@std@@@std@@@std@@QEAA?AV01@H@Z 0000000000404700 f i DocType.obj
 0001:00003760       ??E?$_Tree_const_iterator@V?$_Tree_val@U?$_Tree_simple_types@U?$pair@$$CBV?$basic_string@DU?$char_traits@D@std@@V?$allocator@D@2@@std@@PEAVProperty@AwayJS@@@std@@@std@@@std@@@std@@QEAAAEAV01@XZ 0000000000404760 f i DocType.obj
 0001:000037c0       ??E?$_Tree_const_iterator@V?$_Tree_val@U?$_Tree_simple_types@U?$pair@$$CBV?$basic_string@DU?$char_traits@D@std@@V?$allocator@D@2@@std@@PEAVValue@AwayJS@@@std@@@std@@@std@@@std@@QEAA?AV01@H@Z 00000000004047c0 f i DocType.obj
 0001:00003820       ??E?$_Tree_const_iterator@V?$_Tree_val@U?$_Tree_simple_types@U?$pair@$$CBV?$basic_string@DU?$char_traits@D@std@@V?$allocator@D@2@@std@@PEAVValue@AwayJS@@@std@@@std@@@std@@@std@@QEAAAEAV01@XZ 0000000000404820 f i DocType.obj
 0001:00003880       ??E?$_Tree_iterator@V?$_Tree_val@U?$_Tree_simple_types@U?$pair@$$CBV?$basic_string@DU?$char_traits@D@std@@V?$allocator@D@2@@std@@PEAVProperty@AwayJS@@@std@@@std@@@std@@@std@@QEAA?AV01@H@Z 0000000000404880 f i DocType.obj
 0001:000038e0       ??E?$_Tree_iterator@V?$_Tree_val@U?$_Tree_simple_types@U?$pair@$$CBV?$basic_string@DU?$char_traits@D@std@@V?$allocator@D@2@@std@@PEAVProperty@AwayJS@@@std@@@std@@@std@@@std@@QEAAAEAV01@XZ 00000000004048e0 f i DocType.obj
 0001:00003940       ??E?$_Tree_iterator@V?$_Tree_val@U?$_Tree_simple_types@U?$pair@$$CBV?$basic_string@DU?$char_traits@D@std@@V?$allocator@D@2@@std@@PEAVValue@AwayJS@@@std@@@std@@@std@@@std@@QEAA?AV01@H@Z 0000000000404940 f i DocType.obj
 0001:000039a0       ??E?$_Tree_iterator@V?$_Tree_val@U?$_Tree_simple_types@U?$pair@$$CBV?$basic_string@DU?$char_traits@D@std@@V?$allocator@D@2@@std@@PEAVValue@AwayJS@@@std@@@std@@@std@@@std@@QEAAAEAV01@XZ 00000000004049a0 f i DocType.obj
 0001:00003a00       ??E?$_Tree_unchecked_const_iterator@V?$_Tree_val@U?$_Tree_simple_types@U?$pair@$$CBV?$basic_string@DU?$char_traits@D@std@@V?$allocator@D@2@@std@@PEAVFeature@AwayJS@@@std@@@std@@@std@@U_Iterator_base0@2@@std@@QEAAAEAV01@XZ 0000000000404a00 f i DocType.obj
 0001:00003a60       ??E?$_Tree_unchecked_const_iterator@V?$_Tree_val@U?$_Tree_simple_types@U?$pair@$$CBV?$basic_string@DU?$char_traits@D@std@@V?$allocator@D@2@@std@@PEAVProperty@AwayJS@@@std@@@std@@@std@@U_Iterator_base0@2@@std@@QEAAAEAV01@XZ 0000000000404a60 f i DocType.obj
 0001:00003ac0       ??E?$_Tree_unchecked_const_iterator@V?$_Tree_val@U?$_Tree_simple_types@U?$pair@$$CBV?$basic_string@DU?$char_traits@D@std@@V?$allocator@D@2@@std@@PEAVValue@AwayJS@@@std@@@std@@@std@@U_Iterator_base0@2@@std@@QEAAAEAV01@XZ 0000000000404ac0 f i DocType.obj
 0001:00003b20       ??F?$_Tree_const_iterator@V?$_Tree_val@U?$_Tree_simple_types@U?$pair@$$CBV?$basic_string@DU?$char_traits@D@std@@V?$allocator@D@2@@std@@PEAVFeature@AwayJS@@@std@@@std@@@std@@@std@@QEAAAEAV01@XZ 0000000000404b20 f i DocType.obj
 0001:00003b40       ??F?$_Tree_const_iterator@V?$_Tree_val@U?$_Tree_simple_types@U?$pair@$$CBV?$basic_string@DU?$char_traits@D@std@@V?$allocator@D@2@@std@@PEAVProperty@AwayJS@@@std@@@std@@@std@@@std@@QEAAAEAV01@XZ 0000000000404b40 f i DocType.obj
 0001:00003b60       ??F?$_Tree_const_iterator@V?$_Tree_val@U?$_Tree_simple_types@U?$pair@$$CBV?$basic_string@DU?$char_traits@D@std@@V?$allocator@D@2@@std@@PEAVValue@AwayJS@@@std@@@std@@@std@@@std@@QEAAAEAV01@XZ 0000000000404b60 f i DocType.obj
 0001:00003b80       ??F?$_Tree_iterator@V?$_Tree_val@U?$_Tree_simple_types@U?$pair@$$CBV?$basic_string@DU?$char_traits@D@std@@V?$allocator@D@2@@std@@PEAVFeature@AwayJS@@@std@@@std@@@std@@@std@@QEAAAEAV01@XZ 0000000000404b80 f i DocType.obj
 0001:00003ba0       ??F?$_Tree_iterator@V?$_Tree_val@U?$_Tree_simple_types@U?$pair@$$CBV?$basic_string@DU?$char_traits@D@std@@V?$allocator@D@2@@std@@PEAVProperty@AwayJS@@@std@@@std@@@std@@@std@@QEAAAEAV01@XZ 0000000000404ba0 f i DocType.obj
 0001:00003bc0       ??F?$_Tree_iterator@V?$_Tree_val@U?$_Tree_simple_types@U?$pair@$$CBV?$basic_string@DU?$char_traits@D@std@@V?$allocator@D@2@@std@@PEAVValue@AwayJS@@@std@@@std@@@std@@@std@@QEAAAEAV01@XZ 0000000000404bc0 f i DocType.obj
 0001:00003be0       ??F?$_Tree_unchecked_const_iterator@V?$_Tree_val@U?$_Tree_simple_types@U?$pair@$$CBV?$basic_string@DU?$char_traits@D@std@@V?$allocator@D@2@@std@@PEAVFeature@AwayJS@@@std@@@std@@@std@@U_Iterator_base0@2@@std@@QEAAAEAV01@XZ 0000000000404be0 f i DocType.obj
 0001:00003c60       ??F?$_Tree_unchecked_const_iterator@V?$_Tree_val@U?$_Tree_simple_types@U?$pair@$$CBV?$basic_string@DU?$char_traits@D@std@@V?$allocator@D@2@@std@@PEAVProperty@AwayJS@@@std@@@std@@@std@@U_Iterator_base0@2@@std@@QEAAAEAV01@XZ 0000000000404c60 f i DocType.obj
 0001:00003ce0       ??F?$_Tree_unchecked_const_iterator@V?$_Tree_val@U?$_Tree_simple_types@U?$pair@$$CBV?$basic_string@DU?$char_traits@D@std@@V?$allocator@D@2@@std@@PEAVValue@AwayJS@@@std@@@std@@@std@@U_Iterator_base0@2@@std@@QEAAAEAV01@XZ 0000000000404ce0 f i DocType.obj
 0001:00003d60       ??R?$less@V?$basic_string@DU?$char_traits@D@std@@V?$allocator@D@2@@std@@@std@@QEBA_NAEBV?$basic_string@DU?$char_traits@D@std@@V?$allocator@D@2@@1@0@Z 0000000000404d60 f i DocType.obj
 0001:00003d80       ??Y?$basic_string@DU?$char_traits@D@std@@V?$allocator@D@2@@std@@QEAAAEAV01@PEBD@Z 0000000000404d80 f i DocType.obj
 0001:00003da0       ??_D?$basic_ifstream@DU?$char_traits@D@std@@@std@@QEAAXXZ 0000000000404da0 f i DocType.obj
 0001:00003e1c       ??_E?$basic_ifstream@DU?$char_traits@D@std@@@std@@$4PPPPPPPM@A@EAAPEAXI@Z 0000000000404e1c f i DocType.obj
 0001:00003e30       ??_G?$basic_filebuf@DU?$char_traits@D@std@@@std@@UEAAPEAXI@Z 0000000000404e30 f i DocType.obj
 0001:00003e30       ??_E?$basic_filebuf@DU?$char_traits@D@std@@@std@@UEAAPEAXI@Z 0000000000404e30 f i DocType.obj
 0001:00003e60       ??_G?$basic_ifstream@DU?$char_traits@D@std@@@std@@UEAAPEAXI@Z 0000000000404e60 f i DocType.obj
 0001:00003e60       ??_E?$basic_ifstream@DU?$char_traits@D@std@@@std@@UEAAPEAXI@Z 0000000000404e60 f i DocType.obj
 0001:00003ea0       ??_G?$pair@$$CBV?$basic_string@DU?$char_traits@D@std@@V?$allocator@D@2@@std@@PEAVFeature@AwayJS@@@std@@QEAAPEAXI@Z 0000000000404ea0 f i DocType.obj
 0001:00003ef0       ??_G?$pair@$$CBV?$basic_string@DU?$char_traits@D@std@@V?$allocator@D@2@@std@@PEAVProperty@AwayJS@@@std@@QEAAPEAXI@Z 0000000000404ef0 f i DocType.obj
 0001:00003f40       ??_G?$pair@$$CBV?$basic_string@DU?$char_traits@D@std@@V?$allocator@D@2@@std@@PEAVValue@AwayJS@@@std@@QEAAPEAXI@Z 0000000000404f40 f i DocType.obj
 0001:00003f90       ??_GProperty@AwayJS@@QEAAPEAXI@Z 0000000000404f90 f i DocType.obj
 0001:00003fc0       ??_GValue@AwayJS@@QEAAPEAXI@Z 0000000000404fc0 f i DocType.obj
 0001:00003fe0       ??_G_Generic_error_category@std@@UEAAPEAXI@Z 0000000000404fe0 f i DocType.obj
 0001:00003fe0       ??_E_Generic_error_category@std@@UEAAPEAXI@Z 0000000000404fe0 f i DocType.obj
 0001:00004010       ??_G_Iostream_error_category@std@@UEAAPEAXI@Z 0000000000405010 f i DocType.obj
 0001:00004010       ??_E_Iostream_error_category@std@@UEAAPEAXI@Z 0000000000405010 f i DocType.obj
 0001:00004040       ??_G_System_error_category@std@@UEAAPEAXI@Z 0000000000405040 f i DocType.obj
 0001:00004040       ??_E_System_error_category@std@@UEAAPEAXI@Z 0000000000405040 f i DocType.obj
 0001:00004070       ??_Eerror_category@std@@UEAAPEAXI@Z 0000000000405070 f i DocType.obj
 0001:00004070       ??_Gerror_category@std@@UEAAPEAXI@Z 0000000000405070 f i DocType.obj
 0001:000040a0       ?AddProperty@Feature@AwayJS@@QEAA_NAEBV?$basic_string@DU?$char_traits@D@std@@V?$allocator@D@2@@std@@PEAVProperty@2@@Z 00000000004050a0 f   DocType.obj
 0001:00004160       ?AddValue@Property@AwayJS@@QEAA_NAEBV?$basic_string@DU?$char_traits@D@std@@V?$allocator@D@2@@std@@PEAVValue@2@@Z 0000000000405160 f   DocType.obj
 0001:00004220       ?EndElement@FeatureMatrix@AwayJS@@AEAAIV?$basic_string@DU?$char_traits@D@std@@V?$allocator@D@2@@std@@@Z 0000000000405220 f   DocType.obj
 0001:000043b0       ?FindFeature@FeatureMatrix@AwayJS@@AEAAPEAVFeature@2@AEBV?$basic_string@DU?$char_traits@D@std@@V?$allocator@D@2@@std@@@Z 00000000004053b0 f   DocType.obj
 0001:00004430       ?FindProperty@Feature@AwayJS@@QEAAPEAVProperty@2@AEBV?$basic_string@DU?$char_traits@D@std@@V?$allocator@D@2@@std@@@Z 0000000000405430 f   DocType.obj
 0001:000044b0       ?FindValue@Property@AwayJS@@QEAAPEAVValue@2@AEBV?$basic_string@DU?$char_traits@D@std@@V?$allocator@D@2@@std@@@Z 00000000004054b0 f   DocType.obj
 0001:00004530       ?GetDefault@Property@AwayJS@@QEAA?AV?$basic_string@DU?$char_traits@D@std@@V?$allocator@D@2@@std@@XZ 0000000000405530 f   DocType.obj
 0001:00004570       ?GetDefaultValue@FeatureMatrix@AwayJS@@UEAAIPEBG0AEAUVARIANT@FCM@@@Z 0000000000405570 f   DocType.obj
 0001:00004580       ?GetFeatureMatrix@CDocType@AwayJS@@UEAAIAEAPEAVIFeatureMatrix@DocType@@@Z 0000000000405580 f   DocType.obj
 0001:00004600       ?GetIID@IFCMUnknown@FCM@@SA?AUFCMGUID@2@XZ 0000000000405600 f i DocType.obj
 0001:00004630       ?GetIID@IOutputConsoleService@Service@FlashApplication@@SA?AUFCMGUID@FCM@@XZ 0000000000405630 f i DocType.obj
 0001:00004660       ?Init@FeatureMatrix@AwayJS@@QEAAXPEAVIFCMCallback@FCM@@@Z 0000000000405660 f   DocType.obj
 0001:00004a90       ?IsSupported@Feature@AwayJS@@QEAA_NXZ 0000000000405a90 f   DocType.obj
 0001:00004aa0       ?IsSupported@FeatureMatrix@AwayJS@@UEAAIPEBG00AEAE@Z 0000000000405aa0 f   DocType.obj
 0001:00004cf0       ?IsSupported@FeatureMatrix@AwayJS@@UEAAIPEBG0AEAE@Z 0000000000405cf0 f   DocType.obj
 0001:00004f00       ?IsSupported@FeatureMatrix@AwayJS@@UEAAIPEBGAEAE@Z 0000000000405f00 f   DocType.obj
 0001:00005030       ?IsSupported@Property@AwayJS@@QEAA_NXZ 0000000000406030 f   DocType.obj
 0001:00005040       ?IsSupported@Value@AwayJS@@QEAA_NXZ 0000000000406040 f   DocType.obj
 0001:00005050       ?RegisterDocType@AwayJS@@YAIPEAVIFCMDictionary@FCM@@@Z 0000000000406050 f   DocType.obj
 0001:00005280       ?Reset@?$AutoPtr@VIFCMCalloc@FCM@@@FCM@@QEAAXXZ 0000000000406280 f i DocType.obj
 0001:000052b0       ?Reset@?$AutoPtr@VIFCMDictionary@FCM@@@FCM@@QEAAXXZ 00000000004062b0 f i DocType.obj
 0001:000052e0       ?Reset@?$AutoPtr@VIFCMUnknown@FCM@@@FCM@@QEAAXXZ 00000000004062e0 f i DocType.obj
 0001:00005310       ?Reset@?$AutoPtr@VIOutputConsoleService@Service@FlashApplication@@@FCM@@QEAAXXZ 0000000000406310 f i DocType.obj
 0001:00005340       ?StartElement@FeatureMatrix@AwayJS@@AEAAIV?$basic_string@DU?$char_traits@D@std@@V?$allocator@D@2@@std@@AEBV?$map@V?$basic_string@DU?$char_traits@D@std@@V?$allocator@D@2@@std@@V12@U?$less@V?$basic_string@DU?$char_traits@D@std@@V?$allocator@D@2@@std@@@2@V?$allocator@U?$pair@$$CBV?$basic_string@DU?$char_traits@D@std@@V?$allocator@D@2@@std@@V12@@std@@@2@@4@@Z 0000000000406340 f   DocType.obj
 0001:00005570       ?UpdateFeature@FeatureMatrix@AwayJS@@AEAAPEAVFeature@2@AEBV?$map@V?$basic_string@DU?$char_traits@D@std@@V?$allocator@D@2@@std@@V12@U?$less@V?$basic_string@DU?$char_traits@D@std@@V?$allocator@D@2@@std@@@2@V?$allocator@U?$pair@$$CBV?$basic_string@DU?$char_traits@D@std@@V?$allocator@D@2@@std@@V12@@std@@@2@@std@@@Z 0000000000406570 f   DocType.obj
 0001:000058e0       ?UpdateProperty@FeatureMatrix@AwayJS@@AEAAPEAVProperty@2@PEAVFeature@2@AEBV?$map@V?$basic_string@DU?$char_traits@D@std@@V?$allocator@D@2@@std@@V12@U?$less@V?$basic_string@DU?$char_traits@D@std@@V?$allocator@D@2@@std@@@2@V?$allocator@U?$pair@$$CBV?$basic_string@DU?$char_traits@D@std@@V?$allocator@D@2@@std@@V12@@std@@@2@@std@@@Z 00000000004068e0 f   DocType.obj
 0001:00005d00       ?UpdateValue@FeatureMatrix@AwayJS@@AEAAPEAVValue@2@PEAVProperty@2@AEBV?$map@V?$basic_string@DU?$char_traits@D@std@@V?$allocator@D@2@@std@@V12@U?$less@V?$basic_string@DU?$char_traits@D@std@@V?$allocator@D@2@@std@@@2@V?$allocator@U?$pair@$$CBV?$basic_string@DU?$char_traits@D@std@@V?$allocator@D@2@@std@@V12@@std@@@2@@std@@@Z 0000000000406d00 f   DocType.obj
 0001:00006010       ?_Add_vtordisp1@?$basic_istream@DU?$char_traits@D@std@@@std@@$4PPPPPPPM@JI@EAAXXZ 0000000000407010 f i DocType.obj
 0001:00006030       ?_Adopt@_Iterator_base0@std@@QEAAXPEBX@Z 0000000000407030 f i DocType.obj
 0001:00006040       ?_Assign_rv@?$basic_string@DU?$char_traits@D@std@@V?$allocator@D@2@@std@@QEAAX$$QEAV12@@Z 0000000000407040 f i DocType.obj
 0001:000060b0       ?_Buyheadnode@?$_Tree_alloc@$0A@U?$_Tree_base_types@U?$pair@$$CBV?$basic_string@DU?$char_traits@D@std@@V?$allocator@D@2@@std@@PEAVFeature@AwayJS@@@std@@V?$allocator@U?$pair@$$CBV?$basic_string@DU?$char_traits@D@std@@V?$allocator@D@2@@std@@PEAVFeature@AwayJS@@@std@@@2@@std@@@std@@QEAAPEAU?$_Tree_node@U?$pair@$$CBV?$basic_string@DU?$char_traits@D@std@@V?$allocator@D@2@@std@@PEAVFeature@AwayJS@@@std@@PEAX@2@XZ 00000000004070b0 f i DocType.obj
 0001:00006100       ?_Buyheadnode@?$_Tree_alloc@$0A@U?$_Tree_base_types@U?$pair@$$CBV?$basic_string@DU?$char_traits@D@std@@V?$allocator@D@2@@std@@PEAVProperty@AwayJS@@@std@@V?$allocator@U?$pair@$$CBV?$basic_string@DU?$char_traits@D@std@@V?$allocator@D@2@@std@@PEAVProperty@AwayJS@@@std@@@2@@std@@@std@@QEAAPEAU?$_Tree_node@U?$pair@$$CBV?$basic_string@DU?$char_traits@D@std@@V?$allocator@D@2@@std@@PEAVProperty@AwayJS@@@std@@PEAX@2@XZ 0000000000407100 f i DocType.obj
 0001:00006150       ?_Buyheadnode@?$_Tree_alloc@$0A@U?$_Tree_base_types@U?$pair@$$CBV?$basic_string@DU?$char_traits@D@std@@V?$allocator@D@2@@std@@PEAVValue@AwayJS@@@std@@V?$allocator@U?$pair@$$CBV?$basic_string@DU?$char_traits@D@std@@V?$allocator@D@2@@std@@PEAVValue@AwayJS@@@std@@@2@@std@@@std@@QEAAPEAU?$_Tree_node@U?$pair@$$CBV?$basic_string@DU?$char_traits@D@std@@V?$allocator@D@2@@std@@PEAVValue@AwayJS@@@std@@PEAX@2@XZ 0000000000407150 f i DocType.obj
 0001:000061a0       ?_Buynode0@?$_Tree_buy@U?$pair@$$CBV?$basic_string@DU?$char_traits@D@std@@V?$allocator@D@2@@std@@PEAVFeature@AwayJS@@@std@@V?$allocator@U?$pair@$$CBV?$basic_string@DU?$char_traits@D@std@@V?$allocator@D@2@@std@@PEAVFeature@AwayJS@@@std@@@2@@std@@QEAAPEAU?$_Tree_node@U?$pair@$$CBV?$basic_string@DU?$char_traits@D@std@@V?$allocator@D@2@@std@@PEAVFeature@AwayJS@@@std@@PEAX@2@XZ 00000000004071a0 f i DocType.obj
 0001:00006200       ?_Buynode0@?$_Tree_buy@U?$pair@$$CBV?$basic_string@DU?$char_traits@D@std@@V?$allocator@D@2@@std@@PEAVProperty@AwayJS@@@std@@V?$allocator@U?$pair@$$CBV?$basic_string@DU?$char_traits@D@std@@V?$allocator@D@2@@std@@PEAVProperty@AwayJS@@@std@@@2@@std@@QEAAPEAU?$_Tree_node@U?$pair@$$CBV?$basic_string@DU?$char_traits@D@std@@V?$allocator@D@2@@std@@PEAVProperty@AwayJS@@@std@@PEAX@2@XZ 0000000000407200 f i DocType.obj
 0001:00006260       ?_Buynode0@?$_Tree_buy@U?$pair@$$CBV?$basic_string@DU?$char_traits@D@std@@V?$allocator@D@2@@std@@PEAVValue@AwayJS@@@std@@V?$allocator@U?$pair@$$CBV?$basic_string@DU?$char_traits@D@std@@V?$allocator@D@2@@std@@PEAVValue@AwayJS@@@std@@@2@@std@@QEAAPEAU?$_Tree_node@U?$pair@$$CBV?$basic_string@DU?$char_traits@D@std@@V?$allocator@D@2@@std@@PEAVValue@AwayJS@@@std@@PEAX@2@XZ 0000000000407260 f i DocType.obj
 0001:000062c0       ?_Change_alloc@?$_String_alloc@$0A@U?$_String_base_types@DV?$allocator@D@std@@@std@@@std@@QEAAXAEBU?$_Wrap_alloc@V?$allocator@D@std@@@2@@Z 00000000004072c0 f i DocType.obj
 0001:000062d0       ?_Chassign@?$basic_string@DU?$char_traits@D@std@@V?$allocator@D@2@@std@@QEAAX_K0D@Z 00000000004072d0 f i DocType.obj
 0001:00006300       ?_Color@?$_Tree_val@U?$_Tree_simple_types@U?$pair@$$CBV?$basic_string@DU?$char_traits@D@std@@V?$allocator@D@2@@std@@PEAVFeature@AwayJS@@@std@@@std@@@std@@SAAEADPEAU?$_Tree_node@U?$pair@$$CBV?$basic_string@DU?$char_traits@D@std@@V?$allocator@D@2@@std@@PEAVFeature@AwayJS@@@std@@PEAX@2@@Z 0000000000407300 f i DocType.obj
 0001:00006310       ?_Color@?$_Tree_val@U?$_Tree_simple_types@U?$pair@$$CBV?$basic_string@DU?$char_traits@D@std@@V?$allocator@D@2@@std@@PEAVProperty@AwayJS@@@std@@@std@@@std@@SAAEADPEAU?$_Tree_node@U?$pair@$$CBV?$basic_string@DU?$char_traits@D@std@@V?$allocator@D@2@@std@@PEAVProperty@AwayJS@@@std@@PEAX@2@@Z 0000000000407310 f i DocType.obj
 0001:00006320       ?_Color@?$_Tree_val@U?$_Tree_simple_types@U?$pair@$$CBV?$basic_string@DU?$char_traits@D@std@@V?$allocator@D@2@@std@@PEAVValue@AwayJS@@@std@@@std@@@std@@SAAEADPEAU?$_Tree_node@U?$pair@$$CBV?$basic_string@DU?$char_traits@D@std@@V?$allocator@D@2@@std@@PEAVValue@AwayJS@@@std@@PEAX@2@@Z 0000000000407320 f i DocType.obj
 0001:00006330       ?_Copy@?$basic_string@DU?$char_traits@D@std@@V?$allocator@D@2@@std@@QEAAX_K0@Z 0000000000407330 f i DocType.obj
 0001:00006440       ?_Destroy_if_not_nil@?$_Tree@V?$_Tmap_traits@V?$basic_string@DU?$char_traits@D@std@@V?$allocator@D@2@@std@@PEAVFeature@AwayJS@@U?$less@V?$basic_string@DU?$char_traits@D@std@@V?$allocator@D@2@@std@@@2@V?$allocator@U?$pair@$$CBV?$basic_string@DU?$char_traits@D@std@@V?$allocator@D@2@@std@@PEAVFeature@AwayJS@@@std@@@2@$0A@@std@@@std@@IEAAXPEAU?$_Tree_node@U?$pair@$$CBV?$basic_string@DU?$char_traits@D@std@@V?$allocator@D@2@@std@@PEAVFeature@AwayJS@@@std@@PEAX@2@@Z 0000000000407440 f i DocType.obj
 0001:00006480       ?_Destroy_if_not_nil@?$_Tree@V?$_Tmap_traits@V?$basic_string@DU?$char_traits@D@std@@V?$allocator@D@2@@std@@PEAVProperty@AwayJS@@U?$less@V?$basic_string@DU?$char_traits@D@std@@V?$allocator@D@2@@std@@@2@V?$allocator@U?$pair@$$CBV?$basic_string@DU?$char_traits@D@std@@V?$allocator@D@2@@std@@PEAVProperty@AwayJS@@@std@@@2@$0A@@std@@@std@@IEAAXPEAU?$_Tree_node@U?$pair@$$CBV?$basic_string@DU?$char_traits@D@std@@V?$allocator@D@2@@std@@PEAVProperty@AwayJS@@@std@@PEAX@2@@Z 0000000000407480 f i DocType.obj
 0001:000064c0       ?_Destroy_if_not_nil@?$_Tree@V?$_Tmap_traits@V?$basic_string@DU?$char_traits@D@std@@V?$allocator@D@2@@std@@PEAVValue@AwayJS@@U?$less@V?$basic_string@DU?$char_traits@D@std@@V?$allocator@D@2@@std@@@2@V?$allocator@U?$pair@$$CBV?$basic_string@DU?$char_traits@D@std@@V?$allocator@D@2@@std@@PEAVValue@AwayJS@@@std@@@2@$0A@@std@@@std@@IEAAXPEAU?$_Tree_node@U?$pair@$$CBV?$basic_string@DU?$char_traits@D@std@@V?$allocator@D@2@@std@@PEAVValue@AwayJS@@@std@@PEAX@2@@Z 00000000004074c0 f i DocType.obj
 0001:00006500       ?_Endwrite@?$basic_filebuf@DU?$char_traits@D@std@@@std@@IEAA_NXZ 0000000000407500 f i DocType.obj
 0001:00006730       ?_Eos@?$basic_string@DU?$char_traits@D@std@@V?$allocator@D@2@@std@@QEAAX_K@Z 0000000000407730 f i DocType.obj
 0001:00006750       ?_Erase@?$_Tree@V?$_Tmap_traits@V?$basic_string@DU?$char_traits@D@std@@V?$allocator@D@2@@std@@PEAVFeature@AwayJS@@U?$less@V?$basic_string@DU?$char_traits@D@std@@V?$allocator@D@2@@std@@@2@V?$allocator@U?$pair@$$CBV?$basic_string@DU?$char_traits@D@std@@V?$allocator@D@2@@std@@PEAVFeature@AwayJS@@@std@@@2@$0A@@std@@@std@@IEAAXPEAU?$_Tree_node@U?$pair@$$CBV?$basic_string@DU?$char_traits@D@std@@V?$allocator@D@2@@std@@PEAVFeature@AwayJS@@@std@@PEAX@2@@Z 0000000000407750 f i DocType.obj
 0001:000067e0       ?_Erase@?$_Tree@V?$_Tmap_traits@V?$basic_string@DU?$char_traits@D@std@@V?$allocator@D@2@@std@@PEAVProperty@AwayJS@@U?$less@V?$basic_string@DU?$char_traits@D@std@@V?$allocator@D@2@@std@@@2@V?$allocator@U?$pair@$$CBV?$basic_string@DU?$char_traits@D@std@@V?$allocator@D@2@@std@@PEAVProperty@AwayJS@@@std@@@2@$0A@@std@@@std@@IEAAXPEAU?$_Tree_node@U?$pair@$$CBV?$basic_string@DU?$char_traits@D@std@@V?$allocator@D@2@@std@@PEAVProperty@AwayJS@@@std@@PEAX@2@@Z 00000000004077e0 f i DocType.obj
 0001:00006870       ?_Erase@?$_Tree@V?$_Tmap_traits@V?$basic_string@DU?$char_traits@D@std@@V?$allocator@D@2@@std@@PEAVValue@AwayJS@@U?$less@V?$basic_string@DU?$char_traits@D@std@@V?$allocator@D@2@@std@@@2@V?$allocator@U?$pair@$$CBV?$basic_string@DU?$char_traits@D@std@@V?$allocator@D@2@@std@@PEAVValue@AwayJS@@@std@@@2@$0A@@std@@@std@@IEAAXPEAU?$_Tree_node@U?$pair@$$CBV?$basic_string@DU?$char_traits@D@std@@V?$allocator@D@2@@std@@PEAVValue@AwayJS@@@std@@PEAX@2@@Z 0000000000407870 f i DocType.obj
 0001:00006900       ?_Freeheadnode@?$_Tree_alloc@$0A@U?$_Tree_base_types@U?$pair@$$CBV?$basic_string@DU?$char_traits@D@std@@V?$allocator@D@2@@std@@PEAVFeature@AwayJS@@@std@@V?$allocator@U?$pair@$$CBV?$basic_string@DU?$char_traits@D@std@@V?$allocator@D@2@@std@@PEAVFeature@AwayJS@@@std@@@2@@std@@@std@@QEAAXPEAU?$_Tree_node@U?$pair@$$CBV?$basic_string@DU?$char_traits@D@std@@V?$allocator@D@2@@std@@PEAVFeature@AwayJS@@@std@@PEAX@2@@Z 0000000000407900 f i DocType.obj
 0001:00006910       ?_Freeheadnode@?$_Tree_alloc@$0A@U?$_Tree_base_types@U?$pair@$$CBV?$basic_string@DU?$char_traits@D@std@@V?$allocator@D@2@@std@@PEAVProperty@AwayJS@@@std@@V?$allocator@U?$pair@$$CBV?$basic_string@DU?$char_traits@D@std@@V?$allocator@D@2@@std@@PEAVProperty@AwayJS@@@std@@@2@@std@@@std@@QEAAXPEAU?$_Tree_node@U?$pair@$$CBV?$basic_string@DU?$char_traits@D@std@@V?$allocator@D@2@@std@@PEAVProperty@AwayJS@@@std@@PEAX@2@@Z 0000000000407910 f i DocType.obj
 0001:00006920       ?_Freeheadnode@?$_Tree_alloc@$0A@U?$_Tree_base_types@U?$pair@$$CBV?$basic_string@DU?$char_traits@D@std@@V?$allocator@D@2@@std@@PEAVValue@AwayJS@@@std@@V?$allocator@U?$pair@$$CBV?$basic_string@DU?$char_traits@D@std@@V?$allocator@D@2@@std@@PEAVValue@AwayJS@@@std@@@2@@std@@@std@@QEAAXPEAU?$_Tree_node@U?$pair@$$CBV?$basic_string@DU?$char_traits@D@std@@V?$allocator@D@2@@std@@PEAVValue@AwayJS@@@std@@PEAX@2@@Z 0000000000407920 f i DocType.obj
 0001:00006930       ?_Freenode0@?$_Tree_buy@U?$pair@$$CBV?$basic_string@DU?$char_traits@D@std@@V?$allocator@D@2@@std@@PEAVFeature@AwayJS@@@std@@V?$allocator@U?$pair@$$CBV?$basic_string@DU?$char_traits@D@std@@V?$allocator@D@2@@std@@PEAVFeature@AwayJS@@@std@@@2@@std@@QEAAXPEAU?$_Tree_node@U?$pair@$$CBV?$basic_string@DU?$char_traits@D@std@@V?$allocator@D@2@@std@@PEAVFeature@AwayJS@@@std@@PEAX@2@@Z 0000000000407930 f i DocType.obj
 0001:00006940       ?_Freenode0@?$_Tree_buy@U?$pair@$$CBV?$basic_string@DU?$char_traits@D@std@@V?$allocator@D@2@@std@@PEAVProperty@AwayJS@@@std@@V?$allocator@U?$pair@$$CBV?$basic_string@DU?$char_traits@D@std@@V?$allocator@D@2@@std@@PEAVProperty@AwayJS@@@std@@@2@@std@@QEAAXPEAU?$_Tree_node@U?$pair@$$CBV?$basic_string@DU?$char_traits@D@std@@V?$allocator@D@2@@std@@PEAVProperty@AwayJS@@@std@@PEAX@2@@Z 0000000000407940 f i DocType.obj
 0001:00006950       ?_Freenode0@?$_Tree_buy@U?$pair@$$CBV?$basic_string@DU?$char_traits@D@std@@V?$allocator@D@2@@std@@PEAVValue@AwayJS@@@std@@V?$allocator@U?$pair@$$CBV?$basic_string@DU?$char_traits@D@std@@V?$allocator@D@2@@std@@PEAVValue@AwayJS@@@std@@@2@@std@@QEAAXPEAU?$_Tree_node@U?$pair@$$CBV?$basic_string@DU?$char_traits@D@std@@V?$allocator@D@2@@std@@PEAVValue@AwayJS@@@std@@PEAX@2@@Z 0000000000407950 f i DocType.obj
 0001:00006960       ?_Getal@?$_String_alloc@$0A@U?$_String_base_types@DV?$allocator@D@std@@@std@@@std@@QEBA?AU?$_Wrap_alloc@V?$allocator@D@std@@@2@XZ 0000000000407960 f i DocType.obj
 0001:00006970       ?_Getal@?$_Tree_alloc@$0A@U?$_Tree_base_types@U?$pair@$$CBV?$basic_string@DU?$char_traits@D@std@@V?$allocator@D@2@@std@@PEAVFeature@AwayJS@@@std@@V?$allocator@U?$pair@$$CBV?$basic_string@DU?$char_traits@D@std@@V?$allocator@D@2@@std@@PEAVFeature@AwayJS@@@std@@@2@@std@@@std@@QEBA?AU?$_Wrap_alloc@V?$allocator@U?$_Tree_node@U?$pair@$$CBV?$basic_string@DU?$char_traits@D@std@@V?$allocator@D@2@@std@@PEAVFeature@AwayJS@@@std@@PEAX@std@@@std@@@2@XZ 0000000000407970 f i DocType.obj
 0001:00006980       ?_Getal@?$_Tree_alloc@$0A@U?$_Tree_base_types@U?$pair@$$CBV?$basic_string@DU?$char_traits@D@std@@V?$allocator@D@2@@std@@PEAVProperty@AwayJS@@@std@@V?$allocator@U?$pair@$$CBV?$basic_string@DU?$char_traits@D@std@@V?$allocator@D@2@@std@@PEAVProperty@AwayJS@@@std@@@2@@std@@@std@@QEBA?AU?$_Wrap_alloc@V?$allocator@U?$_Tree_node@U?$pair@$$CBV?$basic_string@DU?$char_traits@D@std@@V?$allocator@D@2@@std@@PEAVProperty@AwayJS@@@std@@PEAX@std@@@std@@@2@XZ 0000000000407980 f i DocType.obj
 0001:00006990       ?_Getal@?$_Tree_alloc@$0A@U?$_Tree_base_types@U?$pair@$$CBV?$basic_string@DU?$char_traits@D@std@@V?$allocator@D@2@@std@@PEAVValue@AwayJS@@@std@@V?$allocator@U?$pair@$$CBV?$basic_string@DU?$char_traits@D@std@@V?$allocator@D@2@@std@@PEAVValue@AwayJS@@@std@@@2@@std@@@std@@QEBA?AU?$_Wrap_alloc@V?$allocator@U?$_Tree_node@U?$pair@$$CBV?$basic_string@DU?$char_traits@D@std@@V?$allocator@D@2@@std@@PEAVValue@AwayJS@@@std@@PEAX@std@@@std@@@2@XZ 0000000000407990 f i DocType.obj
 0001:000069a0       ?_Getcomp@?$_Tree_comp@$0A@V?$_Tmap_traits@V?$basic_string@DU?$char_traits@D@std@@V?$allocator@D@2@@std@@PEAVFeature@AwayJS@@U?$less@V?$basic_string@DU?$char_traits@D@std@@V?$allocator@D@2@@std@@@2@V?$allocator@U?$pair@$$CBV?$basic_string@DU?$char_traits@D@std@@V?$allocator@D@2@@std@@PEAVFeature@AwayJS@@@std@@@2@$0A@@std@@@std@@QEBA?AU?$less@V?$basic_string@DU?$char_traits@D@std@@V?$allocator@D@2@@std@@@2@XZ 00000000004079a0 f i DocType.obj
 0001:000069b0       ?_Getcomp@?$_Tree_comp@$0A@V?$_Tmap_traits@V?$basic_string@DU?$char_traits@D@std@@V?$allocator@D@2@@std@@PEAVProperty@AwayJS@@U?$less@V?$basic_string@DU?$char_traits@D@std@@V?$allocator@D@2@@std@@@2@V?$allocator@U?$pair@$$CBV?$basic_string@DU?$char_traits@D@std@@V?$allocator@D@2@@std@@PEAVProperty@AwayJS@@@std@@@2@$0A@@std@@@std@@QEBA?AU?$less@V?$basic_string@DU?$char_traits@D@std@@V?$allocator@D@2@@std@@@2@XZ 00000000004079b0 f i DocType.obj
 0001:000069c0       ?_Getcomp@?$_Tree_comp@$0A@V?$_Tmap_traits@V?$basic_string@DU?$char_traits@D@std@@V?$allocator@D@2@@std@@PEAVValue@AwayJS@@U?$less@V?$basic_string@DU?$char_traits@D@std@@V?$allocator@D@2@@std@@@2@V?$allocator@U?$pair@$$CBV?$basic_string@DU?$char_traits@D@std@@V?$allocator@D@2@@std@@PEAVValue@AwayJS@@@std@@@2@$0A@@std@@@std@@QEBA?AU?$less@V?$basic_string@DU?$char_traits@D@std@@V?$allocator@D@2@@std@@@2@XZ 00000000004079c0 f i DocType.obj
 0001:000069d0       ?_Getcomp@?$_Tree_comp@$0A@V?$_Tmap_traits@V?$basic_string@DU?$char_traits@D@std@@V?$allocator@D@2@@std@@V12@U?$less@V?$basic_string@DU?$char_traits@D@std@@V?$allocator@D@2@@std@@@2@V?$allocator@U?$pair@$$CBV?$basic_string@DU?$char_traits@D@std@@V?$allocator@D@2@@std@@V12@@std@@@2@$0A@@std@@@std@@QEBA?AU?$less@V?$basic_string@DU?$char_traits@D@std@@V?$allocator@D@2@@std@@@2@XZ 00000000004079d0 f i DocType.obj
 0001:000069e0       ?_Getfacet@locale@std@@QEBAPEBVfacet@12@_K@Z 00000000004079e0 f i DocType.obj
 0001:00006a40       ?_Grow@?$basic_string@DU?$char_traits@D@std@@V?$allocator@D@2@@std@@QEAA_N_K_N@Z 0000000000407a40 f i DocType.obj
 0001:00006b10       ?_Init@?$basic_filebuf@DU?$char_traits@D@std@@@std@@IEAAXPEAU_iobuf@@W4_Initfl@12@@Z 0000000000407b10 f i DocType.obj
 0001:00006b90       ?_Initcvt@?$basic_filebuf@DU?$char_traits@D@std@@@std@@IEAAXPEBV?$codecvt@DDH@2@@Z 0000000000407b90 f i DocType.obj
 0001:00006be0       ?_Inside@?$basic_string@DU?$char_traits@D@std@@V?$allocator@D@2@@std@@QEAA_NPEBD@Z 0000000000407be0 f i DocType.obj
 0001:00006c20       ?_Isnil@?$_Tree_val@U?$_Tree_simple_types@U?$pair@$$CBV?$basic_string@DU?$char_traits@D@std@@V?$allocator@D@2@@std@@PEAVFeature@AwayJS@@@std@@@std@@@std@@SAAEADPEAU?$_Tree_node@U?$pair@$$CBV?$basic_string@DU?$char_traits@D@std@@V?$allocator@D@2@@std@@PEAVFeature@AwayJS@@@std@@PEAX@2@@Z 0000000000407c20 f i DocType.obj
 0001:00006c30       ?_Isnil@?$_Tree_val@U?$_Tree_simple_types@U?$pair@$$CBV?$basic_string@DU?$char_traits@D@std@@V?$allocator@D@2@@std@@PEAVProperty@AwayJS@@@std@@@std@@@std@@SAAEADPEAU?$_Tree_node@U?$pair@$$CBV?$basic_string@DU?$char_traits@D@std@@V?$allocator@D@2@@std@@PEAVProperty@AwayJS@@@std@@PEAX@2@@Z 0000000000407c30 f i DocType.obj
 0001:00006c40       ?_Isnil@?$_Tree_val@U?$_Tree_simple_types@U?$pair@$$CBV?$basic_string@DU?$char_traits@D@std@@V?$allocator@D@2@@std@@PEAVValue@AwayJS@@@std@@@std@@@std@@SAAEADPEAU?$_Tree_node@U?$pair@$$CBV?$basic_string@DU?$char_traits@D@std@@V?$allocator@D@2@@std@@PEAVValue@AwayJS@@@std@@PEAX@2@@Z 0000000000407c40 f i DocType.obj
 0001:00006c50       ?_Isnil@?$_Tree_val@U?$_Tree_simple_types@U?$pair@$$CBV?$basic_string@DU?$char_traits@D@std@@V?$allocator@D@2@@std@@V12@@std@@@std@@@std@@SAAEADPEAU?$_Tree_node@U?$pair@$$CBV?$basic_string@DU?$char_traits@D@std@@V?$allocator@D@2@@std@@V12@@std@@PEAX@2@@Z 0000000000407c50 f i DocType.obj
 0001:00006c60       ?_Key@?$_Tree@V?$_Tmap_traits@V?$basic_string@DU?$char_traits@D@std@@V?$allocator@D@2@@std@@PEAVFeature@AwayJS@@U?$less@V?$basic_string@DU?$char_traits@D@std@@V?$allocator@D@2@@std@@@2@V?$allocator@U?$pair@$$CBV?$basic_string@DU?$char_traits@D@std@@V?$allocator@D@2@@std@@PEAVFeature@AwayJS@@@std@@@2@$0A@@std@@@std@@IEBAAEBV?$basic_string@DU?$char_traits@D@std@@V?$allocator@D@2@@2@PEAU?$_Tree_node@U?$pair@$$CBV?$basic_string@DU?$char_traits@D@std@@V?$allocator@D@2@@std@@PEAVFeature@AwayJS@@@std@@PEAX@2@@Z 0000000000407c60 f i DocType.obj
 0001:00006c70       ?_Key@?$_Tree@V?$_Tmap_traits@V?$basic_string@DU?$char_traits@D@std@@V?$allocator@D@2@@std@@PEAVProperty@AwayJS@@U?$less@V?$basic_string@DU?$char_traits@D@std@@V?$allocator@D@2@@std@@@2@V?$allocator@U?$pair@$$CBV?$basic_string@DU?$char_traits@D@std@@V?$allocator@D@2@@std@@PEAVProperty@AwayJS@@@std@@@2@$0A@@std@@@std@@IEBAAEBV?$basic_string@DU?$char_traits@D@std@@V?$allocator@D@2@@2@PEAU?$_Tree_node@U?$pair@$$CBV?$basic_string@DU?$char_traits@D@std@@V?$allocator@D@2@@std@@PEAVProperty@AwayJS@@@std@@PEAX@2@@Z 0000000000407c70 f i DocType.obj
 0001:00006c80       ?_Key@?$_Tree@V?$_Tmap_traits@V?$basic_string@DU?$char_traits@D@std@@V?$allocator@D@2@@std@@PEAVValue@AwayJS@@U?$less@V?$basic_string@DU?$char_traits@D@std@@V?$allocator@D@2@@std@@@2@V?$allocator@U?$pair@$$CBV?$basic_string@DU?$char_traits@D@std@@V?$allocator@D@2@@std@@PEAVValue@AwayJS@@@std@@@2@$0A@@std@@@std@@IEBAAEBV?$basic_string@DU?$char_traits@D@std@@V?$allocator@D@2@@2@PEAU?$_Tree_node@U?$pair@$$CBV?$basic_string@DU?$char_traits@D@std@@V?$allocator@D@2@@std@@PEAVValue@AwayJS@@@std@@PEAX@2@@Z 0000000000407c80 f i DocType.obj
 0001:00006c90       ?_Key@?$_Tree@V?$_Tmap_traits@V?$basic_string@DU?$char_traits@D@std@@V?$allocator@D@2@@std@@V12@U?$less@V?$basic_string@DU?$char_traits@D@std@@V?$allocator@D@2@@std@@@2@V?$allocator@U?$pair@$$CBV?$basic_string@DU?$char_traits@D@std@@V?$allocator@D@2@@std@@V12@@std@@@2@$0A@@std@@@std@@IEBAAEBV?$basic_string@DU?$char_traits@D@std@@V?$allocator@D@2@@2@PEAU?$_Tree_node@U?$pair@$$CBV?$basic_string@DU?$char_traits@D@std@@V?$allocator@D@2@@std@@V12@@std@@PEAX@2@@Z 0000000000407c90 f i DocType.obj
 0001:00006ca0       ?_Kfn@?$_Tree@V?$_Tmap_traits@V?$basic_string@DU?$char_traits@D@std@@V?$allocator@D@2@@std@@PEAVFeature@AwayJS@@U?$less@V?$basic_string@DU?$char_traits@D@std@@V?$allocator@D@2@@std@@@2@V?$allocator@U?$pair@$$CBV?$basic_string@DU?$char_traits@D@std@@V?$allocator@D@2@@std@@PEAVFeature@AwayJS@@@std@@@2@$0A@@std@@@std@@IEBAAEBV?$basic_string@DU?$char_traits@D@std@@V?$allocator@D@2@@2@AEBU?$pair@$$CBV?$basic_string@DU?$char_traits@D@std@@V?$allocator@D@2@@std@@PEAVFeature@AwayJS@@@2@@Z 0000000000407ca0 f i DocType.obj
 0001:00006cb0       ?_Kfn@?$_Tree@V?$_Tmap_traits@V?$basic_string@DU?$char_traits@D@std@@V?$allocator@D@2@@std@@PEAVProperty@AwayJS@@U?$less@V?$basic_string@DU?$char_traits@D@std@@V?$allocator@D@2@@std@@@2@V?$allocator@U?$pair@$$CBV?$basic_string@DU?$char_traits@D@std@@V?$allocator@D@2@@std@@PEAVProperty@AwayJS@@@std@@@2@$0A@@std@@@std@@IEBAAEBV?$basic_string@DU?$char_traits@D@std@@V?$allocator@D@2@@2@AEBU?$pair@$$CBV?$basic_string@DU?$char_traits@D@std@@V?$allocator@D@2@@std@@PEAVProperty@AwayJS@@@2@@Z 0000000000407cb0 f i DocType.obj
 0001:00006cc0       ?_Kfn@?$_Tree@V?$_Tmap_traits@V?$basic_string@DU?$char_traits@D@std@@V?$allocator@D@2@@std@@PEAVValue@AwayJS@@U?$less@V?$basic_string@DU?$char_traits@D@std@@V?$allocator@D@2@@std@@@2@V?$allocator@U?$pair@$$CBV?$basic_string@DU?$char_traits@D@std@@V?$allocator@D@2@@std@@PEAVValue@AwayJS@@@std@@@2@$0A@@std@@@std@@IEBAAEBV?$basic_string@DU?$char_traits@D@std@@V?$allocator@D@2@@2@AEBU?$pair@$$CBV?$basic_string@DU?$char_traits@D@std@@V?$allocator@D@2@@std@@PEAVValue@AwayJS@@@2@@Z 0000000000407cc0 f i DocType.obj
 0001:00006cd0       ?_Kfn@?$_Tree@V?$_Tmap_traits@V?$basic_string@DU?$char_traits@D@std@@V?$allocator@D@2@@std@@V12@U?$less@V?$basic_string@DU?$char_traits@D@std@@V?$allocator@D@2@@std@@@2@V?$allocator@U?$pair@$$CBV?$basic_string@DU?$char_traits@D@std@@V?$allocator@D@2@@std@@V12@@std@@@2@$0A@@std@@@std@@IEBAAEBV?$basic_string@DU?$char_traits@D@std@@V?$allocator@D@2@@2@AEBU?$pair@$$CBV?$basic_string@DU?$char_traits@D@std@@V?$allocator@D@2@@std@@V12@@2@@Z 0000000000407cd0 f i DocType.obj
 0001:00006ce0       ?_Lbound@?$_Tree@V?$_Tmap_traits@V?$basic_string@DU?$char_traits@D@std@@V?$allocator@D@2@@std@@PEAVFeature@AwayJS@@U?$less@V?$basic_string@DU?$char_traits@D@std@@V?$allocator@D@2@@std@@@2@V?$allocator@U?$pair@$$CBV?$basic_string@DU?$char_traits@D@std@@V?$allocator@D@2@@std@@PEAVFeature@AwayJS@@@std@@@2@$0A@@std@@@std@@IEAAPEAU?$_Tree_node@U?$pair@$$CBV?$basic_string@DU?$char_traits@D@std@@V?$allocator@D@2@@std@@PEAVFeature@AwayJS@@@std@@PEAX@2@AEBV?$basic_string@DU?$char_traits@D@std@@V?$allocator@D@2@@2@@Z 0000000000407ce0 f i DocType.obj
 0001:00006d90       ?_Lbound@?$_Tree@V?$_Tmap_traits@V?$basic_string@DU?$char_traits@D@std@@V?$allocator@D@2@@std@@PEAVProperty@AwayJS@@U?$less@V?$basic_string@DU?$char_traits@D@std@@V?$allocator@D@2@@std@@@2@V?$allocator@U?$pair@$$CBV?$basic_string@DU?$char_traits@D@std@@V?$allocator@D@2@@std@@PEAVProperty@AwayJS@@@std@@@2@$0A@@std@@@std@@IEAAPEAU?$_Tree_node@U?$pair@$$CBV?$basic_string@DU?$char_traits@D@std@@V?$allocator@D@2@@std@@PEAVProperty@AwayJS@@@std@@PEAX@2@AEBV?$basic_string@DU?$char_traits@D@std@@V?$allocator@D@2@@2@@Z 0000000000407d90 f i DocType.obj
 0001:00006e40       ?_Lbound@?$_Tree@V?$_Tmap_traits@V?$basic_string@DU?$char_traits@D@std@@V?$allocator@D@2@@std@@PEAVValue@AwayJS@@U?$less@V?$basic_string@DU?$char_traits@D@std@@V?$allocator@D@2@@std@@@2@V?$allocator@U?$pair@$$CBV?$basic_string@DU?$char_traits@D@std@@V?$allocator@D@2@@std@@PEAVValue@AwayJS@@@std@@@2@$0A@@std@@@std@@IEAAPEAU?$_Tree_node@U?$pair@$$CBV?$basic_string@DU?$char_traits@D@std@@V?$allocator@D@2@@std@@PEAVValue@AwayJS@@@std@@PEAX@2@AEBV?$basic_string@DU?$char_traits@D@std@@V?$allocator@D@2@@2@@Z 0000000000407e40 f i DocType.obj
 0001:00006ef0       ?_Lbound@?$_Tree@V?$_Tmap_traits@V?$basic_string@DU?$char_traits@D@std@@V?$allocator@D@2@@std@@V12@U?$less@V?$basic_string@DU?$char_traits@D@std@@V?$allocator@D@2@@std@@@2@V?$allocator@U?$pair@$$CBV?$basic_string@DU?$char_traits@D@std@@V?$allocator@D@2@@std@@V12@@std@@@2@$0A@@std@@@std@@IEBAPEAU?$_Tree_node@U?$pair@$$CBV?$basic_string@DU?$char_traits@D@std@@V?$allocator@D@2@@std@@V12@@std@@PEAX@2@AEBV?$basic_string@DU?$char_traits@D@std@@V?$allocator@D@2@@2@@Z 0000000000407ef0 f i DocType.obj
 0001:00006fa0       ?_Left@?$_Tree_val@U?$_Tree_simple_types@U?$pair@$$CBV?$basic_string@DU?$char_traits@D@std@@V?$allocator@D@2@@std@@PEAVFeature@AwayJS@@@std@@@std@@@std@@SAAEAPEAU?$_Tree_node@U?$pair@$$CBV?$basic_string@DU?$char_traits@D@std@@V?$allocator@D@2@@std@@PEAVFeature@AwayJS@@@std@@PEAX@2@PEAU32@@Z 0000000000407fa0 f i DocType.obj
 0001:00006fb0       ?_Left@?$_Tree_val@U?$_Tree_simple_types@U?$pair@$$CBV?$basic_string@DU?$char_traits@D@std@@V?$allocator@D@2@@std@@PEAVProperty@AwayJS@@@std@@@std@@@std@@SAAEAPEAU?$_Tree_node@U?$pair@$$CBV?$basic_string@DU?$char_traits@D@std@@V?$allocator@D@2@@std@@PEAVProperty@AwayJS@@@std@@PEAX@2@PEAU32@@Z 0000000000407fb0 f i DocType.obj
 0001:00006fc0       ?_Left@?$_Tree_val@U?$_Tree_simple_types@U?$pair@$$CBV?$basic_string@DU?$char_traits@D@std@@V?$allocator@D@2@@std@@PEAVValue@AwayJS@@@std@@@std@@@std@@SAAEAPEAU?$_Tree_node@U?$pair@$$CBV?$basic_string@DU?$char_traits@D@std@@V?$allocator@D@2@@std@@PEAVValue@AwayJS@@@std@@PEAX@2@PEAU32@@Z 0000000000407fc0 f i DocType.obj
 0001:00006fd0       ?_Left@?$_Tree_val@U?$_Tree_simple_types@U?$pair@$$CBV?$basic_string@DU?$char_traits@D@std@@V?$allocator@D@2@@std@@V12@@std@@@std@@@std@@SAAEAPEAU?$_Tree_node@U?$pair@$$CBV?$basic_string@DU?$char_traits@D@std@@V?$allocator@D@2@@std@@V12@@std@@PEAX@2@PEAU32@@Z 0000000000407fd0 f i DocType.obj
 0001:00006fe0       ?_Lmost@?$_Tree@V?$_Tmap_traits@V?$basic_string@DU?$char_traits@D@std@@V?$allocator@D@2@@std@@PEAVFeature@AwayJS@@U?$less@V?$basic_string@DU?$char_traits@D@std@@V?$allocator@D@2@@std@@@2@V?$allocator@U?$pair@$$CBV?$basic_string@DU?$char_traits@D@std@@V?$allocator@D@2@@std@@PEAVFeature@AwayJS@@@std@@@2@$0A@@std@@@std@@IEBAAEAPEAU?$_Tree_node@U?$pair@$$CBV?$basic_string@DU?$char_traits@D@std@@V?$allocator@D@2@@std@@PEAVFeature@AwayJS@@@std@@PEAX@2@XZ 0000000000407fe0 f i DocType.obj
 0001:00006ff0       ?_Lmost@?$_Tree@V?$_Tmap_traits@V?$basic_string@DU?$char_traits@D@std@@V?$allocator@D@2@@std@@PEAVProperty@AwayJS@@U?$less@V?$basic_string@DU?$char_traits@D@std@@V?$allocator@D@2@@std@@@2@V?$allocator@U?$pair@$$CBV?$basic_string@DU?$char_traits@D@std@@V?$allocator@D@2@@std@@PEAVProperty@AwayJS@@@std@@@2@$0A@@std@@@std@@IEBAAEAPEAU?$_Tree_node@U?$pair@$$CBV?$basic_string@DU?$char_traits@D@std@@V?$allocator@D@2@@std@@PEAVProperty@AwayJS@@@std@@PEAX@2@XZ 0000000000407ff0 f i DocType.obj
 0001:00007000       ?_Lmost@?$_Tree@V?$_Tmap_traits@V?$basic_string@DU?$char_traits@D@std@@V?$allocator@D@2@@std@@PEAVValue@AwayJS@@U?$less@V?$basic_string@DU?$char_traits@D@std@@V?$allocator@D@2@@std@@@2@V?$allocator@U?$pair@$$CBV?$basic_string@DU?$char_traits@D@std@@V?$allocator@D@2@@std@@PEAVValue@AwayJS@@@std@@@2@$0A@@std@@@std@@IEBAAEAPEAU?$_Tree_node@U?$pair@$$CBV?$basic_string@DU?$char_traits@D@std@@V?$allocator@D@2@@std@@PEAVValue@AwayJS@@@std@@PEAX@2@XZ 0000000000408000 f i DocType.obj
 0001:00007010       ?_Lock@?$basic_filebuf@DU?$char_traits@D@std@@@std@@UEAAXXZ 0000000000408010 f i DocType.obj
 0001:00007030       ?_Lrotate@?$_Tree@V?$_Tmap_traits@V?$basic_string@DU?$char_traits@D@std@@V?$allocator@D@2@@std@@PEAVFeature@AwayJS@@U?$less@V?$basic_string@DU?$char_traits@D@std@@V?$allocator@D@2@@std@@@2@V?$allocator@U?$pair@$$CBV?$basic_string@DU?$char_traits@D@std@@V?$allocator@D@2@@std@@PEAVFeature@AwayJS@@@std@@@2@$0A@@std@@@std@@IEAAXPEAU?$_Tree_node@U?$pair@$$CBV?$basic_string@DU?$char_traits@D@std@@V?$allocator@D@2@@std@@PEAVFeature@AwayJS@@@std@@PEAX@2@@Z 0000000000408030 f i DocType.obj
 0001:00007090       ?_Lrotate@?$_Tree@V?$_Tmap_traits@V?$basic_string@DU?$char_traits@D@std@@V?$allocator@D@2@@std@@PEAVProperty@AwayJS@@U?$less@V?$basic_string@DU?$char_traits@D@std@@V?$allocator@D@2@@std@@@2@V?$allocator@U?$pair@$$CBV?$basic_string@DU?$char_traits@D@std@@V?$allocator@D@2@@std@@PEAVProperty@AwayJS@@@std@@@2@$0A@@std@@@std@@IEAAXPEAU?$_Tree_node@U?$pair@$$CBV?$basic_string@DU?$char_traits@D@std@@V?$allocator@D@2@@std@@PEAVProperty@AwayJS@@@std@@PEAX@2@@Z 0000000000408090 f i DocType.obj
 0001:000070f0       ?_Lrotate@?$_Tree@V?$_Tmap_traits@V?$basic_string@DU?$char_traits@D@std@@V?$allocator@D@2@@std@@PEAVValue@AwayJS@@U?$less@V?$basic_string@DU?$char_traits@D@std@@V?$allocator@D@2@@std@@@2@V?$allocator@U?$pair@$$CBV?$basic_string@DU?$char_traits@D@std@@V?$allocator@D@2@@std@@PEAVValue@AwayJS@@@std@@@2@$0A@@std@@@std@@IEAAXPEAU?$_Tree_node@U?$pair@$$CBV?$basic_string@DU?$char_traits@D@std@@V?$allocator@D@2@@std@@PEAVValue@AwayJS@@@std@@PEAX@2@@Z 00000000004080f0 f i DocType.obj
 0001:00007150       ?_Max@?$_Tree_val@U?$_Tree_simple_types@U?$pair@$$CBV?$basic_string@DU?$char_traits@D@std@@V?$allocator@D@2@@std@@PEAVFeature@AwayJS@@@std@@@std@@@std@@SAPEAU?$_Tree_node@U?$pair@$$CBV?$basic_string@DU?$char_traits@D@std@@V?$allocator@D@2@@std@@PEAVFeature@AwayJS@@@std@@PEAX@2@PEAU32@@Z 0000000000408150 f i DocType.obj
 0001:00007180       ?_Max@?$_Tree_val@U?$_Tree_simple_types@U?$pair@$$CBV?$basic_string@DU?$char_traits@D@std@@V?$allocator@D@2@@std@@PEAVProperty@AwayJS@@@std@@@std@@@std@@SAPEAU?$_Tree_node@U?$pair@$$CBV?$basic_string@DU?$char_traits@D@std@@V?$allocator@D@2@@std@@PEAVProperty@AwayJS@@@std@@PEAX@2@PEAU32@@Z 0000000000408180 f i DocType.obj
 0001:000071b0       ?_Max@?$_Tree_val@U?$_Tree_simple_types@U?$pair@$$CBV?$basic_string@DU?$char_traits@D@std@@V?$allocator@D@2@@std@@PEAVValue@AwayJS@@@std@@@std@@@std@@SAPEAU?$_Tree_node@U?$pair@$$CBV?$basic_string@DU?$char_traits@D@std@@V?$allocator@D@2@@std@@PEAVValue@AwayJS@@@std@@PEAX@2@PEAU32@@Z 00000000004081b0 f i DocType.obj
 0001:000071e0       ?_Min@?$_Tree_val@U?$_Tree_simple_types@U?$pair@$$CBV?$basic_string@DU?$char_traits@D@std@@V?$allocator@D@2@@std@@PEAVFeature@AwayJS@@@std@@@std@@@std@@SAPEAU?$_Tree_node@U?$pair@$$CBV?$basic_string@DU?$char_traits@D@std@@V?$allocator@D@2@@std@@PEAVFeature@AwayJS@@@std@@PEAX@2@PEAU32@@Z 00000000004081e0 f i DocType.obj
 0001:00007200       ?_Min@?$_Tree_val@U?$_Tree_simple_types@U?$pair@$$CBV?$basic_string@DU?$char_traits@D@std@@V?$allocator@D@2@@std@@PEAVProperty@AwayJS@@@std@@@std@@@std@@SAPEAU?$_Tree_node@U?$pair@$$CBV?$basic_string@DU?$char_traits@D@std@@V?$allocator@D@2@@std@@PEAVProperty@AwayJS@@@std@@PEAX@2@PEAU32@@Z 0000000000408200 f i DocType.obj
 0001:00007220       ?_Min@?$_Tree_val@U?$_Tree_simple_types@U?$pair@$$CBV?$basic_string@DU?$char_traits@D@std@@V?$allocator@D@2@@std@@PEAVValue@AwayJS@@@std@@@std@@@std@@SAPEAU?$_Tree_node@U?$pair@$$CBV?$basic_string@DU?$char_traits@D@std@@V?$allocator@D@2@@std@@PEAVValue@AwayJS@@@std@@PEAX@2@PEAU32@@Z 0000000000408220 f i DocType.obj
 0001:00007240       ?_Mynode@?$_Tree_unchecked_const_iterator@V?$_Tree_val@U?$_Tree_simple_types@U?$pair@$$CBV?$basic_string@DU?$char_traits@D@std@@V?$allocator@D@2@@std@@PEAVFeature@AwayJS@@@std@@@std@@@std@@U_Iterator_base0@2@@std@@QEBAPEAU?$_Tree_node@U?$pair@$$CBV?$basic_string@DU?$char_traits@D@std@@V?$allocator@D@2@@std@@PEAVFeature@AwayJS@@@std@@PEAX@2@XZ 0000000000408240 f i DocType.obj
 0001:00007250       ?_Mynode@?$_Tree_unchecked_const_iterator@V?$_Tree_val@U?$_Tree_simple_types@U?$pair@$$CBV?$basic_string@DU?$char_traits@D@std@@V?$allocator@D@2@@std@@PEAVProperty@AwayJS@@@std@@@std@@@std@@U_Iterator_base0@2@@std@@QEBAPEAU?$_Tree_node@U?$pair@$$CBV?$basic_string@DU?$char_traits@D@std@@V?$allocator@D@2@@std@@PEAVProperty@AwayJS@@@std@@PEAX@2@XZ 0000000000408250 f i DocType.obj
 0001:00007260       ?_Mynode@?$_Tree_unchecked_const_iterator@V?$_Tree_val@U?$_Tree_simple_types@U?$pair@$$CBV?$basic_string@DU?$char_traits@D@std@@V?$allocator@D@2@@std@@PEAVValue@AwayJS@@@std@@@std@@@std@@U_Iterator_base0@2@@std@@QEBAPEAU?$_Tree_node@U?$pair@$$CBV?$basic_string@DU?$char_traits@D@std@@V?$allocator@D@2@@std@@PEAVValue@AwayJS@@@std@@PEAX@2@XZ 0000000000408260 f i DocType.obj
 0001:00007270       ?_Mynode@?$_Tree_unchecked_const_iterator@V?$_Tree_val@U?$_Tree_simple_types@U?$pair@$$CBV?$basic_string@DU?$char_traits@D@std@@V?$allocator@D@2@@std@@V12@@std@@@std@@@std@@U_Iterator_base0@2@@std@@QEBAPEAU?$_Tree_node@U?$pair@$$CBV?$basic_string@DU?$char_traits@D@std@@V?$allocator@D@2@@std@@V12@@std@@PEAX@2@XZ 0000000000408270 f i DocType.obj
 0001:00007280       ?_Myptr@?$_String_val@U?$_Simple_types@D@std@@@std@@QEAAPEADXZ 0000000000408280 f i DocType.obj
 0001:00007290       ?_Myptr@?$_String_val@U?$_Simple_types@D@std@@@std@@QEBAPEBDXZ 0000000000408290 f i DocType.obj
 0001:000072a0       ?_Myval@?$_Tree_val@U?$_Tree_simple_types@U?$pair@$$CBV?$basic_string@DU?$char_traits@D@std@@V?$allocator@D@2@@std@@PEAVFeature@AwayJS@@@std@@@std@@@std@@SAAEAU?$pair@$$CBV?$basic_string@DU?$char_traits@D@std@@V?$allocator@D@2@@std@@PEAVFeature@AwayJS@@@2@PEAU?$_Tree_node@U?$pair@$$CBV?$basic_string@DU?$char_traits@D@std@@V?$allocator@D@2@@std@@PEAVFeature@AwayJS@@@std@@PEAX@2@@Z 00000000004082a0 f i DocType.obj
 0001:000072b0       ?_Myval@?$_Tree_val@U?$_Tree_simple_types@U?$pair@$$CBV?$basic_string@DU?$char_traits@D@std@@V?$allocator@D@2@@std@@PEAVProperty@AwayJS@@@std@@@std@@@std@@SAAEAU?$pair@$$CBV?$basic_string@DU?$char_traits@D@std@@V?$allocator@D@2@@std@@PEAVProperty@AwayJS@@@2@PEAU?$_Tree_node@U?$pair@$$CBV?$basic_string@DU?$char_traits@D@std@@V?$allocator@D@2@@std@@PEAVProperty@AwayJS@@@std@@PEAX@2@@Z 00000000004082b0 f i DocType.obj
 0001:000072c0       ?_Myval@?$_Tree_val@U?$_Tree_simple_types@U?$pair@$$CBV?$basic_string@DU?$char_traits@D@std@@V?$allocator@D@2@@std@@PEAVValue@AwayJS@@@std@@@std@@@std@@SAAEAU?$pair@$$CBV?$basic_string@DU?$char_traits@D@std@@V?$allocator@D@2@@std@@PEAVValue@AwayJS@@@2@PEAU?$_Tree_node@U?$pair@$$CBV?$basic_string@DU?$char_traits@D@std@@V?$allocator@D@2@@std@@PEAVValue@AwayJS@@@std@@PEAX@2@@Z 00000000004082c0 f i DocType.obj
 0001:000072d0       ?_Myval@?$_Tree_val@U?$_Tree_simple_types@U?$pair@$$CBV?$basic_string@DU?$char_traits@D@std@@V?$allocator@D@2@@std@@V12@@std@@@std@@@std@@SAAEAU?$pair@$$CBV?$basic_string@DU?$char_traits@D@std@@V?$allocator@D@2@@std@@V12@@2@PEAU?$_Tree_node@U?$pair@$$CBV?$basic_string@DU?$char_traits@D@std@@V?$allocator@D@2@@std@@V12@@std@@PEAX@2@@Z 00000000004082d0 f i DocType.obj
 0001:000072e0       ?_Parent@?$_Tree_val@U?$_Tree_simple_types@U?$pair@$$CBV?$basic_string@DU?$char_traits@D@std@@V?$allocator@D@2@@std@@PEAVFeature@AwayJS@@@std@@@std@@@std@@SAAEAPEAU?$_Tree_node@U?$pair@$$CBV?$basic_string@DU?$char_traits@D@std@@V?$allocator@D@2@@std@@PEAVFeature@AwayJS@@@std@@PEAX@2@PEAU32@@Z 00000000004082e0 f i DocType.obj
 0001:000072f0       ?_Parent@?$_Tree_val@U?$_Tree_simple_types@U?$pair@$$CBV?$basic_string@DU?$char_traits@D@std@@V?$allocator@D@2@@std@@PEAVProperty@AwayJS@@@std@@@std@@@std@@SAAEAPEAU?$_Tree_node@U?$pair@$$CBV?$basic_string@DU?$char_traits@D@std@@V?$allocator@D@2@@std@@PEAVProperty@AwayJS@@@std@@PEAX@2@PEAU32@@Z 00000000004082f0 f i DocType.obj
 0001:00007300       ?_Parent@?$_Tree_val@U?$_Tree_simple_types@U?$pair@$$CBV?$basic_string@DU?$char_traits@D@std@@V?$allocator@D@2@@std@@PEAVValue@AwayJS@@@std@@@std@@@std@@SAAEAPEAU?$_Tree_node@U?$pair@$$CBV?$basic_string@DU?$char_traits@D@std@@V?$allocator@D@2@@std@@PEAVValue@AwayJS@@@std@@PEAX@2@PEAU32@@Z 0000000000408300 f i DocType.obj
 0001:00007310       ?_Parent@?$_Tree_val@U?$_Tree_simple_types@U?$pair@$$CBV?$basic_string@DU?$char_traits@D@std@@V?$allocator@D@2@@std@@V12@@std@@@std@@@std@@SAAEAPEAU?$_Tree_node@U?$pair@$$CBV?$basic_string@DU?$char_traits@D@std@@V?$allocator@D@2@@std@@V12@@std@@PEAX@2@PEAU32@@Z 0000000000408310 f i DocType.obj
 0001:00007320       ?_Reset_back@?$basic_filebuf@DU?$char_traits@D@std@@@std@@AEAAXXZ 0000000000408320 f i DocType.obj
 0001:00007350       ?_Right@?$_Tree_val@U?$_Tree_simple_types@U?$pair@$$CBV?$basic_string@DU?$char_traits@D@std@@V?$allocator@D@2@@std@@PEAVFeature@AwayJS@@@std@@@std@@@std@@SAAEAPEAU?$_Tree_node@U?$pair@$$CBV?$basic_string@DU?$char_traits@D@std@@V?$allocator@D@2@@std@@PEAVFeature@AwayJS@@@std@@PEAX@2@PEAU32@@Z 0000000000408350 f i DocType.obj
 0001:00007360       ?_Right@?$_Tree_val@U?$_Tree_simple_types@U?$pair@$$CBV?$basic_string@DU?$char_traits@D@std@@V?$allocator@D@2@@std@@PEAVProperty@AwayJS@@@std@@@std@@@std@@SAAEAPEAU?$_Tree_node@U?$pair@$$CBV?$basic_string@DU?$char_traits@D@std@@V?$allocator@D@2@@std@@PEAVProperty@AwayJS@@@std@@PEAX@2@PEAU32@@Z 0000000000408360 f i DocType.obj
 0001:00007370       ?_Right@?$_Tree_val@U?$_Tree_simple_types@U?$pair@$$CBV?$basic_string@DU?$char_traits@D@std@@V?$allocator@D@2@@std@@PEAVValue@AwayJS@@@std@@@std@@@std@@SAAEAPEAU?$_Tree_node@U?$pair@$$CBV?$basic_string@DU?$char_traits@D@std@@V?$allocator@D@2@@std@@PEAVValue@AwayJS@@@std@@PEAX@2@PEAU32@@Z 0000000000408370 f i DocType.obj
 0001:00007380       ?_Right@?$_Tree_val@U?$_Tree_simple_types@U?$pair@$$CBV?$basic_string@DU?$char_traits@D@std@@V?$allocator@D@2@@std@@V12@@std@@@std@@@std@@SAAEAPEAU?$_Tree_node@U?$pair@$$CBV?$basic_string@DU?$char_traits@D@std@@V?$allocator@D@2@@std@@V12@@std@@PEAX@2@PEAU32@@Z 0000000000408380 f i DocType.obj
 0001:00007390       ?_Rmost@?$_Tree@V?$_Tmap_traits@V?$basic_string@DU?$char_traits@D@std@@V?$allocator@D@2@@std@@PEAVFeature@AwayJS@@U?$less@V?$basic_string@DU?$char_traits@D@std@@V?$allocator@D@2@@std@@@2@V?$allocator@U?$pair@$$CBV?$basic_string@DU?$char_traits@D@std@@V?$allocator@D@2@@std@@PEAVFeature@AwayJS@@@std@@@2@$0A@@std@@@std@@IEBAAEAPEAU?$_Tree_node@U?$pair@$$CBV?$basic_string@DU?$char_traits@D@std@@V?$allocator@D@2@@std@@PEAVFeature@AwayJS@@@std@@PEAX@2@XZ 0000000000408390 f i DocType.obj
 0001:000073a0       ?_Rmost@?$_Tree@V?$_Tmap_traits@V?$basic_string@DU?$char_traits@D@std@@V?$allocator@D@2@@std@@PEAVProperty@AwayJS@@U?$less@V?$basic_string@DU?$char_traits@D@std@@V?$allocator@D@2@@std@@@2@V?$allocator@U?$pair@$$CBV?$basic_string@DU?$char_traits@D@std@@V?$allocator@D@2@@std@@PEAVProperty@AwayJS@@@std@@@2@$0A@@std@@@std@@IEBAAEAPEAU?$_Tree_node@U?$pair@$$CBV?$basic_string@DU?$char_traits@D@std@@V?$allocator@D@2@@std@@PEAVProperty@AwayJS@@@std@@PEAX@2@XZ 00000000004083a0 f i DocType.obj
 0001:000073b0       ?_Rmost@?$_Tree@V?$_Tmap_traits@V?$basic_string@DU?$char_traits@D@std@@V?$allocator@D@2@@std@@PEAVValue@AwayJS@@U?$less@V?$basic_string@DU?$char_traits@D@std@@V?$allocator@D@2@@std@@@2@V?$allocator@U?$pair@$$CBV?$basic_string@DU?$char_traits@D@std@@V?$allocator@D@2@@std@@PEAVValue@AwayJS@@@std@@@2@$0A@@std@@@std@@IEBAAEAPEAU?$_Tree_node@U?$pair@$$CBV?$basic_string@DU?$char_traits@D@std@@V?$allocator@D@2@@std@@PEAVValue@AwayJS@@@std@@PEAX@2@XZ 00000000004083b0 f i DocType.obj
 0001:000073c0       ?_Root@?$_Tree@V?$_Tmap_traits@V?$basic_string@DU?$char_traits@D@std@@V?$allocator@D@2@@std@@PEAVFeature@AwayJS@@U?$less@V?$basic_string@DU?$char_traits@D@std@@V?$allocator@D@2@@std@@@2@V?$allocator@U?$pair@$$CBV?$basic_string@DU?$char_traits@D@std@@V?$allocator@D@2@@std@@PEAVFeature@AwayJS@@@std@@@2@$0A@@std@@@std@@IEBAAEAPEAU?$_Tree_node@U?$pair@$$CBV?$basic_string@DU?$char_traits@D@std@@V?$allocator@D@2@@std@@PEAVFeature@AwayJS@@@std@@PEAX@2@XZ 00000000004083c0 f i DocType.obj
 0001:000073d0       ?_Root@?$_Tree@V?$_Tmap_traits@V?$basic_string@DU?$char_traits@D@std@@V?$allocator@D@2@@std@@PEAVProperty@AwayJS@@U?$less@V?$basic_string@DU?$char_traits@D@std@@V?$allocator@D@2@@std@@@2@V?$allocator@U?$pair@$$CBV?$basic_string@DU?$char_traits@D@std@@V?$allocator@D@2@@std@@PEAVProperty@AwayJS@@@std@@@2@$0A@@std@@@std@@IEBAAEAPEAU?$_Tree_node@U?$pair@$$CBV?$basic_string@DU?$char_traits@D@std@@V?$allocator@D@2@@std@@PEAVProperty@AwayJS@@@std@@PEAX@2@XZ 00000000004083d0 f i DocType.obj
 0001:000073e0       ?_Root@?$_Tree@V?$_Tmap_traits@V?$basic_string@DU?$char_traits@D@std@@V?$allocator@D@2@@std@@PEAVValue@AwayJS@@U?$less@V?$basic_string@DU?$char_traits@D@std@@V?$allocator@D@2@@std@@@2@V?$allocator@U?$pair@$$CBV?$basic_string@DU?$char_traits@D@std@@V?$allocator@D@2@@std@@PEAVValue@AwayJS@@@std@@@2@$0A@@std@@@std@@IEBAAEAPEAU?$_Tree_node@U?$pair@$$CBV?$basic_string@DU?$char_traits@D@std@@V?$allocator@D@2@@std@@PEAVValue@AwayJS@@@std@@PEAX@2@XZ 00000000004083e0 f i DocType.obj
 0001:000073f0       ?_Root@?$_Tree@V?$_Tmap_traits@V?$basic_string@DU?$char_traits@D@std@@V?$allocator@D@2@@std@@V12@U?$less@V?$basic_string@DU?$char_traits@D@std@@V?$allocator@D@2@@std@@@2@V?$allocator@U?$pair@$$CBV?$basic_string@DU?$char_traits@D@std@@V?$allocator@D@2@@std@@V12@@std@@@2@$0A@@std@@@std@@IEBAAEAPEAU?$_Tree_node@U?$pair@$$CBV?$basic_string@DU?$char_traits@D@std@@V?$allocator@D@2@@std@@V12@@std@@PEAX@2@XZ 00000000004083f0 f i DocType.obj
 0001:00007400       ?_Rrotate@?$_Tree@V?$_Tmap_traits@V?$basic_string@DU?$char_traits@D@std@@V?$allocator@D@2@@std@@PEAVFeature@AwayJS@@U?$less@V?$basic_string@DU?$char_traits@D@std@@V?$allocator@D@2@@std@@@2@V?$allocator@U?$pair@$$CBV?$basic_string@DU?$char_traits@D@std@@V?$allocator@D@2@@std@@PEAVFeature@AwayJS@@@std@@@2@$0A@@std@@@std@@IEAAXPEAU?$_Tree_node@U?$pair@$$CBV?$basic_string@DU?$char_traits@D@std@@V?$allocator@D@2@@std@@PEAVFeature@AwayJS@@@std@@PEAX@2@@Z 0000000000408400 f i DocType.obj
 0001:00007460       ?_Rrotate@?$_Tree@V?$_Tmap_traits@V?$basic_string@DU?$char_traits@D@std@@V?$allocator@D@2@@std@@PEAVProperty@AwayJS@@U?$less@V?$basic_string@DU?$char_traits@D@std@@V?$allocator@D@2@@std@@@2@V?$allocator@U?$pair@$$CBV?$basic_string@DU?$char_traits@D@std@@V?$allocator@D@2@@std@@PEAVProperty@AwayJS@@@std@@@2@$0A@@std@@@std@@IEAAXPEAU?$_Tree_node@U?$pair@$$CBV?$basic_string@DU?$char_traits@D@std@@V?$allocator@D@2@@std@@PEAVProperty@AwayJS@@@std@@PEAX@2@@Z 0000000000408460 f i DocType.obj
 0001:000074c0       ?_Rrotate@?$_Tree@V?$_Tmap_traits@V?$basic_string@DU?$char_traits@D@std@@V?$allocator@D@2@@std@@PEAVValue@AwayJS@@U?$less@V?$basic_string@DU?$char_traits@D@std@@V?$allocator@D@2@@std@@@2@V?$allocator@U?$pair@$$CBV?$basic_string@DU?$char_traits@D@std@@V?$allocator@D@2@@std@@PEAVValue@AwayJS@@@std@@@2@$0A@@std@@@std@@IEAAXPEAU?$_Tree_node@U?$pair@$$CBV?$basic_string@DU?$char_traits@D@std@@V?$allocator@D@2@@std@@PEAVValue@AwayJS@@@std@@PEAX@2@@Z 00000000004084c0 f i DocType.obj
 0001:00007520       ?_Set_back@?$basic_filebuf@DU?$char_traits@D@std@@@std@@AEAAXXZ 0000000000408520 f i DocType.obj
 0001:00007570       ?_Tidy@?$_Tree@V?$_Tmap_traits@V?$basic_string@DU?$char_traits@D@std@@V?$allocator@D@2@@std@@PEAVFeature@AwayJS@@U?$less@V?$basic_string@DU?$char_traits@D@std@@V?$allocator@D@2@@std@@@2@V?$allocator@U?$pair@$$CBV?$basic_string@DU?$char_traits@D@std@@V?$allocator@D@2@@std@@PEAVFeature@AwayJS@@@std@@@2@$0A@@std@@@std@@IEAAXXZ 0000000000408570 f i DocType.obj
 0001:00007590       ?_Tidy@?$_Tree@V?$_Tmap_traits@V?$basic_string@DU?$char_traits@D@std@@V?$allocator@D@2@@std@@PEAVProperty@AwayJS@@U?$less@V?$basic_string@DU?$char_traits@D@std@@V?$allocator@D@2@@std@@@2@V?$allocator@U?$pair@$$CBV?$basic_string@DU?$char_traits@D@std@@V?$allocator@D@2@@std@@PEAVProperty@AwayJS@@@std@@@2@$0A@@std@@@std@@IEAAXXZ 0000000000408590 f i DocType.obj
 0001:000075b0       ?_Tidy@?$_Tree@V?$_Tmap_traits@V?$basic_string@DU?$char_traits@D@std@@V?$allocator@D@2@@std@@PEAVValue@AwayJS@@U?$less@V?$basic_string@DU?$char_traits@D@std@@V?$allocator@D@2@@std@@@2@V?$allocator@U?$pair@$$CBV?$basic_string@DU?$char_traits@D@std@@V?$allocator@D@2@@std@@PEAVValue@AwayJS@@@std@@@2@$0A@@std@@@std@@IEAAXXZ 00000000004085b0 f i DocType.obj
 0001:000075d0       ?_Tidy@?$basic_string@DU?$char_traits@D@std@@V?$allocator@D@2@@std@@QEAAX_N_K@Z 00000000004085d0 f i DocType.obj
 0001:00007630       ?_Unlock@?$basic_filebuf@DU?$char_traits@D@std@@@std@@UEAAXXZ 0000000000408630 f i DocType.obj
 0001:00007650       ?_Xlen@?$basic_string@DU?$char_traits@D@std@@V?$allocator@D@2@@std@@QEBAXXZ 0000000000408650 f i DocType.obj
 0001:00007670       ?_Xran@?$basic_string@DU?$char_traits@D@std@@V?$allocator@D@2@@std@@QEBAXXZ 0000000000408670 f i DocType.obj
 0001:00007690       ?allocate@?$_Wrap_alloc@V?$allocator@D@std@@@std@@QEAAPEAD_K@Z 0000000000408690 f i DocType.obj
 0001:000076c0       ?allocate@?$_Wrap_alloc@V?$allocator@U?$_Tree_node@U?$pair@$$CBV?$basic_string@DU?$char_traits@D@std@@V?$allocator@D@2@@std@@PEAVFeature@AwayJS@@@std@@PEAX@std@@@std@@@std@@QEAAPEAU?$_Tree_node@U?$pair@$$CBV?$basic_string@DU?$char_traits@D@std@@V?$allocator@D@2@@std@@PEAVFeature@AwayJS@@@std@@PEAX@2@_K@Z 00000000004086c0 f i DocType.obj
 0001:00007700       ?allocate@?$_Wrap_alloc@V?$allocator@U?$_Tree_node@U?$pair@$$CBV?$basic_string@DU?$char_traits@D@std@@V?$allocator@D@2@@std@@PEAVProperty@AwayJS@@@std@@PEAX@std@@@std@@@std@@QEAAPEAU?$_Tree_node@U?$pair@$$CBV?$basic_string@DU?$char_traits@D@std@@V?$allocator@D@2@@std@@PEAVProperty@AwayJS@@@std@@PEAX@2@_K@Z 0000000000408700 f i DocType.obj
 0001:00007740       ?allocate@?$_Wrap_alloc@V?$allocator@U?$_Tree_node@U?$pair@$$CBV?$basic_string@DU?$char_traits@D@std@@V?$allocator@D@2@@std@@PEAVValue@AwayJS@@@std@@PEAX@std@@@std@@@std@@QEAAPEAU?$_Tree_node@U?$pair@$$CBV?$basic_string@DU?$char_traits@D@std@@V?$allocator@D@2@@std@@PEAVValue@AwayJS@@@std@@PEAX@2@_K@Z 0000000000408740 f i DocType.obj
 0001:00007780       ?allocate@?$allocator@D@std@@QEAAPEAD_K@Z 0000000000408780 f i DocType.obj
 0001:000077b0       ?allocate@?$allocator@U?$_Tree_node@U?$pair@$$CBV?$basic_string@DU?$char_traits@D@std@@V?$allocator@D@2@@std@@PEAVFeature@AwayJS@@@std@@PEAX@std@@@std@@QEAAPEAU?$_Tree_node@U?$pair@$$CBV?$basic_string@DU?$char_traits@D@std@@V?$allocator@D@2@@std@@PEAVFeature@AwayJS@@@std@@PEAX@2@_K@Z 00000000004087b0 f i DocType.obj
 0001:000077f0       ?allocate@?$allocator@U?$_Tree_node@U?$pair@$$CBV?$basic_string@DU?$char_traits@D@std@@V?$allocator@D@2@@std@@PEAVProperty@AwayJS@@@std@@PEAX@std@@@std@@QEAAPEAU?$_Tree_node@U?$pair@$$CBV?$basic_string@DU?$char_traits@D@std@@V?$allocator@D@2@@std@@PEAVProperty@AwayJS@@@std@@PEAX@2@_K@Z 00000000004087f0 f i DocType.obj
 0001:00007830       ?allocate@?$allocator@U?$_Tree_node@U?$pair@$$CBV?$basic_string@DU?$char_traits@D@std@@V?$allocator@D@2@@std@@PEAVValue@AwayJS@@@std@@PEAX@std@@@std@@QEAAPEAU?$_Tree_node@U?$pair@$$CBV?$basic_string@DU?$char_traits@D@std@@V?$allocator@D@2@@std@@PEAVValue@AwayJS@@@std@@PEAX@2@_K@Z 0000000000408830 f i DocType.obj
 0001:00007870       ?append@?$basic_string@DU?$char_traits@D@std@@V?$allocator@D@2@@std@@QEAAAEAV12@AEBV12@_K1@Z 0000000000408870 f i DocType.obj
 0001:00007990       ?append@?$basic_string@DU?$char_traits@D@std@@V?$allocator@D@2@@std@@QEAAAEAV12@PEBD@Z 0000000000408990 f i DocType.obj
 0001:000079b0       ?append@?$basic_string@DU?$char_traits@D@std@@V?$allocator@D@2@@std@@QEAAAEAV12@PEBD_K@Z 00000000004089b0 f i DocType.obj
 0001:00007b00       ?append@?$basic_string@DU?$char_traits@D@std@@V?$allocator@D@2@@std@@QEAAAEAV12@_KD@Z 0000000000408b00 f i DocType.obj
 0001:00007c10       ?assign@?$basic_string@DU?$char_traits@D@std@@V?$allocator@D@2@@std@@QEAAAEAV12@AEBV12@@Z 0000000000408c10 f i DocType.obj
 0001:00007c20       ?assign@?$basic_string@DU?$char_traits@D@std@@V?$allocator@D@2@@std@@QEAAAEAV12@AEBV12@_K1@Z 0000000000408c20 f i DocType.obj
 0001:00007d50       ?assign@?$basic_string@DU?$char_traits@D@std@@V?$allocator@D@2@@std@@QEAAAEAV12@PEBD@Z 0000000000408d50 f i DocType.obj
 0001:00007d70       ?assign@?$basic_string@DU?$char_traits@D@std@@V?$allocator@D@2@@std@@QEAAAEAV12@PEBD_K@Z 0000000000408d70 f i DocType.obj
 0001:00007ea0       ?assign@?$basic_string@DU?$char_traits@D@std@@V?$allocator@D@2@@std@@QEAAAEAV12@_KD@Z 0000000000408ea0 f i DocType.obj
 0001:00007fa0       ?assign@?$char_traits@D@std@@SAPEADPEAD_KD@Z 0000000000408fa0 f i DocType.obj
 0001:00007fd0       ?assign@?$char_traits@D@std@@SAXAEADAEBD@Z 0000000000408fd0 f i DocType.obj
 0001:00007fe0       ?assignPtrWithQIOwnership@?$AutoPtr@VIOutputConsoleService@Service@FlashApplication@@@FCM@@AEAAXAEAPEAVIOutputConsoleService@Service@FlashApplication@@PEAVIFCMUnknown@2@@Z 0000000000408fe0 f i DocType.obj
 0001:00008060       ?begin@?$_Tree@V?$_Tmap_traits@V?$basic_string@DU?$char_traits@D@std@@V?$allocator@D@2@@std@@PEAVFeature@AwayJS@@U?$less@V?$basic_string@DU?$char_traits@D@std@@V?$allocator@D@2@@std@@@2@V?$allocator@U?$pair@$$CBV?$basic_string@DU?$char_traits@D@std@@V?$allocator@D@2@@std@@PEAVFeature@AwayJS@@@std@@@2@$0A@@std@@@std@@QEAA?AV?$_Tree_iterator@V?$_Tree_val@U?$_Tree_simple_types@U?$pair@$$CBV?$basic_string@DU?$char_traits@D@std@@V?$allocator@D@2@@std@@PEAVFeature@AwayJS@@@std@@@std@@@std@@@2@XZ 0000000000409060 f i DocType.obj
 0001:00008070       ?begin@?$_Tree@V?$_Tmap_traits@V?$basic_string@DU?$char_traits@D@std@@V?$allocator@D@2@@std@@PEAVProperty@AwayJS@@U?$less@V?$basic_string@DU?$char_traits@D@std@@V?$allocator@D@2@@std@@@2@V?$allocator@U?$pair@$$CBV?$basic_string@DU?$char_traits@D@std@@V?$allocator@D@2@@std@@PEAVProperty@AwayJS@@@std@@@2@$0A@@std@@@std@@QEAA?AV?$_Tree_iterator@V?$_Tree_val@U?$_Tree_simple_types@U?$pair@$$CBV?$basic_string@DU?$char_traits@D@std@@V?$allocator@D@2@@std@@PEAVProperty@AwayJS@@@std@@@std@@@std@@@2@XZ 0000000000409070 f i DocType.obj
 0001:00008080       ?begin@?$_Tree@V?$_Tmap_traits@V?$basic_string@DU?$char_traits@D@std@@V?$allocator@D@2@@std@@PEAVValue@AwayJS@@U?$less@V?$basic_string@DU?$char_traits@D@std@@V?$allocator@D@2@@std@@@2@V?$allocator@U?$pair@$$CBV?$basic_string@DU?$char_traits@D@std@@V?$allocator@D@2@@std@@PEAVValue@AwayJS@@@std@@@2@$0A@@std@@@std@@QEAA?AV?$_Tree_iterator@V?$_Tree_val@U?$_Tree_simple_types@U?$pair@$$CBV?$basic_string@DU?$char_traits@D@std@@V?$allocator@D@2@@std@@PEAVValue@AwayJS@@@std@@@std@@@std@@@2@XZ 0000000000409080 f i DocType.obj
 0001:00008090       ?begin@?$basic_string@DU?$char_traits@D@std@@V?$allocator@D@2@@std@@QEAA?AV?$_String_iterator@V?$_String_val@U?$_Simple_types@D@std@@@std@@@2@XZ 0000000000409090 f i DocType.obj
 0001:000080b0       ?c_str@?$basic_string@DU?$char_traits@D@std@@V?$allocator@D@2@@std@@QEBAPEBDXZ 00000000004090b0 f i DocType.obj
 0001:000080c0       ?category@error_code@std@@QEBAAEBVerror_category@2@XZ 00000000004090c0 f i DocType.obj
 0001:000080d0       ?category@error_condition@std@@QEBAAEBVerror_category@2@XZ 00000000004090d0 f i DocType.obj
 0001:000080e0       ?clear@?$_Tree@V?$_Tmap_traits@V?$basic_string@DU?$char_traits@D@std@@V?$allocator@D@2@@std@@PEAVFeature@AwayJS@@U?$less@V?$basic_string@DU?$char_traits@D@std@@V?$allocator@D@2@@std@@@2@V?$allocator@U?$pair@$$CBV?$basic_string@DU?$char_traits@D@std@@V?$allocator@D@2@@std@@PEAVFeature@AwayJS@@@std@@@2@$0A@@std@@@std@@QEAAXXZ 00000000004090e0 f i DocType.obj
 0001:00008120       ?clear@?$_Tree@V?$_Tmap_traits@V?$basic_string@DU?$char_traits@D@std@@V?$allocator@D@2@@std@@PEAVProperty@AwayJS@@U?$less@V?$basic_string@DU?$char_traits@D@std@@V?$allocator@D@2@@std@@@2@V?$allocator@U?$pair@$$CBV?$basic_string@DU?$char_traits@D@std@@V?$allocator@D@2@@std@@PEAVProperty@AwayJS@@@std@@@2@$0A@@std@@@std@@QEAAXXZ 0000000000409120 f i DocType.obj
 0001:00008160       ?clear@?$_Tree@V?$_Tmap_traits@V?$basic_string@DU?$char_traits@D@std@@V?$allocator@D@2@@std@@PEAVValue@AwayJS@@U?$less@V?$basic_string@DU?$char_traits@D@std@@V?$allocator@D@2@@std@@@2@V?$allocator@U?$pair@$$CBV?$basic_string@DU?$char_traits@D@std@@V?$allocator@D@2@@std@@PEAVValue@AwayJS@@@std@@@2@$0A@@std@@@std@@QEAAXXZ 0000000000409160 f i DocType.obj
 0001:000081a0       ?close@?$basic_filebuf@DU?$char_traits@D@std@@@std@@QEAAPEAV12@XZ 00000000004091a0 f i DocType.obj
 0001:00008230       ?close@?$basic_ifstream@DU?$char_traits@D@std@@@std@@QEAAXXZ 0000000000409230 f i DocType.obj
 0001:00008270       ?compare@?$basic_string@DU?$char_traits@D@std@@V?$allocator@D@2@@std@@QEBAHAEBV12@@Z 0000000000409270 f i DocType.obj
 0001:000082f0       ?compare@?$basic_string@DU?$char_traits@D@std@@V?$allocator@D@2@@std@@QEBAH_K0PEBD0@Z 00000000004092f0 f i DocType.obj
 0001:00008390       ?compare@?$char_traits@D@std@@SAHPEBD0_K@Z 0000000000409390 f i DocType.obj
 0001:000083a0       ?copy@?$char_traits@D@std@@SAPEADPEADPEBD_K@Z 00000000004093a0 f i DocType.obj
 0001:000083c0       ?deallocate@?$_Wrap_alloc@V?$allocator@D@std@@@std@@QEAAXPEAD_K@Z 00000000004093c0 f i DocType.obj
 0001:000083d0       ?deallocate@?$_Wrap_alloc@V?$allocator@U?$_Tree_node@U?$pair@$$CBV?$basic_string@DU?$char_traits@D@std@@V?$allocator@D@2@@std@@PEAVFeature@AwayJS@@@std@@PEAX@std@@@std@@@std@@QEAAXPEAU?$_Tree_node@U?$pair@$$CBV?$basic_string@DU?$char_traits@D@std@@V?$allocator@D@2@@std@@PEAVFeature@AwayJS@@@std@@PEAX@2@_K@Z 00000000004093d0 f i DocType.obj
 0001:000083e0       ?deallocate@?$_Wrap_alloc@V?$allocator@U?$_Tree_node@U?$pair@$$CBV?$basic_string@DU?$char_traits@D@std@@V?$allocator@D@2@@std@@PEAVProperty@AwayJS@@@std@@PEAX@std@@@std@@@std@@QEAAXPEAU?$_Tree_node@U?$pair@$$CBV?$basic_string@DU?$char_traits@D@std@@V?$allocator@D@2@@std@@PEAVProperty@AwayJS@@@std@@PEAX@2@_K@Z 00000000004093e0 f i DocType.obj
 0001:000083f0       ?deallocate@?$_Wrap_alloc@V?$allocator@U?$_Tree_node@U?$pair@$$CBV?$basic_string@DU?$char_traits@D@std@@V?$allocator@D@2@@std@@PEAVValue@AwayJS@@@std@@PEAX@std@@@std@@@std@@QEAAXPEAU?$_Tree_node@U?$pair@$$CBV?$basic_string@DU?$char_traits@D@std@@V?$allocator@D@2@@std@@PEAVValue@AwayJS@@@std@@PEAX@2@_K@Z 00000000004093f0 f i DocType.obj
 0001:00008400       ?deallocate@?$allocator@D@std@@QEAAXPEAD_K@Z 0000000000409400 f i DocType.obj
 0001:00008410       ?deallocate@?$allocator@U?$_Tree_node@U?$pair@$$CBV?$basic_string@DU?$char_traits@D@std@@V?$allocator@D@2@@std@@PEAVFeature@AwayJS@@@std@@PEAX@std@@@std@@QEAAXPEAU?$_Tree_node@U?$pair@$$CBV?$basic_string@DU?$char_traits@D@std@@V?$allocator@D@2@@std@@PEAVFeature@AwayJS@@@std@@PEAX@2@_K@Z 0000000000409410 f i DocType.obj
 0001:00008420       ?deallocate@?$allocator@U?$_Tree_node@U?$pair@$$CBV?$basic_string@DU?$char_traits@D@std@@V?$allocator@D@2@@std@@PEAVProperty@AwayJS@@@std@@PEAX@std@@@std@@QEAAXPEAU?$_Tree_node@U?$pair@$$CBV?$basic_string@DU?$char_traits@D@std@@V?$allocator@D@2@@std@@PEAVProperty@AwayJS@@@std@@PEAX@2@_K@Z 0000000000409420 f i DocType.obj
 0001:00008430       ?deallocate@?$allocator@U?$_Tree_node@U?$pair@$$CBV?$basic_string@DU?$char_traits@D@std@@V?$allocator@D@2@@std@@PEAVValue@AwayJS@@@std@@PEAX@std@@@std@@QEAAXPEAU?$_Tree_node@U?$pair@$$CBV?$basic_string@DU?$char_traits@D@std@@V?$allocator@D@2@@std@@PEAVValue@AwayJS@@@std@@PEAX@2@_K@Z 0000000000409430 f i DocType.obj
 0001:00008440       ?default_error_condition@_System_error_category@std@@UEBA?AVerror_condition@2@H@Z 0000000000409440 f i DocType.obj
 0001:00008480       ?default_error_condition@error_category@std@@UEBA?AVerror_condition@2@H@Z 0000000000409480 f i DocType.obj
 0001:00008490       ?empty@?$basic_string@DU?$char_traits@D@std@@V?$allocator@D@2@@std@@QEBA_NXZ 0000000000409490 f i DocType.obj
 0001:000084a0       ?end@?$_Tree@V?$_Tmap_traits@V?$basic_string@DU?$char_traits@D@std@@V?$allocator@D@2@@std@@PEAVFeature@AwayJS@@U?$less@V?$basic_string@DU?$char_traits@D@std@@V?$allocator@D@2@@std@@@2@V?$allocator@U?$pair@$$CBV?$basic_string@DU?$char_traits@D@std@@V?$allocator@D@2@@std@@PEAVFeature@AwayJS@@@std@@@2@$0A@@std@@@std@@QEAA?AV?$_Tree_iterator@V?$_Tree_val@U?$_Tree_simple_types@U?$pair@$$CBV?$basic_string@DU?$char_traits@D@std@@V?$allocator@D@2@@std@@PEAVFeature@AwayJS@@@std@@@std@@@std@@@2@XZ 00000000004094a0 f i DocType.obj
 0001:000084b0       ?end@?$_Tree@V?$_Tmap_traits@V?$basic_string@DU?$char_traits@D@std@@V?$allocator@D@2@@std@@PEAVProperty@AwayJS@@U?$less@V?$basic_string@DU?$char_traits@D@std@@V?$allocator@D@2@@std@@@2@V?$allocator@U?$pair@$$CBV?$basic_string@DU?$char_traits@D@std@@V?$allocator@D@2@@std@@PEAVProperty@AwayJS@@@std@@@2@$0A@@std@@@std@@QEAA?AV?$_Tree_iterator@V?$_Tree_val@U?$_Tree_simple_types@U?$pair@$$CBV?$basic_string@DU?$char_traits@D@std@@V?$allocator@D@2@@std@@PEAVProperty@AwayJS@@@std@@@std@@@std@@@2@XZ 00000000004094b0 f i DocType.obj
 0001:000084c0       ?end@?$_Tree@V?$_Tmap_traits@V?$basic_string@DU?$char_traits@D@std@@V?$allocator@D@2@@std@@PEAVValue@AwayJS@@U?$less@V?$basic_string@DU?$char_traits@D@std@@V?$allocator@D@2@@std@@@2@V?$allocator@U?$pair@$$CBV?$basic_string@DU?$char_traits@D@std@@V?$allocator@D@2@@std@@PEAVValue@AwayJS@@@std@@@2@$0A@@std@@@std@@QEAA?AV?$_Tree_iterator@V?$_Tree_val@U?$_Tree_simple_types@U?$pair@$$CBV?$basic_string@DU?$char_traits@D@std@@V?$allocator@D@2@@std@@PEAVValue@AwayJS@@@std@@@std@@@std@@@2@XZ 00000000004094c0 f i DocType.obj
 0001:000084d0       ?end@?$_Tree@V?$_Tmap_traits@V?$basic_string@DU?$char_traits@D@std@@V?$allocator@D@2@@std@@V12@U?$less@V?$basic_string@DU?$char_traits@D@std@@V?$allocator@D@2@@std@@@2@V?$allocator@U?$pair@$$CBV?$basic_string@DU?$char_traits@D@std@@V?$allocator@D@2@@std@@V12@@std@@@2@$0A@@std@@@std@@QEBA?AV?$_Tree_const_iterator@V?$_Tree_val@U?$_Tree_simple_types@U?$pair@$$CBV?$basic_string@DU?$char_traits@D@std@@V?$allocator@D@2@@std@@V12@@std@@@std@@@std@@@2@XZ 00000000004094d0 f i DocType.obj
 0001:000084e0       ?eof@?$char_traits@D@std@@SAHXZ 00000000004094e0 f i DocType.obj
 0001:000084f0       ?eq_int_type@?$char_traits@D@std@@SA_NAEBH0@Z 00000000004094f0 f i DocType.obj
 0001:00008500       ?equivalent@error_category@std@@UEBA_NAEBVerror_code@2@H@Z 0000000000409500 f i DocType.obj
 0001:00008520       ?equivalent@error_category@std@@UEBA_NHAEBVerror_condition@2@@Z 0000000000409520 f i DocType.obj
 0001:00008560       ?erase@?$_Tree@V?$_Tmap_traits@V?$basic_string@DU?$char_traits@D@std@@V?$allocator@D@2@@std@@PEAVFeature@AwayJS@@U?$less@V?$basic_string@DU?$char_traits@D@std@@V?$allocator@D@2@@std@@@2@V?$allocator@U?$pair@$$CBV?$basic_string@DU?$char_traits@D@std@@V?$allocator@D@2@@std@@PEAVFeature@AwayJS@@@std@@@2@$0A@@std@@@std@@QEAA?AV?$_Tree_iterator@V?$_Tree_val@U?$_Tree_simple_types@U?$pair@$$CBV?$basic_string@DU?$char_traits@D@std@@V?$allocator@D@2@@std@@PEAVFeature@AwayJS@@@std@@@std@@@std@@@2@V?$_Tree_const_iterator@V?$_Tree_val@U?$_Tree_simple_types@U?$pair@$$CBV?$basic_string@DU?$char_traits@D@std@@V?$allocator@D@2@@std@@PEAVFeature@AwayJS@@@std@@@std@@@std@@@2@0@Z 0000000000409560 f i DocType.obj
 0001:00008660       ?erase@?$_Tree@V?$_Tmap_traits@V?$basic_string@DU?$char_traits@D@std@@V?$allocator@D@2@@std@@PEAVFeature@AwayJS@@U?$less@V?$basic_string@DU?$char_traits@D@std@@V?$allocator@D@2@@std@@@2@V?$allocator@U?$pair@$$CBV?$basic_string@DU?$char_traits@D@std@@V?$allocator@D@2@@std@@PEAVFeature@AwayJS@@@std@@@2@$0A@@std@@@std@@QEAA?AV?$_Tree_iterator@V?$_Tree_val@U?$_Tree_simple_types@U?$pair@$$CBV?$basic_string@DU?$char_traits@D@std@@V?$allocator@D@2@@std@@PEAVFeature@AwayJS@@@std@@@std@@@std@@@2@V?$_Tree_const_iterator@V?$_Tree_val@U?$_Tree_simple_types@U?$pair@$$CBV?$basic_string@DU?$char_traits@D@std@@V?$allocator@D@2@@std@@PEAVFeature@AwayJS@@@std@@@std@@@std@@@2@@Z 0000000000409660 f i DocType.obj
 0001:000089d0       ?erase@?$_Tree@V?$_Tmap_traits@V?$basic_string@DU?$char_traits@D@std@@V?$allocator@D@2@@std@@PEAVProperty@AwayJS@@U?$less@V?$basic_string@DU?$char_traits@D@std@@V?$allocator@D@2@@std@@@2@V?$allocator@U?$pair@$$CBV?$basic_string@DU?$char_traits@D@std@@V?$allocator@D@2@@std@@PEAVProperty@AwayJS@@@std@@@2@$0A@@std@@@std@@QEAA?AV?$_Tree_iterator@V?$_Tree_val@U?$_Tree_simple_types@U?$pair@$$CBV?$basic_string@DU?$char_traits@D@std@@V?$allocator@D@2@@std@@PEAVProperty@AwayJS@@@std@@@std@@@std@@@2@V?$_Tree_const_iterator@V?$_Tree_val@U?$_Tree_simple_types@U?$pair@$$CBV?$basic_string@DU?$char_traits@D@std@@V?$allocator@D@2@@std@@PEAVProperty@AwayJS@@@std@@@std@@@std@@@2@0@Z 00000000004099d0 f i DocType.obj
 0001:00008ad0       ?erase@?$_Tree@V?$_Tmap_traits@V?$basic_string@DU?$char_traits@D@std@@V?$allocator@D@2@@std@@PEAVProperty@AwayJS@@U?$less@V?$basic_string@DU?$char_traits@D@std@@V?$allocator@D@2@@std@@@2@V?$allocator@U?$pair@$$CBV?$basic_string@DU?$char_traits@D@std@@V?$allocator@D@2@@std@@PEAVProperty@AwayJS@@@std@@@2@$0A@@std@@@std@@QEAA?AV?$_Tree_iterator@V?$_Tree_val@U?$_Tree_simple_types@U?$pair@$$CBV?$basic_string@DU?$char_traits@D@std@@V?$allocator@D@2@@std@@PEAVProperty@AwayJS@@@std@@@std@@@std@@@2@V?$_Tree_const_iterator@V?$_Tree_val@U?$_Tree_simple_types@U?$pair@$$CBV?$basic_string@DU?$char_traits@D@std@@V?$allocator@D@2@@std@@PEAVProperty@AwayJS@@@std@@@std@@@std@@@2@@Z 0000000000409ad0 f i DocType.obj
 0001:00008e40       ?erase@?$_Tree@V?$_Tmap_traits@V?$basic_string@DU?$char_traits@D@std@@V?$allocator@D@2@@std@@PEAVValue@AwayJS@@U?$less@V?$basic_string@DU?$char_traits@D@std@@V?$allocator@D@2@@std@@@2@V?$allocator@U?$pair@$$CBV?$basic_string@DU?$char_traits@D@std@@V?$allocator@D@2@@std@@PEAVValue@AwayJS@@@std@@@2@$0A@@std@@@std@@QEAA?AV?$_Tree_iterator@V?$_Tree_val@U?$_Tree_simple_types@U?$pair@$$CBV?$basic_string@DU?$char_traits@D@std@@V?$allocator@D@2@@std@@PEAVValue@AwayJS@@@std@@@std@@@std@@@2@V?$_Tree_const_iterator@V?$_Tree_val@U?$_Tree_simple_types@U?$pair@$$CBV?$basic_string@DU?$char_traits@D@std@@V?$allocator@D@2@@std@@PEAVValue@AwayJS@@@std@@@std@@@std@@@2@0@Z 0000000000409e40 f i DocType.obj
 0001:00008f40       ?erase@?$_Tree@V?$_Tmap_traits@V?$basic_string@DU?$char_traits@D@std@@V?$allocator@D@2@@std@@PEAVValue@AwayJS@@U?$less@V?$basic_string@DU?$char_traits@D@std@@V?$allocator@D@2@@std@@@2@V?$allocator@U?$pair@$$CBV?$basic_string@DU?$char_traits@D@std@@V?$allocator@D@2@@std@@PEAVValue@AwayJS@@@std@@@2@$0A@@std@@@std@@QEAA?AV?$_Tree_iterator@V?$_Tree_val@U?$_Tree_simple_types@U?$pair@$$CBV?$basic_string@DU?$char_traits@D@std@@V?$allocator@D@2@@std@@PEAVValue@AwayJS@@@std@@@std@@@std@@@2@V?$_Tree_const_iterator@V?$_Tree_val@U?$_Tree_simple_types@U?$pair@$$CBV?$basic_string@DU?$char_traits@D@std@@V?$allocator@D@2@@std@@PEAVValue@AwayJS@@@std@@@std@@@std@@@2@@Z 0000000000409f40 f i DocType.obj
 0001:000092b0       ?erase@?$basic_string@DU?$char_traits@D@std@@V?$allocator@D@2@@std@@QEAAAEAV12@_K0@Z 000000000040a2b0 f i DocType.obj
 0001:00009380       ?erase@?$basic_string@DU?$char_traits@D@std@@V?$allocator@D@2@@std@@QEAAAEAV12@_K@Z 000000000040a380 f i DocType.obj
 0001:000093c0       ?find@?$_Tree@V?$_Tmap_traits@V?$basic_string@DU?$char_traits@D@std@@V?$allocator@D@2@@std@@PEAVFeature@AwayJS@@U?$less@V?$basic_string@DU?$char_traits@D@std@@V?$allocator@D@2@@std@@@2@V?$allocator@U?$pair@$$CBV?$basic_string@DU?$char_traits@D@std@@V?$allocator@D@2@@std@@PEAVFeature@AwayJS@@@std@@@2@$0A@@std@@@std@@QEAA?AV?$_Tree_iterator@V?$_Tree_val@U?$_Tree_simple_types@U?$pair@$$CBV?$basic_string@DU?$char_traits@D@std@@V?$allocator@D@2@@std@@PEAVFeature@AwayJS@@@std@@@std@@@std@@@2@AEBV?$basic_string@DU?$char_traits@D@std@@V?$allocator@D@2@@2@@Z 000000000040a3c0 f i DocType.obj
 0001:00009430       ?find@?$_Tree@V?$_Tmap_traits@V?$basic_string@DU?$char_traits@D@std@@V?$allocator@D@2@@std@@PEAVProperty@AwayJS@@U?$less@V?$basic_string@DU?$char_traits@D@std@@V?$allocator@D@2@@std@@@2@V?$allocator@U?$pair@$$CBV?$basic_string@DU?$char_traits@D@std@@V?$allocator@D@2@@std@@PEAVProperty@AwayJS@@@std@@@2@$0A@@std@@@std@@QEAA?AV?$_Tree_iterator@V?$_Tree_val@U?$_Tree_simple_types@U?$pair@$$CBV?$basic_string@DU?$char_traits@D@std@@V?$allocator@D@2@@std@@PEAVProperty@AwayJS@@@std@@@std@@@std@@@2@AEBV?$basic_string@DU?$char_traits@D@std@@V?$allocator@D@2@@2@@Z 000000000040a430 f i DocType.obj
 0001:000094a0       ?find@?$_Tree@V?$_Tmap_traits@V?$basic_string@DU?$char_traits@D@std@@V?$allocator@D@2@@std@@PEAVValue@AwayJS@@U?$less@V?$basic_string@DU?$char_traits@D@std@@V?$allocator@D@2@@std@@@2@V?$allocator@U?$pair@$$CBV?$basic_string@DU?$char_traits@D@std@@V?$allocator@D@2@@std@@PEAVValue@AwayJS@@@std@@@2@$0A@@std@@@std@@QEAA?AV?$_Tree_iterator@V?$_Tree_val@U?$_Tree_simple_types@U?$pair@$$CBV?$basic_string@DU?$char_traits@D@std@@V?$allocator@D@2@@std@@PEAVValue@AwayJS@@@std@@@std@@@std@@@2@AEBV?$basic_string@DU?$char_traits@D@std@@V?$allocator@D@2@@2@@Z 000000000040a4a0 f i DocType.obj
 0001:00009510       ?find@?$_Tree@V?$_Tmap_traits@V?$basic_string@DU?$char_traits@D@std@@V?$allocator@D@2@@std@@V12@U?$less@V?$basic_string@DU?$char_traits@D@std@@V?$allocator@D@2@@std@@@2@V?$allocator@U?$pair@$$CBV?$basic_string@DU?$char_traits@D@std@@V?$allocator@D@2@@std@@V12@@std@@@2@$0A@@std@@@std@@QEBA?AV?$_Tree_const_iterator@V?$_Tree_val@U?$_Tree_simple_types@U?$pair@$$CBV?$basic_string@DU?$char_traits@D@std@@V?$allocator@D@2@@std@@V12@@std@@@std@@@std@@@2@AEBV?$basic_string@DU?$char_traits@D@std@@V?$allocator@D@2@@2@@Z 000000000040a510 f i DocType.obj
 0001:00009580       ?generic_category@std@@YAAEBVerror_category@1@XZ 000000000040a580 f i DocType.obj
 0001:00009590       ?imbue@?$basic_filebuf@DU?$char_traits@D@std@@@std@@MEAAXAEBVlocale@2@@Z 000000000040a590 f i DocType.obj
 0001:000095e0       ?length@?$basic_string@DU?$char_traits@D@std@@V?$allocator@D@2@@std@@QEBA_KXZ 000000000040a5e0 f i DocType.obj
 0001:000095f0       ?length@?$char_traits@D@std@@SA_KPEBD@Z 000000000040a5f0 f i DocType.obj
 0001:00009610       ?lower_bound@?$_Tree@V?$_Tmap_traits@V?$basic_string@DU?$char_traits@D@std@@V?$allocator@D@2@@std@@PEAVFeature@AwayJS@@U?$less@V?$basic_string@DU?$char_traits@D@std@@V?$allocator@D@2@@std@@@2@V?$allocator@U?$pair@$$CBV?$basic_string@DU?$char_traits@D@std@@V?$allocator@D@2@@std@@PEAVFeature@AwayJS@@@std@@@2@$0A@@std@@@std@@QEAA?AV?$_Tree_iterator@V?$_Tree_val@U?$_Tree_simple_types@U?$pair@$$CBV?$basic_string@DU?$char_traits@D@std@@V?$allocator@D@2@@std@@PEAVFeature@AwayJS@@@std@@@std@@@std@@@2@AEBV?$basic_string@DU?$char_traits@D@std@@V?$allocator@D@2@@2@@Z 000000000040a610 f i DocType.obj
 0001:00009630       ?lower_bound@?$_Tree@V?$_Tmap_traits@V?$basic_string@DU?$char_traits@D@std@@V?$allocator@D@2@@std@@PEAVProperty@AwayJS@@U?$less@V?$basic_string@DU?$char_traits@D@std@@V?$allocator@D@2@@std@@@2@V?$allocator@U?$pair@$$CBV?$basic_string@DU?$char_traits@D@std@@V?$allocator@D@2@@std@@PEAVProperty@AwayJS@@@std@@@2@$0A@@std@@@std@@QEAA?AV?$_Tree_iterator@V?$_Tree_val@U?$_Tree_simple_types@U?$pair@$$CBV?$basic_string@DU?$char_traits@D@std@@V?$allocator@D@2@@std@@PEAVProperty@AwayJS@@@std@@@std@@@std@@@2@AEBV?$basic_string@DU?$char_traits@D@std@@V?$allocator@D@2@@2@@Z 000000000040a630 f i DocType.obj
 0001:00009650       ?lower_bound@?$_Tree@V?$_Tmap_traits@V?$basic_string@DU?$char_traits@D@std@@V?$allocator@D@2@@std@@PEAVValue@AwayJS@@U?$less@V?$basic_string@DU?$char_traits@D@std@@V?$allocator@D@2@@std@@@2@V?$allocator@U?$pair@$$CBV?$basic_string@DU?$char_traits@D@std@@V?$allocator@D@2@@std@@PEAVValue@AwayJS@@@std@@@2@$0A@@std@@@std@@QEAA?AV?$_Tree_iterator@V?$_Tree_val@U?$_Tree_simple_types@U?$pair@$$CBV?$basic_string@DU?$char_traits@D@std@@V?$allocator@D@2@@std@@PEAVValue@AwayJS@@@std@@@std@@@std@@@2@AEBV?$basic_string@DU?$char_traits@D@std@@V?$allocator@D@2@@2@@Z 000000000040a650 f i DocType.obj
 0001:00009670       ?lower_bound@?$_Tree@V?$_Tmap_traits@V?$basic_string@DU?$char_traits@D@std@@V?$allocator@D@2@@std@@V12@U?$less@V?$basic_string@DU?$char_traits@D@std@@V?$allocator@D@2@@std@@@2@V?$allocator@U?$pair@$$CBV?$basic_string@DU?$char_traits@D@std@@V?$allocator@D@2@@std@@V12@@std@@@2@$0A@@std@@@std@@QEBA?AV?$_Tree_const_iterator@V?$_Tree_val@U?$_Tree_simple_types@U?$pair@$$CBV?$basic_string@DU?$char_traits@D@std@@V?$allocator@D@2@@std@@V12@@std@@@std@@@std@@@2@AEBV?$basic_string@DU?$char_traits@D@std@@V?$allocator@D@2@@2@@Z 000000000040a670 f i DocType.obj
 0001:00009690       ?max_size@?$_Tree@V?$_Tmap_traits@V?$basic_string@DU?$char_traits@D@std@@V?$allocator@D@2@@std@@PEAVFeature@AwayJS@@U?$less@V?$basic_string@DU?$char_traits@D@std@@V?$allocator@D@2@@std@@@2@V?$allocator@U?$pair@$$CBV?$basic_string@DU?$char_traits@D@std@@V?$allocator@D@2@@std@@PEAVFeature@AwayJS@@@std@@@2@$0A@@std@@@std@@QEBA_KXZ 000000000040a690 f i DocType.obj
 0001:000096a0       ?max_size@?$_Tree@V?$_Tmap_traits@V?$basic_string@DU?$char_traits@D@std@@V?$allocator@D@2@@std@@PEAVProperty@AwayJS@@U?$less@V?$basic_string@DU?$char_traits@D@std@@V?$allocator@D@2@@std@@@2@V?$allocator@U?$pair@$$CBV?$basic_string@DU?$char_traits@D@std@@V?$allocator@D@2@@std@@PEAVProperty@AwayJS@@@std@@@2@$0A@@std@@@std@@QEBA_KXZ 000000000040a6a0 f i DocType.obj
 0001:000096b0       ?max_size@?$_Tree@V?$_Tmap_traits@V?$basic_string@DU?$char_traits@D@std@@V?$allocator@D@2@@std@@PEAVValue@AwayJS@@U?$less@V?$basic_string@DU?$char_traits@D@std@@V?$allocator@D@2@@std@@@2@V?$allocator@U?$pair@$$CBV?$basic_string@DU?$char_traits@D@std@@V?$allocator@D@2@@std@@PEAVValue@AwayJS@@@std@@@2@$0A@@std@@@std@@QEBA_KXZ 000000000040a6b0 f i DocType.obj
 0001:000096c0       ?max_size@?$_Wrap_alloc@V?$allocator@D@std@@@std@@QEBA_KXZ 000000000040a6c0 f i DocType.obj
 0001:000096d0       ?max_size@?$_Wrap_alloc@V?$allocator@U?$_Tree_node@U?$pair@$$CBV?$basic_string@DU?$char_traits@D@std@@V?$allocator@D@2@@std@@PEAVFeature@AwayJS@@@std@@PEAX@std@@@std@@@std@@QEBA_KXZ 000000000040a6d0 f i DocType.obj
 0001:000096e0       ?max_size@?$_Wrap_alloc@V?$allocator@U?$_Tree_node@U?$pair@$$CBV?$basic_string@DU?$char_traits@D@std@@V?$allocator@D@2@@std@@PEAVProperty@AwayJS@@@std@@PEAX@std@@@std@@@std@@QEBA_KXZ 000000000040a6e0 f i DocType.obj
 0001:000096f0       ?max_size@?$_Wrap_alloc@V?$allocator@U?$_Tree_node@U?$pair@$$CBV?$basic_string@DU?$char_traits@D@std@@V?$allocator@D@2@@std@@PEAVValue@AwayJS@@@std@@PEAX@std@@@std@@@std@@QEBA_KXZ 000000000040a6f0 f i DocType.obj
 0001:00009700       ?max_size@?$allocator@D@std@@QEBA_KXZ 000000000040a700 f i DocType.obj
 0001:00009710       ?max_size@?$allocator@U?$_Tree_node@U?$pair@$$CBV?$basic_string@DU?$char_traits@D@std@@V?$allocator@D@2@@std@@PEAVFeature@AwayJS@@@std@@PEAX@std@@@std@@QEBA_KXZ 000000000040a710 f i DocType.obj
 0001:00009720       ?max_size@?$allocator@U?$_Tree_node@U?$pair@$$CBV?$basic_string@DU?$char_traits@D@std@@V?$allocator@D@2@@std@@PEAVProperty@AwayJS@@@std@@PEAX@std@@@std@@QEBA_KXZ 000000000040a720 f i DocType.obj
 0001:00009730       ?max_size@?$allocator@U?$_Tree_node@U?$pair@$$CBV?$basic_string@DU?$char_traits@D@std@@V?$allocator@D@2@@std@@PEAVValue@AwayJS@@@std@@PEAX@std@@@std@@QEBA_KXZ 000000000040a730 f i DocType.obj
 0001:00009740       ?max_size@?$allocator_traits@V?$allocator@D@std@@@std@@SA_KAEBV?$allocator@D@2@@Z 000000000040a740 f i DocType.obj
 0001:00009750       ?max_size@?$allocator_traits@V?$allocator@U?$_Tree_node@U?$pair@$$CBV?$basic_string@DU?$char_traits@D@std@@V?$allocator@D@2@@std@@PEAVFeature@AwayJS@@@std@@PEAX@std@@@std@@@std@@SA_KAEBV?$allocator@U?$_Tree_node@U?$pair@$$CBV?$basic_string@DU?$char_traits@D@std@@V?$allocator@D@2@@std@@PEAVFeature@AwayJS@@@std@@PEAX@std@@@2@@Z 000000000040a750 f i DocType.obj
 0001:00009760       ?max_size@?$allocator_traits@V?$allocator@U?$_Tree_node@U?$pair@$$CBV?$basic_string@DU?$char_traits@D@std@@V?$allocator@D@2@@std@@PEAVProperty@AwayJS@@@std@@PEAX@std@@@std@@@std@@SA_KAEBV?$allocator@U?$_Tree_node@U?$pair@$$CBV?$basic_string@DU?$char_traits@D@std@@V?$allocator@D@2@@std@@PEAVProperty@AwayJS@@@std@@PEAX@std@@@2@@Z 000000000040a760 f i DocType.obj
 0001:00009770       ?max_size@?$allocator_traits@V?$allocator@U?$_Tree_node@U?$pair@$$CBV?$basic_string@DU?$char_traits@D@std@@V?$allocator@D@2@@std@@PEAVValue@AwayJS@@@std@@PEAX@std@@@std@@@std@@SA_KAEBV?$allocator@U?$_Tree_node@U?$pair@$$CBV?$basic_string@DU?$char_traits@D@std@@V?$allocator@D@2@@std@@PEAVValue@AwayJS@@@std@@PEAX@std@@@2@@Z 000000000040a770 f i DocType.obj
 0001:00009780       ?max_size@?$basic_string@DU?$char_traits@D@std@@V?$allocator@D@2@@std@@QEBA_KXZ 000000000040a780 f i DocType.obj
 0001:00009790       ?message@_Generic_error_category@std@@UEBA?AV?$basic_string@DU?$char_traits@D@std@@V?$allocator@D@2@@2@H@Z 000000000040a790 f i DocType.obj
 0001:00009800       ?message@_Iostream_error_category@std@@UEBA?AV?$basic_string@DU?$char_traits@D@std@@V?$allocator@D@2@@2@H@Z 000000000040a800 f i DocType.obj
 0001:00009850       ?message@_System_error_category@std@@UEBA?AV?$basic_string@DU?$char_traits@D@std@@V?$allocator@D@2@@2@H@Z 000000000040a850 f i DocType.obj
 0001:000098c0       ?move@?$char_traits@D@std@@SAPEADPEADPEBD_K@Z 000000000040a8c0 f i DocType.obj
 0001:000098d0       ?name@_Generic_error_category@std@@UEBAPEBDXZ 000000000040a8d0 f i DocType.obj
 0001:000098e0       ?name@_Iostream_error_category@std@@UEBAPEBDXZ 000000000040a8e0 f i DocType.obj
 0001:000098f0       ?name@_System_error_category@std@@UEBAPEBDXZ 000000000040a8f0 f i DocType.obj
 0001:00009900       ?not_eof@?$char_traits@D@std@@SAHAEBH@Z 000000000040a900 f i DocType.obj
 0001:00009910       ?open@?$basic_filebuf@DU?$char_traits@D@std@@@std@@QEAAPEAV12@PEBDHH@Z 000000000040a910 f i DocType.obj
 0001:00009a20       ?overflow@?$basic_filebuf@DU?$char_traits@D@std@@@std@@MEAAHH@Z 000000000040aa20 f i DocType.obj
 0001:00009d20       ?pbackfail@?$basic_filebuf@DU?$char_traits@D@std@@@std@@MEAAHH@Z 000000000040ad20 f i DocType.obj
 0001:00009dd0       ?pointer_to@?$pointer_traits@PEAU?$pair@$$CBV?$basic_string@DU?$char_traits@D@std@@V?$allocator@D@2@@std@@PEAVFeature@AwayJS@@@std@@@std@@SAPEAU?$pair@$$CBV?$basic_string@DU?$char_traits@D@std@@V?$allocator@D@2@@std@@PEAVFeature@AwayJS@@@2@AEAU32@@Z 000000000040add0 f i DocType.obj
 0001:00009de0       ?pointer_to@?$pointer_traits@PEAU?$pair@$$CBV?$basic_string@DU?$char_traits@D@std@@V?$allocator@D@2@@std@@PEAVProperty@AwayJS@@@std@@@std@@SAPEAU?$pair@$$CBV?$basic_string@DU?$char_traits@D@std@@V?$allocator@D@2@@std@@PEAVProperty@AwayJS@@@2@AEAU32@@Z 000000000040ade0 f i DocType.obj
 0001:00009df0       ?pointer_to@?$pointer_traits@PEAU?$pair@$$CBV?$basic_string@DU?$char_traits@D@std@@V?$allocator@D@2@@std@@PEAVValue@AwayJS@@@std@@@std@@SAPEAU?$pair@$$CBV?$basic_string@DU?$char_traits@D@std@@V?$allocator@D@2@@std@@PEAVValue@AwayJS@@@2@AEAU32@@Z 000000000040adf0 f i DocType.obj
 0001:00009e00       ?pointer_to@?$pointer_traits@PEBU?$pair@$$CBV?$basic_string@DU?$char_traits@D@std@@V?$allocator@D@2@@std@@V12@@std@@@std@@SAPEBU?$pair@$$CBV?$basic_string@DU?$char_traits@D@std@@V?$allocator@D@2@@std@@V12@@2@AEBU32@@Z 000000000040ae00 f i DocType.obj
 0001:00009e10       ?seekoff@?$basic_filebuf@DU?$char_traits@D@std@@@std@@MEAA?AV?$fpos@H@2@_JHH@Z 000000000040ae10 f i DocType.obj
 0001:00009f00       ?seekpos@?$basic_filebuf@DU?$char_traits@D@std@@@std@@MEAA?AV?$fpos@H@2@V32@H@Z 000000000040af00 f i DocType.obj
 0001:00009fe0       ?seekpos@?$fpos@H@std@@QEBA_JXZ 000000000040afe0 f i DocType.obj
 0001:00009ff0       ?select_on_container_copy_construction@?$_Wrap_alloc@V?$allocator@D@std@@@std@@QEBA?AU12@XZ 000000000040aff0 f i DocType.obj
 0001:0000a000       ?select_on_container_copy_construction@?$allocator@D@std@@QEBA?AV12@XZ 000000000040b000 f i DocType.obj
 0001:0000a010       ?select_on_container_copy_construction@?$allocator_traits@V?$allocator@D@std@@@std@@SA?AV?$allocator@D@2@AEBV32@@Z 000000000040b010 f i DocType.obj
 0001:0000a020       ?setbuf@?$basic_filebuf@DU?$char_traits@D@std@@@std@@MEAAPEAV?$basic_streambuf@DU?$char_traits@D@std@@@2@PEAD_J@Z 000000000040b020 f i DocType.obj
 0001:0000a0e0       ?size@?$basic_string@DU?$char_traits@D@std@@V?$allocator@D@2@@std@@QEBA_KXZ 000000000040b0e0 f i DocType.obj
 0001:0000a0f0       ?state@?$fpos@H@std@@QEBAHXZ 000000000040b0f0 f i DocType.obj
 0001:0000a100       ?sync@?$basic_filebuf@DU?$char_traits@D@std@@@std@@MEAAHXZ 000000000040b100 f i DocType.obj
 0001:0000a150       ?system_category@std@@YAAEBVerror_category@1@XZ 000000000040b150 f i DocType.obj
 0001:0000a160       ?to_char_type@?$char_traits@D@std@@SADAEBH@Z 000000000040b160 f i DocType.obj
 0001:0000a170       ?to_int_type@?$char_traits@D@std@@SAHAEBD@Z 000000000040b170 f i DocType.obj
 0001:0000a180       ?uflow@?$basic_filebuf@DU?$char_traits@D@std@@@std@@MEAAHXZ 000000000040b180 f i DocType.obj
 0001:0000a480       ?underflow@?$basic_filebuf@DU?$char_traits@D@std@@@std@@MEAAHXZ 000000000040b480 f i DocType.obj
 0001:0000a4f0       ?value@error_code@std@@QEBAHXZ 000000000040b4f0 f i DocType.obj
 0001:0000a500       ?value@error_condition@std@@QEBAHXZ 000000000040b500 f i DocType.obj
 0001:0000a510       ??$?0VIFCMPluginDictionary@FCM@@@?$AutoPtr@VIFCMDictionary@FCM@@@FCM@@QEAA@PEAVIFCMPluginDictionary@1@@Z 000000000040b510 f i Main.obj
 0001:0000a550       ??$?4VIFCMUnknown@FCM@@@?$AutoPtr@VIFCMCalloc@FCM@@@FCM@@QEAAXAEBV?$AutoPtr@VIFCMUnknown@FCM@@@1@@Z 000000000040b550 f i Main.obj
 0001:0000a590       ??$IsSameUnknown@VIFCMPluginDictionary@FCM@@@?$AutoPtr@VIFCMDictionary@FCM@@@FCM@@QEAA_NPEAVIFCMPluginDictionary@1@@Z 000000000040b590 f i Main.obj
 0001:0000a6a0       ??$IsSameUnknown@VIFCMUnknown@FCM@@@?$AutoPtr@VIFCMCalloc@FCM@@@FCM@@QEAA_NPEAVIFCMUnknown@1@@Z 000000000040b6a0 f i Main.obj
 0001:0000a7b0       ??0?$AutoPtr@VIFCMCalloc@FCM@@@FCM@@QEAA@XZ 000000000040b7b0 f i Main.obj
 0001:0000a7c0       ??0?$FCMClassFactory@VCDocType@AwayJS@@@FCM@@QEAA@XZ 000000000040b7c0 f i Main.obj
 0001:0000a7d0       ??0?$FCMClassFactory@VCPublisher@AwayJS@@@FCM@@QEAA@XZ 000000000040b7d0 f i Main.obj
 0001:0000a7e0       ??0?$FCMClassFactory@VFeatureMatrix@AwayJS@@@FCM@@QEAA@XZ 000000000040b7e0 f i Main.obj
 0001:0000a7f0       ??0?$FCMClassFactory@VResourcePalette@AwayJS@@@FCM@@QEAA@XZ 000000000040b7f0 f i Main.obj
 0001:0000a800       ??0?$FCMClassFactory@VTimelineBuilder@AwayJS@@@FCM@@QEAA@XZ 000000000040b800 f i Main.obj
 0001:0000a810       ??0?$FCMClassFactory@VTimelineBuilderFactory@AwayJS@@@FCM@@QEAA@XZ 000000000040b810 f i Main.obj
 0001:0000a820       ??0?$FCMObject@V?$FCMClassFactory@VCDocType@AwayJS@@@FCM@@@FCM@@QEAA@PEAVFCMPluginModule@1@@Z 000000000040b820 f i Main.obj
 0001:0000a850       ??0?$FCMObject@V?$FCMClassFactory@VCPublisher@AwayJS@@@FCM@@@FCM@@QEAA@PEAVFCMPluginModule@1@@Z 000000000040b850 f i Main.obj
 0001:0000a880       ??0?$FCMObject@V?$FCMClassFactory@VFeatureMatrix@AwayJS@@@FCM@@@FCM@@QEAA@PEAVFCMPluginModule@1@@Z 000000000040b880 f i Main.obj
 0001:0000a8b0       ??0?$FCMObject@V?$FCMClassFactory@VResourcePalette@AwayJS@@@FCM@@@FCM@@QEAA@PEAVFCMPluginModule@1@@Z 000000000040b8b0 f i Main.obj
 0001:0000a8e0       ??0?$FCMObject@V?$FCMClassFactory@VTimelineBuilder@AwayJS@@@FCM@@@FCM@@QEAA@PEAVFCMPluginModule@1@@Z 000000000040b8e0 f i Main.obj
 0001:0000a910       ??0?$FCMObject@V?$FCMClassFactory@VTimelineBuilderFactory@AwayJS@@@FCM@@@FCM@@QEAA@PEAVFCMPluginModule@1@@Z 000000000040b910 f i Main.obj
 0001:0000a940       ??0?$FCMObject@VCDocType@AwayJS@@@FCM@@QEAA@PEAVFCMPluginModule@1@@Z 000000000040b940 f i Main.obj
 0001:0000a990       ??0?$FCMObject@VCPublisher@AwayJS@@@FCM@@QEAA@PEAVFCMPluginModule@1@@Z 000000000040b990 f i Main.obj
 0001:0000a9e0       ??0?$FCMObject@VFeatureMatrix@AwayJS@@@FCM@@QEAA@PEAVFCMPluginModule@1@@Z 000000000040b9e0 f i Main.obj
 0001:0000aa30       ??0?$FCMObject@VResourcePalette@AwayJS@@@FCM@@QEAA@PEAVFCMPluginModule@1@@Z 000000000040ba30 f i Main.obj
 0001:0000aa80       ??0?$FCMObject@VTimelineBuilder@AwayJS@@@FCM@@QEAA@PEAVFCMPluginModule@1@@Z 000000000040ba80 f i Main.obj
 0001:0000aad0       ??0?$FCMObject@VTimelineBuilderFactory@AwayJS@@@FCM@@QEAA@PEAVFCMPluginModule@1@@Z 000000000040bad0 f i Main.obj
 0001:0000ab20       ??0AwayJSModule@AwayJS@@QEAA@XZ 000000000040bb20 f i Main.obj
 0001:0000ab80       ??0FCMPluginModule@FCM@@IEAA@XZ 000000000040bb80 f i Main.obj
 0001:0000abe0       ??0IFCMClassFactory@FCM@@QEAA@XZ 000000000040bbe0 f i Main.obj
 0001:0000abf0       ??0IFCMNoAggregationUnknown@FCM@@QEAA@XZ 000000000040bbf0 f i Main.obj
 0001:0000ac00       ??1?$FCMObject@V?$FCMClassFactory@VCDocType@AwayJS@@@FCM@@@FCM@@UEAA@XZ 000000000040bc00 f i Main.obj
 0001:0000ac20       ??1?$FCMObject@V?$FCMClassFactory@VCPublisher@AwayJS@@@FCM@@@FCM@@UEAA@XZ 000000000040bc20 f i Main.obj
 0001:0000ac40       ??1?$FCMObject@V?$FCMClassFactory@VFeatureMatrix@AwayJS@@@FCM@@@FCM@@UEAA@XZ 000000000040bc40 f i Main.obj
 0001:0000ac60       ??1?$FCMObject@V?$FCMClassFactory@VResourcePalette@AwayJS@@@FCM@@@FCM@@UEAA@XZ 000000000040bc60 f i Main.obj
 0001:0000ac80       ??1?$FCMObject@V?$FCMClassFactory@VTimelineBuilder@AwayJS@@@FCM@@@FCM@@UEAA@XZ 000000000040bc80 f i Main.obj
 0001:0000aca0       ??1?$FCMObject@V?$FCMClassFactory@VTimelineBuilderFactory@AwayJS@@@FCM@@@FCM@@UEAA@XZ 000000000040bca0 f i Main.obj
 0001:0000acc0       ??1?$FCMObject@VCDocType@AwayJS@@@FCM@@UEAA@XZ 000000000040bcc0 f i Main.obj
 0001:0000acf0       ??1?$FCMObject@VCPublisher@AwayJS@@@FCM@@UEAA@XZ 000000000040bcf0 f i Main.obj
 0001:0000ad20       ??1?$FCMObject@VFeatureMatrix@AwayJS@@@FCM@@UEAA@XZ 000000000040bd20 f i Main.obj
 0001:0000ad50       ??1?$FCMObject@VResourcePalette@AwayJS@@@FCM@@UEAA@XZ 000000000040bd50 f i Main.obj
 0001:0000ad80       ??1?$FCMObject@VTimelineBuilder@AwayJS@@@FCM@@UEAA@XZ 000000000040bd80 f i Main.obj
 0001:0000adb0       ??1?$FCMObject@VTimelineBuilderFactory@AwayJS@@@FCM@@UEAA@XZ 000000000040bdb0 f i Main.obj
 0001:0000ade0       ??1AwayJSModule@AwayJS@@UEAA@XZ 000000000040bde0 f i Main.obj
 0001:0000ae10       ??1FCMPluginModule@FCM@@MEAA@XZ 000000000040be10 f i Main.obj
 0001:0000ae40       ??4?$AutoPtr@VIFCMCalloc@FCM@@@FCM@@QEAAXPEAVIFCMCalloc@1@@Z 000000000040be40 f i Main.obj
 0001:0000ae90       ??8FCM@@YA_NAEBUFCMGUID@0@0@Z 000000000040be90 f i Main.obj
 0001:0000aec0       ??9FCM@@YA_NAEBUFCMGUID@0@0@Z 000000000040bec0 f i Main.obj
 0001:0000af00       ??B?$AutoPtr@VIFCMCalloc@FCM@@@FCM@@QEBA_NXZ 000000000040bf00 f i Main.obj
 0001:0000af10       ??B?$AutoPtr@VIFCMDictionary@FCM@@@FCM@@QEBAPEAVIFCMDictionary@1@XZ 000000000040bf10 f i Main.obj
 0001:0000af20       ??_E?$FCMObject@V?$FCMClassFactory@VCDocType@AwayJS@@@FCM@@@FCM@@UEAAPEAXI@Z 000000000040bf20 f i Main.obj
 0001:0000af20       ??_G?$FCMObject@V?$FCMClassFactory@VCDocType@AwayJS@@@FCM@@@FCM@@UEAAPEAXI@Z 000000000040bf20 f i Main.obj
 0001:0000af60       ??_G?$FCMObject@V?$FCMClassFactory@VCPublisher@AwayJS@@@FCM@@@FCM@@UEAAPEAXI@Z 000000000040bf60 f i Main.obj
 0001:0000af60       ??_E?$FCMObject@V?$FCMClassFactory@VCPublisher@AwayJS@@@FCM@@@FCM@@UEAAPEAXI@Z 000000000040bf60 f i Main.obj
 0001:0000afa0       ??_E?$FCMObject@V?$FCMClassFactory@VFeatureMatrix@AwayJS@@@FCM@@@FCM@@UEAAPEAXI@Z 000000000040bfa0 f i Main.obj
 0001:0000afa0       ??_G?$FCMObject@V?$FCMClassFactory@VFeatureMatrix@AwayJS@@@FCM@@@FCM@@UEAAPEAXI@Z 000000000040bfa0 f i Main.obj
 0001:0000afe0       ??_G?$FCMObject@V?$FCMClassFactory@VResourcePalette@AwayJS@@@FCM@@@FCM@@UEAAPEAXI@Z 000000000040bfe0 f i Main.obj
 0001:0000afe0       ??_E?$FCMObject@V?$FCMClassFactory@VResourcePalette@AwayJS@@@FCM@@@FCM@@UEAAPEAXI@Z 000000000040bfe0 f i Main.obj
 0001:0000b020       ??_E?$FCMObject@V?$FCMClassFactory@VTimelineBuilder@AwayJS@@@FCM@@@FCM@@UEAAPEAXI@Z 000000000040c020 f i Main.obj
 0001:0000b020       ??_G?$FCMObject@V?$FCMClassFactory@VTimelineBuilder@AwayJS@@@FCM@@@FCM@@UEAAPEAXI@Z 000000000040c020 f i Main.obj
 0001:0000b060       ??_G?$FCMObject@V?$FCMClassFactory@VTimelineBuilderFactory@AwayJS@@@FCM@@@FCM@@UEAAPEAXI@Z 000000000040c060 f i Main.obj
 0001:0000b060       ??_E?$FCMObject@V?$FCMClassFactory@VTimelineBuilderFactory@AwayJS@@@FCM@@@FCM@@UEAAPEAXI@Z 000000000040c060 f i Main.obj
 0001:0000b0a0       ??_G?$FCMObject@VCDocType@AwayJS@@@FCM@@UEAAPEAXI@Z 000000000040c0a0 f i Main.obj
 0001:0000b0a0       ??_E?$FCMObject@VCDocType@AwayJS@@@FCM@@UEAAPEAXI@Z 000000000040c0a0 f i Main.obj
 0001:0000b0f0       ??_E?$FCMObject@VCPublisher@AwayJS@@@FCM@@UEAAPEAXI@Z 000000000040c0f0 f i Main.obj
 0001:0000b0f0       ??_G?$FCMObject@VCPublisher@AwayJS@@@FCM@@UEAAPEAXI@Z 000000000040c0f0 f i Main.obj
 0001:0000b140       ??_E?$FCMObject@VFeatureMatrix@AwayJS@@@FCM@@UEAAPEAXI@Z 000000000040c140 f i Main.obj
 0001:0000b140       ??_G?$FCMObject@VFeatureMatrix@AwayJS@@@FCM@@UEAAPEAXI@Z 000000000040c140 f i Main.obj
 0001:0000b190       ??_E?$FCMObject@VResourcePalette@AwayJS@@@FCM@@UEAAPEAXI@Z 000000000040c190 f i Main.obj
 0001:0000b190       ??_G?$FCMObject@VResourcePalette@AwayJS@@@FCM@@UEAAPEAXI@Z 000000000040c190 f i Main.obj
 0001:0000b1e0       ??_E?$FCMObject@VTimelineBuilder@AwayJS@@@FCM@@UEAAPEAXI@Z 000000000040c1e0 f i Main.obj
 0001:0000b1e0       ??_G?$FCMObject@VTimelineBuilder@AwayJS@@@FCM@@UEAAPEAXI@Z 000000000040c1e0 f i Main.obj
 0001:0000b230       ??_G?$FCMObject@VTimelineBuilderFactory@AwayJS@@@FCM@@UEAAPEAXI@Z 000000000040c230 f i Main.obj
 0001:0000b230       ??_E?$FCMObject@VTimelineBuilderFactory@AwayJS@@@FCM@@UEAAPEAXI@Z 000000000040c230 f i Main.obj
 0001:0000b280       ??_EAwayJSModule@AwayJS@@UEAAPEAXI@Z 000000000040c280 f i Main.obj
 0001:0000b280       ??_GAwayJSModule@AwayJS@@UEAAPEAXI@Z 000000000040c280 f i Main.obj
 0001:0000b2d0       ??_GFCMPluginModule@FCM@@MEAAPEAXI@Z 000000000040c2d0 f i Main.obj
 0001:0000b2d0       ??_EFCMPluginModule@FCM@@MEAAPEAXI@Z 000000000040c2d0 f i Main.obj
 0001:0000b320       ?AddRef@?$FCMObject@V?$FCMClassFactory@VCDocType@AwayJS@@@FCM@@@FCM@@UEAAIXZ 000000000040c320 f i Main.obj
 0001:0000b330       ?AddRef@?$FCMObject@V?$FCMClassFactory@VCPublisher@AwayJS@@@FCM@@@FCM@@UEAAIXZ 000000000040c330 f i Main.obj
 0001:0000b340       ?AddRef@?$FCMObject@V?$FCMClassFactory@VFeatureMatrix@AwayJS@@@FCM@@@FCM@@UEAAIXZ 000000000040c340 f i Main.obj
 0001:0000b350       ?AddRef@?$FCMObject@V?$FCMClassFactory@VResourcePalette@AwayJS@@@FCM@@@FCM@@UEAAIXZ 000000000040c350 f i Main.obj
 0001:0000b360       ?AddRef@?$FCMObject@V?$FCMClassFactory@VTimelineBuilder@AwayJS@@@FCM@@@FCM@@UEAAIXZ 000000000040c360 f i Main.obj
 0001:0000b370       ?AddRef@?$FCMObject@V?$FCMClassFactory@VTimelineBuilderFactory@AwayJS@@@FCM@@@FCM@@UEAAIXZ 000000000040c370 f i Main.obj
 0001:0000b380       ?AddRef@?$FCMObject@VCDocType@AwayJS@@@FCM@@UEAAIXZ 000000000040c380 f i Main.obj
 0001:0000b390       ?AddRef@?$FCMObject@VCPublisher@AwayJS@@@FCM@@UEAAIXZ 000000000040c390 f i Main.obj
 0001:0000b3a0       ?AddRef@?$FCMObject@VFeatureMatrix@AwayJS@@@FCM@@UEAAIXZ 000000000040c3a0 f i Main.obj
 0001:0000b3b0       ?AddRef@?$FCMObject@VResourcePalette@AwayJS@@@FCM@@UEAAIXZ 000000000040c3b0 f i Main.obj
 0001:0000b3c0       ?AddRef@?$FCMObject@VTimelineBuilder@AwayJS@@@FCM@@UEAAIXZ 000000000040c3c0 f i Main.obj
 0001:0000b3d0       ?AddRef@?$FCMObject@VTimelineBuilderFactory@AwayJS@@@FCM@@UEAAIXZ 000000000040c3d0 f i Main.obj
 0001:0000b3e0       ?CreateInstance@?$FCMClassFactory@VCDocType@AwayJS@@@FCM@@UEAAIPEAVIFCMUnknown@2@PEAVIFCMCallback@2@AEBUFCMGUID@2@PEAPEAX@Z 000000000040c3e0 f i Main.obj
 0001:0000b500       ?CreateInstance@?$FCMClassFactory@VCPublisher@AwayJS@@@FCM@@UEAAIPEAVIFCMUnknown@2@PEAVIFCMCallback@2@AEBUFCMGUID@2@PEAPEAX@Z 000000000040c500 f i Main.obj
 0001:0000b620       ?CreateInstance@?$FCMClassFactory@VFeatureMatrix@AwayJS@@@FCM@@UEAAIPEAVIFCMUnknown@2@PEAVIFCMCallback@2@AEBUFCMGUID@2@PEAPEAX@Z 000000000040c620 f i Main.obj
 0001:0000b740       ?CreateInstance@?$FCMClassFactory@VResourcePalette@AwayJS@@@FCM@@UEAAIPEAVIFCMUnknown@2@PEAVIFCMCallback@2@AEBUFCMGUID@2@PEAPEAX@Z 000000000040c740 f i Main.obj
 0001:0000b860       ?CreateInstance@?$FCMClassFactory@VTimelineBuilder@AwayJS@@@FCM@@UEAAIPEAVIFCMUnknown@2@PEAVIFCMCallback@2@AEBUFCMGUID@2@PEAPEAX@Z 000000000040c860 f i Main.obj
 0001:0000b980       ?CreateInstance@?$FCMClassFactory@VTimelineBuilderFactory@AwayJS@@@FCM@@UEAAIPEAVIFCMUnknown@2@PEAVIFCMCallback@2@AEBUFCMGUID@2@PEAPEAX@Z 000000000040c980 f i Main.obj
 0001:0000baa0       ?CreateInstance@?$IntfImpl_Traits@V?$FCMObject@V?$FCMClassFactory@VCDocType@AwayJS@@@FCM@@@FCM@@@FCM@@SAIPEAVFCMPluginModule@2@PEAVIFCMCallback@2@PEAVIFCMUnknown@2@AEAPEAV?$FCMObject@V?$FCMClassFactory@VCDocType@AwayJS@@@FCM@@@2@@Z 000000000040caa0 f i Main.obj
 0001:0000bb40       ?CreateInstance@?$IntfImpl_Traits@V?$FCMObject@V?$FCMClassFactory@VCPublisher@AwayJS@@@FCM@@@FCM@@@FCM@@SAIPEAVFCMPluginModule@2@PEAVIFCMCallback@2@PEAVIFCMUnknown@2@AEAPEAV?$FCMObject@V?$FCMClassFactory@VCPublisher@AwayJS@@@FCM@@@2@@Z 000000000040cb40 f i Main.obj
 0001:0000bbe0       ?CreateInstance@?$IntfImpl_Traits@V?$FCMObject@V?$FCMClassFactory@VFeatureMatrix@AwayJS@@@FCM@@@FCM@@@FCM@@SAIPEAVFCMPluginModule@2@PEAVIFCMCallback@2@PEAVIFCMUnknown@2@AEAPEAV?$FCMObject@V?$FCMClassFactory@VFeatureMatrix@AwayJS@@@FCM@@@2@@Z 000000000040cbe0 f i Main.obj
 0001:0000bc80       ?CreateInstance@?$IntfImpl_Traits@V?$FCMObject@V?$FCMClassFactory@VResourcePalette@AwayJS@@@FCM@@@FCM@@@FCM@@SAIPEAVFCMPluginModule@2@PEAVIFCMCallback@2@PEAVIFCMUnknown@2@AEAPEAV?$FCMObject@V?$FCMClassFactory@VResourcePalette@AwayJS@@@FCM@@@2@@Z 000000000040cc80 f i Main.obj
 0001:0000bd20       ?CreateInstance@?$IntfImpl_Traits@V?$FCMObject@V?$FCMClassFactory@VTimelineBuilder@AwayJS@@@FCM@@@FCM@@@FCM@@SAIPEAVFCMPluginModule@2@PEAVIFCMCallback@2@PEAVIFCMUnknown@2@AEAPEAV?$FCMObject@V?$FCMClassFactory@VTimelineBuilder@AwayJS@@@FCM@@@2@@Z 000000000040cd20 f i Main.obj
 0001:0000bdc0       ?CreateInstance@?$IntfImpl_Traits@V?$FCMObject@V?$FCMClassFactory@VTimelineBuilderFactory@AwayJS@@@FCM@@@FCM@@@FCM@@SAIPEAVFCMPluginModule@2@PEAVIFCMCallback@2@PEAVIFCMUnknown@2@AEAPEAV?$FCMObject@V?$FCMClassFactory@VTimelineBuilderFactory@AwayJS@@@FCM@@@2@@Z 000000000040cdc0 f i Main.obj
 0001:0000be60       ?CreateInstance@?$IntfImpl_Traits@V?$FCMObject@VCDocType@AwayJS@@@FCM@@@FCM@@SAIPEAVFCMPluginModule@2@PEAVIFCMCallback@2@PEAVIFCMUnknown@2@AEAPEAV?$FCMObject@VCDocType@AwayJS@@@2@@Z 000000000040ce60 f i Main.obj
 0001:0000bf10       ?CreateInstance@?$IntfImpl_Traits@V?$FCMObject@VCPublisher@AwayJS@@@FCM@@@FCM@@SAIPEAVFCMPluginModule@2@PEAVIFCMCallback@2@PEAVIFCMUnknown@2@AEAPEAV?$FCMObject@VCPublisher@AwayJS@@@2@@Z 000000000040cf10 f i Main.obj
 0001:0000bfc0       ?CreateInstance@?$IntfImpl_Traits@V?$FCMObject@VFeatureMatrix@AwayJS@@@FCM@@@FCM@@SAIPEAVFCMPluginModule@2@PEAVIFCMCallback@2@PEAVIFCMUnknown@2@AEAPEAV?$FCMObject@VFeatureMatrix@AwayJS@@@2@@Z 000000000040cfc0 f i Main.obj
 0001:0000c070       ?CreateInstance@?$IntfImpl_Traits@V?$FCMObject@VResourcePalette@AwayJS@@@FCM@@@FCM@@SAIPEAVFCMPluginModule@2@PEAVIFCMCallback@2@PEAVIFCMUnknown@2@AEAPEAV?$FCMObject@VResourcePalette@AwayJS@@@2@@Z 000000000040d070 f i Main.obj
 0001:0000c120       ?CreateInstance@?$IntfImpl_Traits@V?$FCMObject@VTimelineBuilder@AwayJS@@@FCM@@@FCM@@SAIPEAVFCMPluginModule@2@PEAVIFCMCallback@2@PEAVIFCMUnknown@2@AEAPEAV?$FCMObject@VTimelineBuilder@AwayJS@@@2@@Z 000000000040d120 f i Main.obj
 0001:0000c1d0       ?CreateInstance@?$IntfImpl_Traits@V?$FCMObject@VTimelineBuilderFactory@AwayJS@@@FCM@@@FCM@@SAIPEAVFCMPluginModule@2@PEAVIFCMCallback@2@PEAVIFCMUnknown@2@AEAPEAV?$FCMObject@VTimelineBuilderFactory@AwayJS@@@2@@Z 000000000040d1d0 f i Main.obj
 0001:0000c280       ?FCMInit@?$FCMObject@V?$FCMClassFactory@VCDocType@AwayJS@@@FCM@@@FCM@@QEAAXPEAVIFCMCallback@2@PEAVIFCMUnknown@2@@Z 000000000040d280 f i Main.obj
 0001:0000c2a0       ?FCMInit@?$FCMObject@V?$FCMClassFactory@VCPublisher@AwayJS@@@FCM@@@FCM@@QEAAXPEAVIFCMCallback@2@PEAVIFCMUnknown@2@@Z 000000000040d2a0 f i Main.obj
 0001:0000c2c0       ?FCMInit@?$FCMObject@V?$FCMClassFactory@VFeatureMatrix@AwayJS@@@FCM@@@FCM@@QEAAXPEAVIFCMCallback@2@PEAVIFCMUnknown@2@@Z 000000000040d2c0 f i Main.obj
 0001:0000c2e0       ?FCMInit@?$FCMObject@V?$FCMClassFactory@VResourcePalette@AwayJS@@@FCM@@@FCM@@QEAAXPEAVIFCMCallback@2@PEAVIFCMUnknown@2@@Z 000000000040d2e0 f i Main.obj
 0001:0000c300       ?FCMInit@?$FCMObject@V?$FCMClassFactory@VTimelineBuilder@AwayJS@@@FCM@@@FCM@@QEAAXPEAVIFCMCallback@2@PEAVIFCMUnknown@2@@Z 000000000040d300 f i Main.obj
 0001:0000c320       ?FCMInit@?$FCMObject@V?$FCMClassFactory@VTimelineBuilderFactory@AwayJS@@@FCM@@@FCM@@QEAAXPEAVIFCMCallback@2@PEAVIFCMUnknown@2@@Z 000000000040d320 f i Main.obj
 0001:0000c340       ?FCMInit@?$FCMObject@VCDocType@AwayJS@@@FCM@@QEAAXPEAVIFCMCallback@2@PEAVIFCMUnknown@2@@Z 000000000040d340 f i Main.obj
 0001:0000c360       ?FCMInit@?$FCMObject@VCPublisher@AwayJS@@@FCM@@QEAAXPEAVIFCMCallback@2@PEAVIFCMUnknown@2@@Z 000000000040d360 f i Main.obj
 0001:0000c380       ?FCMInit@?$FCMObject@VFeatureMatrix@AwayJS@@@FCM@@QEAAXPEAVIFCMCallback@2@PEAVIFCMUnknown@2@@Z 000000000040d380 f i Main.obj
 0001:0000c3a0       ?FCMInit@?$FCMObject@VResourcePalette@AwayJS@@@FCM@@QEAAXPEAVIFCMCallback@2@PEAVIFCMUnknown@2@@Z 000000000040d3a0 f i Main.obj
 0001:0000c3c0       ?FCMInit@?$FCMObject@VTimelineBuilder@AwayJS@@@FCM@@QEAAXPEAVIFCMCallback@2@PEAVIFCMUnknown@2@@Z 000000000040d3c0 f i Main.obj
 0001:0000c3e0       ?FCMInit@?$FCMObject@VTimelineBuilderFactory@AwayJS@@@FCM@@QEAAXPEAVIFCMCallback@2@PEAVIFCMUnknown@2@@Z 000000000040d3e0 f i Main.obj
 0001:0000c400       ?GetCallback@?$FCMObject@V?$FCMClassFactory@VCDocType@AwayJS@@@FCM@@@FCM@@UEAAPEAVIFCMCallback@2@XZ 000000000040d400 f i Main.obj
 0001:0000c410       ?GetCallback@?$FCMObject@V?$FCMClassFactory@VCPublisher@AwayJS@@@FCM@@@FCM@@UEAAPEAVIFCMCallback@2@XZ 000000000040d410 f i Main.obj
 0001:0000c420       ?GetCallback@?$FCMObject@V?$FCMClassFactory@VFeatureMatrix@AwayJS@@@FCM@@@FCM@@UEAAPEAVIFCMCallback@2@XZ 000000000040d420 f i Main.obj
 0001:0000c430       ?GetCallback@?$FCMObject@V?$FCMClassFactory@VResourcePalette@AwayJS@@@FCM@@@FCM@@UEAAPEAVIFCMCallback@2@XZ 000000000040d430 f i Main.obj
 0001:0000c440       ?GetCallback@?$FCMObject@V?$FCMClassFactory@VTimelineBuilder@AwayJS@@@FCM@@@FCM@@UEAAPEAVIFCMCallback@2@XZ 000000000040d440 f i Main.obj
 0001:0000c450       ?GetCallback@?$FCMObject@V?$FCMClassFactory@VTimelineBuilderFactory@AwayJS@@@FCM@@@FCM@@UEAAPEAVIFCMCallback@2@XZ 000000000040d450 f i Main.obj
 0001:0000c460       ?GetCallback@?$FCMObject@VCDocType@AwayJS@@@FCM@@UEAAPEAVIFCMCallback@2@XZ 000000000040d460 f i Main.obj
 0001:0000c470       ?GetCallback@?$FCMObject@VCPublisher@AwayJS@@@FCM@@UEAAPEAVIFCMCallback@2@XZ 000000000040d470 f i Main.obj
 0001:0000c480       ?GetCallback@?$FCMObject@VFeatureMatrix@AwayJS@@@FCM@@UEAAPEAVIFCMCallback@2@XZ 000000000040d480 f i Main.obj
 0001:0000c490       ?GetCallback@?$FCMObject@VResourcePalette@AwayJS@@@FCM@@UEAAPEAVIFCMCallback@2@XZ 000000000040d490 f i Main.obj
 0001:0000c4a0       ?GetCallback@?$FCMObject@VTimelineBuilder@AwayJS@@@FCM@@UEAAPEAVIFCMCallback@2@XZ 000000000040d4a0 f i Main.obj
 0001:0000c4b0       ?GetCallback@?$FCMObject@VTimelineBuilderFactory@AwayJS@@@FCM@@UEAAPEAVIFCMCallback@2@XZ 000000000040d4b0 f i Main.obj
 0001:0000c4c0       ?GetFactory@?$FCMClassFactory@VCDocType@AwayJS@@@FCM@@SAPEAVIFCMClassFactory@2@PEAVFCMPluginModule@2@@Z 000000000040d4c0 f i Main.obj
 0001:0000c530       ?GetFactory@?$FCMClassFactory@VCPublisher@AwayJS@@@FCM@@SAPEAVIFCMClassFactory@2@PEAVFCMPluginModule@2@@Z 000000000040d530 f i Main.obj
 0001:0000c5a0       ?GetFactory@?$FCMClassFactory@VFeatureMatrix@AwayJS@@@FCM@@SAPEAVIFCMClassFactory@2@PEAVFCMPluginModule@2@@Z 000000000040d5a0 f i Main.obj
 0001:0000c610       ?GetFactory@?$FCMClassFactory@VResourcePalette@AwayJS@@@FCM@@SAPEAVIFCMClassFactory@2@PEAVFCMPluginModule@2@@Z 000000000040d610 f i Main.obj
 0001:0000c680       ?GetFactory@?$FCMClassFactory@VTimelineBuilder@AwayJS@@@FCM@@SAPEAVIFCMClassFactory@2@PEAVFCMPluginModule@2@@Z 000000000040d680 f i Main.obj
 0001:0000c6f0       ?GetFactory@?$FCMClassFactory@VTimelineBuilderFactory@AwayJS@@@FCM@@SAPEAVIFCMClassFactory@2@PEAVFCMPluginModule@2@@Z 000000000040d6f0 f i Main.obj
 0001:0000c760       ?GetIID@IFCMCalloc@FCM@@SA?AUFCMGUID@2@XZ 000000000040d760 f i Main.obj
 0001:0000c790       ?GetIID@IFCMDictionary@FCM@@SA?AUFCMGUID@2@XZ 000000000040d790 f i Main.obj
 0001:0000c7c0       ?GetInterfaceMap@?$FCMClassFactory@VCDocType@AwayJS@@@FCM@@SAPEAUFCMInterfaceMap@2@XZ 000000000040d7c0 f i Main.obj
 0001:0000c840       ?GetInterfaceMap@?$FCMClassFactory@VCPublisher@AwayJS@@@FCM@@SAPEAUFCMInterfaceMap@2@XZ 000000000040d840 f i Main.obj
 0001:0000c8c0       ?GetInterfaceMap@?$FCMClassFactory@VFeatureMatrix@AwayJS@@@FCM@@SAPEAUFCMInterfaceMap@2@XZ 000000000040d8c0 f i Main.obj
 0001:0000c940       ?GetInterfaceMap@?$FCMClassFactory@VResourcePalette@AwayJS@@@FCM@@SAPEAUFCMInterfaceMap@2@XZ 000000000040d940 f i Main.obj
 0001:0000c9c0       ?GetInterfaceMap@?$FCMClassFactory@VTimelineBuilder@AwayJS@@@FCM@@SAPEAUFCMInterfaceMap@2@XZ 000000000040d9c0 f i Main.obj
 0001:0000ca40       ?GetInterfaceMap@?$FCMClassFactory@VTimelineBuilderFactory@AwayJS@@@FCM@@SAPEAUFCMInterfaceMap@2@XZ 000000000040da40 f i Main.obj
 0001:0000cac0       ?GetInterfaceMap@CDocType@AwayJS@@SAPEAUFCMInterfaceMap@FCM@@XZ 000000000040dac0 f i Main.obj
 0001:0000cb40       ?GetInterfaceMap@CPublisher@AwayJS@@SAPEAUFCMInterfaceMap@FCM@@XZ 000000000040db40 f i Main.obj
 0001:0000cbc0       ?GetInterfaceMap@FeatureMatrix@AwayJS@@SAPEAUFCMInterfaceMap@FCM@@XZ 000000000040dbc0 f i Main.obj
 0001:0000cc20       ?GetInterfaceMap@ResourcePalette@AwayJS@@SAPEAUFCMInterfaceMap@FCM@@XZ 000000000040dc20 f i Main.obj
 0001:0000cca0       ?GetInterfaceMap@TimelineBuilder@AwayJS@@SAPEAUFCMInterfaceMap@FCM@@XZ 000000000040dca0 f i Main.obj
 0001:0000cd20       ?GetInterfaceMap@TimelineBuilderFactory@AwayJS@@SAPEAUFCMInterfaceMap@FCM@@XZ 000000000040dd20 f i Main.obj
 0001:0000cda0       ?GetPluginModule@?$FCMObject@V?$FCMClassFactory@VCDocType@AwayJS@@@FCM@@@FCM@@UEAAPEAVFCMPluginModule@2@XZ 000000000040dda0 f i Main.obj
 0001:0000cdb0       ?GetPluginModule@?$FCMObject@V?$FCMClassFactory@VCPublisher@AwayJS@@@FCM@@@FCM@@UEAAPEAVFCMPluginModule@2@XZ 000000000040ddb0 f i Main.obj
 0001:0000cdc0       ?GetPluginModule@?$FCMObject@V?$FCMClassFactory@VFeatureMatrix@AwayJS@@@FCM@@@FCM@@UEAAPEAVFCMPluginModule@2@XZ 000000000040ddc0 f i Main.obj
 0001:0000cdd0       ?GetPluginModule@?$FCMObject@V?$FCMClassFactory@VResourcePalette@AwayJS@@@FCM@@@FCM@@UEAAPEAVFCMPluginModule@2@XZ 000000000040ddd0 f i Main.obj
 0001:0000cde0       ?GetPluginModule@?$FCMObject@V?$FCMClassFactory@VTimelineBuilder@AwayJS@@@FCM@@@FCM@@UEAAPEAVFCMPluginModule@2@XZ 000000000040dde0 f i Main.obj
 0001:0000cdf0       ?GetPluginModule@?$FCMObject@V?$FCMClassFactory@VTimelineBuilderFactory@AwayJS@@@FCM@@@FCM@@UEAAPEAVFCMPluginModule@2@XZ 000000000040ddf0 f i Main.obj
 0001:0000ce00       ?GetPluginModule@?$FCMObject@VCDocType@AwayJS@@@FCM@@UEAAPEAVFCMPluginModule@2@XZ 000000000040de00 f i Main.obj
 0001:0000ce10       ?GetPluginModule@?$FCMObject@VCPublisher@AwayJS@@@FCM@@UEAAPEAVFCMPluginModule@2@XZ 000000000040de10 f i Main.obj
 0001:0000ce20       ?GetPluginModule@?$FCMObject@VFeatureMatrix@AwayJS@@@FCM@@UEAAPEAVFCMPluginModule@2@XZ 000000000040de20 f i Main.obj
 0001:0000ce30       ?GetPluginModule@?$FCMObject@VResourcePalette@AwayJS@@@FCM@@UEAAPEAVFCMPluginModule@2@XZ 000000000040de30 f i Main.obj
 0001:0000ce40       ?GetPluginModule@?$FCMObject@VTimelineBuilder@AwayJS@@@FCM@@UEAAPEAVFCMPluginModule@2@XZ 000000000040de40 f i Main.obj
 0001:0000ce50       ?GetPluginModule@?$FCMObject@VTimelineBuilderFactory@AwayJS@@@FCM@@UEAAPEAVFCMPluginModule@2@XZ 000000000040de50 f i Main.obj
 0001:0000ce60       ?GetVersion@CDocType@AwayJS@@SAIXZ 000000000040de60 f i Main.obj
 0001:0000ce70       ?GetVersion@CPublisher@AwayJS@@SAIXZ 000000000040de70 f i Main.obj
 0001:0000ce80       ?GetVersion@FeatureMatrix@AwayJS@@SAIXZ 000000000040de80 f i Main.obj
 0001:0000ce90       ?GetVersion@ResourcePalette@AwayJS@@SAIXZ 000000000040de90 f i Main.obj
 0001:0000cea0       ?GetVersion@TimelineBuilder@AwayJS@@SAIXZ 000000000040dea0 f i Main.obj
 0001:0000ceb0       ?GetVersion@TimelineBuilderFactory@AwayJS@@SAIXZ 000000000040deb0 f i Main.obj
 0001:0000cec0       ?InitDone@FCMObjectBase@FCM@@QEAAIXZ 000000000040dec0 f i Main.obj
 0001:0000ced0       ?InternalAddRef@?$FCMObject@V?$FCMClassFactory@VCDocType@AwayJS@@@FCM@@@FCM@@UEAAIXZ 000000000040ded0 f i Main.obj
 0001:0000cee0       ?InternalAddRef@?$FCMObject@V?$FCMClassFactory@VCPublisher@AwayJS@@@FCM@@@FCM@@UEAAIXZ 000000000040dee0 f i Main.obj
 0001:0000cef0       ?InternalAddRef@?$FCMObject@V?$FCMClassFactory@VFeatureMatrix@AwayJS@@@FCM@@@FCM@@UEAAIXZ 000000000040def0 f i Main.obj
 0001:0000cf00       ?InternalAddRef@?$FCMObject@V?$FCMClassFactory@VResourcePalette@AwayJS@@@FCM@@@FCM@@UEAAIXZ 000000000040df00 f i Main.obj
 0001:0000cf10       ?InternalAddRef@?$FCMObject@V?$FCMClassFactory@VTimelineBuilder@AwayJS@@@FCM@@@FCM@@UEAAIXZ 000000000040df10 f i Main.obj
 0001:0000cf20       ?InternalAddRef@?$FCMObject@V?$FCMClassFactory@VTimelineBuilderFactory@AwayJS@@@FCM@@@FCM@@UEAAIXZ 000000000040df20 f i Main.obj
 0001:0000cf30       ?InternalAddRef@?$FCMObject@VCDocType@AwayJS@@@FCM@@UEAAIXZ 000000000040df30 f i Main.obj
 0001:0000cf40       ?InternalAddRef@?$FCMObject@VCPublisher@AwayJS@@@FCM@@UEAAIXZ 000000000040df40 f i Main.obj
 0001:0000cf50       ?InternalAddRef@?$FCMObject@VFeatureMatrix@AwayJS@@@FCM@@UEAAIXZ 000000000040df50 f i Main.obj
 0001:0000cf60       ?InternalAddRef@?$FCMObject@VResourcePalette@AwayJS@@@FCM@@UEAAIXZ 000000000040df60 f i Main.obj
 0001:0000cf70       ?InternalAddRef@?$FCMObject@VTimelineBuilder@AwayJS@@@FCM@@UEAAIXZ 000000000040df70 f i Main.obj
 0001:0000cf80       ?InternalAddRef@?$FCMObject@VTimelineBuilderFactory@AwayJS@@@FCM@@UEAAIXZ 000000000040df80 f i Main.obj
 0001:0000cf90       ?InternalQueryInterface@?$FCMObject@V?$FCMClassFactory@VCDocType@AwayJS@@@FCM@@@FCM@@UEAAIAEBUFCMGUID@2@PEAPEAX@Z 000000000040df90 f i Main.obj
 0001:0000cfa0       ?InternalQueryInterface@?$FCMObject@V?$FCMClassFactory@VCPublisher@AwayJS@@@FCM@@@FCM@@UEAAIAEBUFCMGUID@2@PEAPEAX@Z 000000000040dfa0 f i Main.obj
 0001:0000cfb0       ?InternalQueryInterface@?$FCMObject@V?$FCMClassFactory@VFeatureMatrix@AwayJS@@@FCM@@@FCM@@UEAAIAEBUFCMGUID@2@PEAPEAX@Z 000000000040dfb0 f i Main.obj
 0001:0000cfc0       ?InternalQueryInterface@?$FCMObject@V?$FCMClassFactory@VResourcePalette@AwayJS@@@FCM@@@FCM@@UEAAIAEBUFCMGUID@2@PEAPEAX@Z 000000000040dfc0 f i Main.obj
 0001:0000cfd0       ?InternalQueryInterface@?$FCMObject@V?$FCMClassFactory@VTimelineBuilder@AwayJS@@@FCM@@@FCM@@UEAAIAEBUFCMGUID@2@PEAPEAX@Z 000000000040dfd0 f i Main.obj
 0001:0000cfe0       ?InternalQueryInterface@?$FCMObject@V?$FCMClassFactory@VTimelineBuilderFactory@AwayJS@@@FCM@@@FCM@@UEAAIAEBUFCMGUID@2@PEAPEAX@Z 000000000040dfe0 f i Main.obj
 0001:0000cff0       ?InternalQueryInterface@?$FCMObject@VCDocType@AwayJS@@@FCM@@UEAAIAEBUFCMGUID@2@PEAPEAX@Z 000000000040dff0 f i Main.obj
 0001:0000d000       ?InternalQueryInterface@?$FCMObject@VCPublisher@AwayJS@@@FCM@@UEAAIAEBUFCMGUID@2@PEAPEAX@Z 000000000040e000 f i Main.obj
 0001:0000d010       ?InternalQueryInterface@?$FCMObject@VFeatureMatrix@AwayJS@@@FCM@@UEAAIAEBUFCMGUID@2@PEAPEAX@Z 000000000040e010 f i Main.obj
 0001:0000d020       ?InternalQueryInterface@?$FCMObject@VResourcePalette@AwayJS@@@FCM@@UEAAIAEBUFCMGUID@2@PEAPEAX@Z 000000000040e020 f i Main.obj
 0001:0000d030       ?InternalQueryInterface@?$FCMObject@VTimelineBuilder@AwayJS@@@FCM@@UEAAIAEBUFCMGUID@2@PEAPEAX@Z 000000000040e030 f i Main.obj
 0001:0000d040       ?InternalQueryInterface@?$FCMObject@VTimelineBuilderFactory@AwayJS@@@FCM@@UEAAIAEBUFCMGUID@2@PEAPEAX@Z 000000000040e040 f i Main.obj
 0001:0000d050       ?InternalRelease@?$FCMObject@V?$FCMClassFactory@VCDocType@AwayJS@@@FCM@@@FCM@@UEAAIXZ 000000000040e050 f i Main.obj
 0001:0000d060       ?InternalRelease@?$FCMObject@V?$FCMClassFactory@VCPublisher@AwayJS@@@FCM@@@FCM@@UEAAIXZ 000000000040e060 f i Main.obj
 0001:0000d070       ?InternalRelease@?$FCMObject@V?$FCMClassFactory@VFeatureMatrix@AwayJS@@@FCM@@@FCM@@UEAAIXZ 000000000040e070 f i Main.obj
 0001:0000d080       ?InternalRelease@?$FCMObject@V?$FCMClassFactory@VResourcePalette@AwayJS@@@FCM@@@FCM@@UEAAIXZ 000000000040e080 f i Main.obj
 0001:0000d090       ?InternalRelease@?$FCMObject@V?$FCMClassFactory@VTimelineBuilder@AwayJS@@@FCM@@@FCM@@UEAAIXZ 000000000040e090 f i Main.obj
 0001:0000d0a0       ?InternalRelease@?$FCMObject@V?$FCMClassFactory@VTimelineBuilderFactory@AwayJS@@@FCM@@@FCM@@UEAAIXZ 000000000040e0a0 f i Main.obj
 0001:0000d0b0       ?InternalRelease@?$FCMObject@VCDocType@AwayJS@@@FCM@@UEAAIXZ 000000000040e0b0 f i Main.obj
 0001:0000d0c0       ?InternalRelease@?$FCMObject@VCPublisher@AwayJS@@@FCM@@UEAAIXZ 000000000040e0c0 f i Main.obj
 0001:0000d0d0       ?InternalRelease@?$FCMObject@VFeatureMatrix@AwayJS@@@FCM@@UEAAIXZ 000000000040e0d0 f i Main.obj
 0001:0000d0e0       ?InternalRelease@?$FCMObject@VResourcePalette@AwayJS@@@FCM@@UEAAIXZ 000000000040e0e0 f i Main.obj
 0001:0000d0f0       ?InternalRelease@?$FCMObject@VTimelineBuilder@AwayJS@@@FCM@@UEAAIXZ 000000000040e0f0 f i Main.obj
 0001:0000d100       ?InternalRelease@?$FCMObject@VTimelineBuilderFactory@AwayJS@@@FCM@@UEAAIXZ 000000000040e100 f i Main.obj
 0001:0000d110       ?MainQueryInterface@?$FCMObject@V?$FCMClassFactory@VCDocType@AwayJS@@@FCM@@@FCM@@UEAAIAEBUFCMGUID@2@PEAPEAX@Z 000000000040e110 f i Main.obj
 0001:0000d270       ?MainQueryInterface@?$FCMObject@V?$FCMClassFactory@VCPublisher@AwayJS@@@FCM@@@FCM@@UEAAIAEBUFCMGUID@2@PEAPEAX@Z 000000000040e270 f i Main.obj
 0001:0000d3d0       ?MainQueryInterface@?$FCMObject@V?$FCMClassFactory@VFeatureMatrix@AwayJS@@@FCM@@@FCM@@UEAAIAEBUFCMGUID@2@PEAPEAX@Z 000000000040e3d0 f i Main.obj
 0001:0000d530       ?MainQueryInterface@?$FCMObject@V?$FCMClassFactory@VResourcePalette@AwayJS@@@FCM@@@FCM@@UEAAIAEBUFCMGUID@2@PEAPEAX@Z 000000000040e530 f i Main.obj
 0001:0000d690       ?MainQueryInterface@?$FCMObject@V?$FCMClassFactory@VTimelineBuilder@AwayJS@@@FCM@@@FCM@@UEAAIAEBUFCMGUID@2@PEAPEAX@Z 000000000040e690 f i Main.obj
 0001:0000d7f0       ?MainQueryInterface@?$FCMObject@V?$FCMClassFactory@VTimelineBuilderFactory@AwayJS@@@FCM@@@FCM@@UEAAIAEBUFCMGUID@2@PEAPEAX@Z 000000000040e7f0 f i Main.obj
 0001:0000d950       ?MainQueryInterface@?$FCMObject@VCDocType@AwayJS@@@FCM@@UEAAIAEBUFCMGUID@2@PEAPEAX@Z 000000000040e950 f i Main.obj
 0001:0000dab0       ?MainQueryInterface@?$FCMObject@VCPublisher@AwayJS@@@FCM@@UEAAIAEBUFCMGUID@2@PEAPEAX@Z 000000000040eab0 f i Main.obj
 0001:0000dc10       ?MainQueryInterface@?$FCMObject@VFeatureMatrix@AwayJS@@@FCM@@UEAAIAEBUFCMGUID@2@PEAPEAX@Z 000000000040ec10 f i Main.obj
 0001:0000dd80       ?MainQueryInterface@?$FCMObject@VResourcePalette@AwayJS@@@FCM@@UEAAIAEBUFCMGUID@2@PEAPEAX@Z 000000000040ed80 f i Main.obj
 0001:0000dee0       ?MainQueryInterface@?$FCMObject@VTimelineBuilder@AwayJS@@@FCM@@UEAAIAEBUFCMGUID@2@PEAPEAX@Z 000000000040eee0 f i Main.obj
 0001:0000e040       ?MainQueryInterface@?$FCMObject@VTimelineBuilderFactory@AwayJS@@@FCM@@UEAAIAEBUFCMGUID@2@PEAPEAX@Z 000000000040f040 f i Main.obj
 0001:0000e1a0       ?NoAggregationAddRef@?$FCMObject@V?$FCMClassFactory@VCDocType@AwayJS@@@FCM@@@FCM@@UEAAIXZ 000000000040f1a0 f i Main.obj
 0001:0000e1b0       ?NoAggregationAddRef@?$FCMObject@V?$FCMClassFactory@VCPublisher@AwayJS@@@FCM@@@FCM@@UEAAIXZ 000000000040f1b0 f i Main.obj
 0001:0000e1c0       ?NoAggregationAddRef@?$FCMObject@V?$FCMClassFactory@VFeatureMatrix@AwayJS@@@FCM@@@FCM@@UEAAIXZ 000000000040f1c0 f i Main.obj
 0001:0000e1d0       ?NoAggregationAddRef@?$FCMObject@V?$FCMClassFactory@VResourcePalette@AwayJS@@@FCM@@@FCM@@UEAAIXZ 000000000040f1d0 f i Main.obj
 0001:0000e1e0       ?NoAggregationAddRef@?$FCMObject@V?$FCMClassFactory@VTimelineBuilder@AwayJS@@@FCM@@@FCM@@UEAAIXZ 000000000040f1e0 f i Main.obj
 0001:0000e1f0       ?NoAggregationAddRef@?$FCMObject@V?$FCMClassFactory@VTimelineBuilderFactory@AwayJS@@@FCM@@@FCM@@UEAAIXZ 000000000040f1f0 f i Main.obj
 0001:0000e200       ?NoAggregationAddRef@?$FCMObject@VCDocType@AwayJS@@@FCM@@UEAAIXZ 000000000040f200 f i Main.obj
 0001:0000e210       ?NoAggregationAddRef@?$FCMObject@VCPublisher@AwayJS@@@FCM@@UEAAIXZ 000000000040f210 f i Main.obj
 0001:0000e220       ?NoAggregationAddRef@?$FCMObject@VFeatureMatrix@AwayJS@@@FCM@@UEAAIXZ 000000000040f220 f i Main.obj
 0001:0000e230       ?NoAggregationAddRef@?$FCMObject@VResourcePalette@AwayJS@@@FCM@@UEAAIXZ 000000000040f230 f i Main.obj
 0001:0000e240       ?NoAggregationAddRef@?$FCMObject@VTimelineBuilder@AwayJS@@@FCM@@UEAAIXZ 000000000040f240 f i Main.obj
 0001:0000e250       ?NoAggregationAddRef@?$FCMObject@VTimelineBuilderFactory@AwayJS@@@FCM@@UEAAIXZ 000000000040f250 f i Main.obj
 0001:0000e260       ?NoAggregationRelease@?$FCMObject@V?$FCMClassFactory@VCDocType@AwayJS@@@FCM@@@FCM@@UEAAIXZ 000000000040f260 f i Main.obj
 0001:0000e290       ?NoAggregationRelease@?$FCMObject@V?$FCMClassFactory@VCPublisher@AwayJS@@@FCM@@@FCM@@UEAAIXZ 000000000040f290 f i Main.obj
 0001:0000e2c0       ?NoAggregationRelease@?$FCMObject@V?$FCMClassFactory@VFeatureMatrix@AwayJS@@@FCM@@@FCM@@UEAAIXZ 000000000040f2c0 f i Main.obj
 0001:0000e2f0       ?NoAggregationRelease@?$FCMObject@V?$FCMClassFactory@VResourcePalette@AwayJS@@@FCM@@@FCM@@UEAAIXZ 000000000040f2f0 f i Main.obj
 0001:0000e320       ?NoAggregationRelease@?$FCMObject@V?$FCMClassFactory@VTimelineBuilder@AwayJS@@@FCM@@@FCM@@UEAAIXZ 000000000040f320 f i Main.obj
 0001:0000e350       ?NoAggregationRelease@?$FCMObject@V?$FCMClassFactory@VTimelineBuilderFactory@AwayJS@@@FCM@@@FCM@@UEAAIXZ 000000000040f350 f i Main.obj
 0001:0000e380       ?NoAggregationRelease@?$FCMObject@VCDocType@AwayJS@@@FCM@@UEAAIXZ 000000000040f380 f i Main.obj
 0001:0000e3b0       ?NoAggregationRelease@?$FCMObject@VCPublisher@AwayJS@@@FCM@@UEAAIXZ 000000000040f3b0 f i Main.obj
 0001:0000e3e0       ?NoAggregationRelease@?$FCMObject@VFeatureMatrix@AwayJS@@@FCM@@UEAAIXZ 000000000040f3e0 f i Main.obj
 0001:0000e410       ?NoAggregationRelease@?$FCMObject@VResourcePalette@AwayJS@@@FCM@@UEAAIXZ 000000000040f410 f i Main.obj
 0001:0000e440       ?NoAggregationRelease@?$FCMObject@VTimelineBuilder@AwayJS@@@FCM@@UEAAIXZ 000000000040f440 f i Main.obj
 0001:0000e470       ?NoAggregationRelease@?$FCMObject@VTimelineBuilderFactory@AwayJS@@@FCM@@UEAAIXZ 000000000040f470 f i Main.obj
 0001:0000e4a0       ?QueryInterface@?$FCMObject@V?$FCMClassFactory@VCDocType@AwayJS@@@FCM@@@FCM@@UEAAIAEBUFCMGUID@2@PEAPEAX@Z 000000000040f4a0 f i Main.obj
 0001:0000e4b0       ?QueryInterface@?$FCMObject@V?$FCMClassFactory@VCPublisher@AwayJS@@@FCM@@@FCM@@UEAAIAEBUFCMGUID@2@PEAPEAX@Z 000000000040f4b0 f i Main.obj
 0001:0000e4c0       ?QueryInterface@?$FCMObject@V?$FCMClassFactory@VFeatureMatrix@AwayJS@@@FCM@@@FCM@@UEAAIAEBUFCMGUID@2@PEAPEAX@Z 000000000040f4c0 f i Main.obj
 0001:0000e4d0       ?QueryInterface@?$FCMObject@V?$FCMClassFactory@VResourcePalette@AwayJS@@@FCM@@@FCM@@UEAAIAEBUFCMGUID@2@PEAPEAX@Z 000000000040f4d0 f i Main.obj
 0001:0000e4e0       ?QueryInterface@?$FCMObject@V?$FCMClassFactory@VTimelineBuilder@AwayJS@@@FCM@@@FCM@@UEAAIAEBUFCMGUID@2@PEAPEAX@Z 000000000040f4e0 f i Main.obj
 0001:0000e4f0       ?QueryInterface@?$FCMObject@V?$FCMClassFactory@VTimelineBuilderFactory@AwayJS@@@FCM@@@FCM@@UEAAIAEBUFCMGUID@2@PEAPEAX@Z 000000000040f4f0 f i Main.obj
 0001:0000e500       ?QueryInterface@?$FCMObject@VCDocType@AwayJS@@@FCM@@UEAAIAEBUFCMGUID@2@PEAPEAX@Z 000000000040f500 f i Main.obj
 0001:0000e510       ?QueryInterface@?$FCMObject@VCPublisher@AwayJS@@@FCM@@UEAAIAEBUFCMGUID@2@PEAPEAX@Z 000000000040f510 f i Main.obj
 0001:0000e520       ?QueryInterface@?$FCMObject@VFeatureMatrix@AwayJS@@@FCM@@UEAAIAEBUFCMGUID@2@PEAPEAX@Z 000000000040f520 f i Main.obj
 0001:0000e530       ?QueryInterface@?$FCMObject@VResourcePalette@AwayJS@@@FCM@@UEAAIAEBUFCMGUID@2@PEAPEAX@Z 000000000040f530 f i Main.obj
 0001:0000e540       ?QueryInterface@?$FCMObject@VTimelineBuilder@AwayJS@@@FCM@@UEAAIAEBUFCMGUID@2@PEAPEAX@Z 000000000040f540 f i Main.obj
 0001:0000e550       ?QueryInterface@?$FCMObject@VTimelineBuilderFactory@AwayJS@@@FCM@@UEAAIAEBUFCMGUID@2@PEAPEAX@Z 000000000040f550 f i Main.obj
 0001:0000e560       ?Release@?$FCMObject@V?$FCMClassFactory@VCDocType@AwayJS@@@FCM@@@FCM@@UEAAIXZ 000000000040f560 f i Main.obj
 0001:0000e570       ?Release@?$FCMObject@V?$FCMClassFactory@VCPublisher@AwayJS@@@FCM@@@FCM@@UEAAIXZ 000000000040f570 f i Main.obj
 0001:0000e580       ?Release@?$FCMObject@V?$FCMClassFactory@VFeatureMatrix@AwayJS@@@FCM@@@FCM@@UEAAIXZ 000000000040f580 f i Main.obj
 0001:0000e590       ?Release@?$FCMObject@V?$FCMClassFactory@VResourcePalette@AwayJS@@@FCM@@@FCM@@UEAAIXZ 000000000040f590 f i Main.obj
 0001:0000e5a0       ?Release@?$FCMObject@V?$FCMClassFactory@VTimelineBuilder@AwayJS@@@FCM@@@FCM@@UEAAIXZ 000000000040f5a0 f i Main.obj
 0001:0000e5b0       ?Release@?$FCMObject@V?$FCMClassFactory@VTimelineBuilderFactory@AwayJS@@@FCM@@@FCM@@UEAAIXZ 000000000040f5b0 f i Main.obj
 0001:0000e5c0       ?Release@?$FCMObject@VCDocType@AwayJS@@@FCM@@UEAAIXZ 000000000040f5c0 f i Main.obj
 0001:0000e5d0       ?Release@?$FCMObject@VCPublisher@AwayJS@@@FCM@@UEAAIXZ 000000000040f5d0 f i Main.obj
 0001:0000e5e0       ?Release@?$FCMObject@VFeatureMatrix@AwayJS@@@FCM@@UEAAIXZ 000000000040f5e0 f i Main.obj
 0001:0000e5f0       ?Release@?$FCMObject@VResourcePalette@AwayJS@@@FCM@@UEAAIXZ 000000000040f5f0 f i Main.obj
 0001:0000e600       ?Release@?$FCMObject@VTimelineBuilder@AwayJS@@@FCM@@UEAAIXZ 000000000040f600 f i Main.obj
 0001:0000e610       ?Release@?$FCMObject@VTimelineBuilderFactory@AwayJS@@@FCM@@UEAAIXZ 000000000040f610 f i Main.obj
 0001:0000e620       ?addClassEntry@FCMPluginModule@FCM@@IEAAXUFCMGUID@2@P6APEAVIFCMClassFactory@2@PEAV12@@ZP6APEAUFCMInterfaceMap@2@XZI@Z 000000000040f620 f i Main.obj
 0001:0000e6d0       ?assignPtrWithOwnership@?$AutoPtr@VIFCMCalloc@FCM@@@FCM@@AEAAXAEAPEAVIFCMCalloc@2@PEAV32@@Z 000000000040f6d0 f i Main.obj
 0001:0000e720       ?assignPtrWithQIOwnership@?$AutoPtr@VIFCMCalloc@FCM@@@FCM@@AEAAXAEAPEAVIFCMCalloc@2@PEAVIFCMUnknown@2@@Z 000000000040f720 f i Main.obj
 0001:0000e7a0       ?assignPtrWithQIOwnership@?$AutoPtr@VIFCMDictionary@FCM@@@FCM@@AEAAXAEAPEAVIFCMDictionary@2@PEAVIFCMUnknown@2@@Z 000000000040f7a0 f i Main.obj
 0001:0000e820       ?canUnloadNow@FCMPluginModule@FCM@@QEAAIXZ 000000000040f820 f i Main.obj
 0001:0000e830       ?decrementAliveCount@FCMPluginModule@FCM@@QEAAIXZ 000000000040f830 f i Main.obj
 0001:0000e840       ?finalize@FCMPluginModule@FCM@@QEAAXXZ 000000000040f840 f i Main.obj
 0001:0000e8a0       ?getClassInfo@FCMPluginModule@FCM@@QEAAIPEAVIFCMCalloc@2@PEAPEAUFCMClassInterfaceInfo@2@@Z 000000000040f8a0 f i Main.obj
 0001:0000eb10       ?getClassObject@FCMPluginModule@FCM@@QEAAIPEAVIFCMUnknown@2@AEBUFCMGUID@2@1PEAPEAX@Z 000000000040fb10 f i Main.obj
 0001:0000eba0       ?incrementAliveCount@FCMPluginModule@FCM@@QEAAIXZ 000000000040fba0 f i Main.obj
 0001:0000ebb0       ?init@AwayJSModule@AwayJS@@QEAAIPEAVIFCMCallback@FCM@@@Z 000000000040fbb0 f i Main.obj
 0001:0000eea0       ?init@FCMPluginModule@FCM@@QEAAIPEAVIFCMCallback@2@@Z 000000000040fea0 f i Main.obj
 0001:0000ef20       PluginBoot                 000000000040ff20 f   Main.obj
 0001:0000ef30       PluginCanUnloadNow         000000000040ff30 f   Main.obj
 0001:0000ef40       PluginGetClassInfo         000000000040ff40 f   Main.obj
 0001:0000ef60       PluginGetClassObject       000000000040ff60 f   Main.obj
 0001:0000f000       PluginRegister             0000000000410000 f   Main.obj
 0001:0000f110       PluginShutdown             0000000000410110 f   Main.obj
 0001:0000f170       ??$?0AEAV?$_Tree_iterator@V?$_Tree_val@U?$_Tree_simple_types@U?$pair@$$CBV?$basic_string@DU?$char_traits@D@std@@V?$allocator@D@2@@std@@V12@@std@@@std@@@std@@@std@@_N@?$pair@V?$_Tree_iterator@V?$_Tree_val@U?$_Tree_simple_types@U?$pair@$$CBV?$basic_string@DU?$char_traits@D@std@@V?$allocator@D@2@@std@@V12@@std@@@std@@@std@@@std@@_N@std@@QEAA@AEAV?$_Tree_iterator@V?$_Tree_val@U?$_Tree_simple_types@U?$pair@$$CBV?$basic_string@DU?$char_traits@D@std@@V?$allocator@D@2@@std@@V12@@std@@@std@@@std@@@1@$$QEA_NPEAPEAX@Z 0000000000410170 f i MyXmlParser.obj
 0001:0000f190       ??$?0AEAV?$basic_string@DU?$char_traits@D@std@@V?$allocator@D@2@@std@@AEAV01@@?$pair@V?$basic_string@DU?$char_traits@D@std@@V?$allocator@D@2@@std@@V12@@std@@QEAA@AEAV?$basic_string@DU?$char_traits@D@std@@V?$allocator@D@2@@1@0PEAPEAX@Z 0000000000410190 f i MyXmlParser.obj
 0001:0000f210       ??$?0V?$_Tree_iterator@V?$_Tree_val@U?$_Tree_simple_types@U?$pair@$$CBV?$basic_string@DU?$char_traits@D@std@@V?$allocator@D@2@@std@@V12@@std@@@std@@@std@@@std@@_N@?$pair@V?$_Tree_iterator@V?$_Tree_val@U?$_Tree_simple_types@U?$pair@$$CBV?$basic_string@DU?$char_traits@D@std@@V?$allocator@D@2@@std@@V12@@std@@@std@@@std@@@std@@_N@std@@QEAA@$$QEAU01@PEAPEAX@Z 0000000000410210 f i MyXmlParser.obj
 0001:0000f230       ??$?0V?$_Tree_iterator@V?$_Tree_val@U?$_Tree_simple_types@U?$pair@$$CBV?$basic_string@DU?$char_traits@D@std@@V?$allocator@D@2@@std@@V12@@std@@@std@@@std@@@std@@_N@?$pair@V?$_Tree_iterator@V?$_Tree_val@U?$_Tree_simple_types@U?$pair@$$CBV?$basic_string@DU?$char_traits@D@std@@V?$allocator@D@2@@std@@V12@@std@@@std@@@std@@@std@@_N@std@@QEAA@$$QEAV?$_Tree_iterator@V?$_Tree_val@U?$_Tree_simple_types@U?$pair@$$CBV?$basic_string@DU?$char_traits@D@std@@V?$allocator@D@2@@std@@V12@@std@@@std@@@std@@@1@$$QEA_NPEAPEAX@Z 0000000000410230 f i MyXmlParser.obj
 0001:0000f250       ??$?0V?$basic_string@DU?$char_traits@D@std@@V?$allocator@D@2@@std@@V01@@?$pair@$$CBV?$basic_string@DU?$char_traits@D@std@@V?$allocator@D@2@@std@@V12@@std@@QEAA@$$QEAU?$pair@V?$basic_string@DU?$char_traits@D@std@@V?$allocator@D@2@@std@@V12@@1@PEAPEAX@Z 0000000000410250 f i MyXmlParser.obj
 0001:0000f330       ??$_Allocate@U?$_Tree_node@U?$pair@$$CBV?$basic_string@DU?$char_traits@D@std@@V?$allocator@D@2@@std@@V12@@std@@PEAX@std@@@std@@YAPEAU?$_Tree_node@U?$pair@$$CBV?$basic_string@DU?$char_traits@D@std@@V?$allocator@D@2@@std@@V12@@std@@PEAX@0@_KPEAU10@@Z 0000000000410330 f i MyXmlParser.obj
 0001:0000f370       ??$_Buynode@U?$pair@V?$basic_string@DU?$char_traits@D@std@@V?$allocator@D@2@@std@@V12@@std@@@?$_Tree_buy@U?$pair@$$CBV?$basic_string@DU?$char_traits@D@std@@V?$allocator@D@2@@std@@V12@@std@@V?$allocator@U?$pair@$$CBV?$basic_string@DU?$char_traits@D@std@@V?$allocator@D@2@@std@@V12@@std@@@2@@std@@QEAAPEAU?$_Tree_node@U?$pair@$$CBV?$basic_string@DU?$char_traits@D@std@@V?$allocator@D@2@@std@@V12@@std@@PEAX@1@$$QEAU?$pair@V?$basic_string@DU?$char_traits@D@std@@V?$allocator@D@2@@std@@V12@@1@@Z 0000000000410370 f i MyXmlParser.obj
 0001:0000f3c0       ??$_Buynode_if_nil@AEAU?$pair@$$CBV?$basic_string@DU?$char_traits@D@std@@V?$allocator@D@2@@std@@V12@@std@@@?$_Tree@V?$_Tmap_traits@V?$basic_string@DU?$char_traits@D@std@@V?$allocator@D@2@@std@@V12@U?$less@V?$basic_string@DU?$char_traits@D@std@@V?$allocator@D@2@@std@@@2@V?$allocator@U?$pair@$$CBV?$basic_string@DU?$char_traits@D@std@@V?$allocator@D@2@@std@@V12@@std@@@2@$0A@@std@@@std@@IEAAPEAU?$_Tree_node@U?$pair@$$CBV?$basic_string@DU?$char_traits@D@std@@V?$allocator@D@2@@std@@V12@@std@@PEAX@1@PEAU21@AEAU?$pair@$$CBV?$basic_string@DU?$char_traits@D@std@@V?$allocator@D@2@@std@@V12@@1@@Z 00000000004103c0 f i MyXmlParser.obj
 0001:0000f3d0       ??$_Insert_at@AEAU?$pair@$$CBV?$basic_string@DU?$char_traits@D@std@@V?$allocator@D@2@@std@@V12@@std@@PEAU?$_Tree_node@U?$pair@$$CBV?$basic_string@DU?$char_traits@D@std@@V?$allocator@D@2@@std@@V12@@std@@PEAX@2@@?$_Tree@V?$_Tmap_traits@V?$basic_string@DU?$char_traits@D@std@@V?$allocator@D@2@@std@@V12@U?$less@V?$basic_string@DU?$char_traits@D@std@@V?$allocator@D@2@@std@@@2@V?$allocator@U?$pair@$$CBV?$basic_string@DU?$char_traits@D@std@@V?$allocator@D@2@@std@@V12@@std@@@2@$0A@@std@@@std@@IEAA?AV?$_Tree_iterator@V?$_Tree_val@U?$_Tree_simple_types@U?$pair@$$CBV?$basic_string@DU?$char_traits@D@std@@V?$allocator@D@2@@std@@V12@@std@@@std@@@std@@@1@_NPEAU?$_Tree_node@U?$pair@$$CBV?$basic_string@DU?$char_traits@D@std@@V?$allocator@D@2@@std@@V12@@std@@PEAX@1@AEAU?$pair@$$CBV?$basic_string@DU?$char_traits@D@std@@V?$allocator@D@2@@std@@V12@@1@1@Z 00000000004103d0 f i MyXmlParser.obj
 0001:0000f6c0       ??$_Insert_nohint@AEAU?$pair@$$CBV?$basic_string@DU?$char_traits@D@std@@V?$allocator@D@2@@std@@V12@@std@@PEAU?$_Tree_node@U?$pair@$$CBV?$basic_string@DU?$char_traits@D@std@@V?$allocator@D@2@@std@@V12@@std@@PEAX@2@@?$_Tree@V?$_Tmap_traits@V?$basic_string@DU?$char_traits@D@std@@V?$allocator@D@2@@std@@V12@U?$less@V?$basic_string@DU?$char_traits@D@std@@V?$allocator@D@2@@std@@@2@V?$allocator@U?$pair@$$CBV?$basic_string@DU?$char_traits@D@std@@V?$allocator@D@2@@std@@V12@@std@@@2@$0A@@std@@@std@@IEAA?AU?$pair@V?$_Tree_iterator@V?$_Tree_val@U?$_Tree_simple_types@U?$pair@$$CBV?$basic_string@DU?$char_traits@D@std@@V?$allocator@D@2@@std@@V12@@std@@@std@@@std@@@std@@_N@1@_NAEAU?$pair@$$CBV?$basic_string@DU?$char_traits@D@std@@V?$allocator@D@2@@std@@V12@@1@PEAU?$_Tree_node@U?$pair@$$CBV?$basic_string@DU?$char_traits@D@std@@V?$allocator@D@2@@std@@V12@@std@@PEAX@1@@Z 00000000004106c0 f i MyXmlParser.obj
 0001:0000f930       ??$addressof@PEAU?$_Tree_node@U?$pair@$$CBV?$basic_string@DU?$char_traits@D@std@@V?$allocator@D@2@@std@@V12@@std@@PEAX@std@@@std@@YAPEAPEAU?$_Tree_node@U?$pair@$$CBV?$basic_string@DU?$char_traits@D@std@@V?$allocator@D@2@@std@@V12@@std@@PEAX@0@AEAPEAU10@@Z 0000000000410930 f i MyXmlParser.obj
 0001:0000f940       ??$addressof@U?$pair@$$CBV?$basic_string@DU?$char_traits@D@std@@V?$allocator@D@2@@std@@V12@@std@@@std@@YAPEAU?$pair@$$CBV?$basic_string@DU?$char_traits@D@std@@V?$allocator@D@2@@std@@V12@@0@AEAU10@@Z 0000000000410940 f i MyXmlParser.obj
 0001:0000f950       ??$construct@PEAU?$_Tree_node@U?$pair@$$CBV?$basic_string@DU?$char_traits@D@std@@V?$allocator@D@2@@std@@V12@@std@@PEAX@std@@AEAPEAU12@@?$_Wrap_alloc@V?$allocator@U?$_Tree_node@U?$pair@$$CBV?$basic_string@DU?$char_traits@D@std@@V?$allocator@D@2@@std@@V12@@std@@PEAX@std@@@std@@@std@@QEAAXPEAPEAU?$_Tree_node@U?$pair@$$CBV?$basic_string@DU?$char_traits@D@std@@V?$allocator@D@2@@std@@V12@@std@@PEAX@1@AEAPEAU21@@Z 0000000000410950 f i MyXmlParser.obj
 0001:0000f960       ??$construct@PEAU?$_Tree_node@U?$pair@$$CBV?$basic_string@DU?$char_traits@D@std@@V?$allocator@D@2@@std@@V12@@std@@PEAX@std@@AEAPEAU12@@?$allocator@U?$_Tree_node@U?$pair@$$CBV?$basic_string@DU?$char_traits@D@std@@V?$allocator@D@2@@std@@V12@@std@@PEAX@std@@@std@@QEAAXPEAPEAU?$_Tree_node@U?$pair@$$CBV?$basic_string@DU?$char_traits@D@std@@V?$allocator@D@2@@std@@V12@@std@@PEAX@1@AEAPEAU21@@Z 0000000000410960 f i MyXmlParser.obj
 0001:0000f970       ??$construct@PEAU?$_Tree_node@U?$pair@$$CBV?$basic_string@DU?$char_traits@D@std@@V?$allocator@D@2@@std@@V12@@std@@PEAX@std@@AEAPEAU12@@?$allocator_traits@V?$allocator@U?$_Tree_node@U?$pair@$$CBV?$basic_string@DU?$char_traits@D@std@@V?$allocator@D@2@@std@@V12@@std@@PEAX@std@@@std@@@std@@SAXAEAV?$allocator@U?$_Tree_node@U?$pair@$$CBV?$basic_string@DU?$char_traits@D@std@@V?$allocator@D@2@@std@@V12@@std@@PEAX@std@@@1@PEAPEAU?$_Tree_node@U?$pair@$$CBV?$basic_string@DU?$char_traits@D@std@@V?$allocator@D@2@@std@@V12@@std@@PEAX@1@AEAPEAU31@@Z 0000000000410970 f i MyXmlParser.obj
 0001:0000f980       ??$construct@U?$pair@$$CBV?$basic_string@DU?$char_traits@D@std@@V?$allocator@D@2@@std@@V12@@std@@U?$pair@V?$basic_string@DU?$char_traits@D@std@@V?$allocator@D@2@@std@@V12@@2@@?$_Wrap_alloc@V?$allocator@U?$_Tree_node@U?$pair@$$CBV?$basic_string@DU?$char_traits@D@std@@V?$allocator@D@2@@std@@V12@@std@@PEAX@std@@@std@@@std@@QEAAXPEAU?$pair@$$CBV?$basic_string@DU?$char_traits@D@std@@V?$allocator@D@2@@std@@V12@@1@$$QEAU?$pair@V?$basic_string@DU?$char_traits@D@std@@V?$allocator@D@2@@std@@V12@@1@@Z 0000000000410980 f i MyXmlParser.obj
 0001:0000f9a0       ??$construct@U?$pair@$$CBV?$basic_string@DU?$char_traits@D@std@@V?$allocator@D@2@@std@@V12@@std@@U?$pair@V?$basic_string@DU?$char_traits@D@std@@V?$allocator@D@2@@std@@V12@@2@@?$allocator@U?$_Tree_node@U?$pair@$$CBV?$basic_string@DU?$char_traits@D@std@@V?$allocator@D@2@@std@@V12@@std@@PEAX@std@@@std@@QEAAXPEAU?$pair@$$CBV?$basic_string@DU?$char_traits@D@std@@V?$allocator@D@2@@std@@V12@@1@$$QEAU?$pair@V?$basic_string@DU?$char_traits@D@std@@V?$allocator@D@2@@std@@V12@@1@@Z 00000000004109a0 f i MyXmlParser.obj
 0001:0000f9c0       ??$construct@U?$pair@$$CBV?$basic_string@DU?$char_traits@D@std@@V?$allocator@D@2@@std@@V12@@std@@U?$pair@V?$basic_string@DU?$char_traits@D@std@@V?$allocator@D@2@@std@@V12@@2@@?$allocator_traits@V?$allocator@U?$_Tree_node@U?$pair@$$CBV?$basic_string@DU?$char_traits@D@std@@V?$allocator@D@2@@std@@V12@@std@@PEAX@std@@@std@@@std@@SAXAEAV?$allocator@U?$_Tree_node@U?$pair@$$CBV?$basic_string@DU?$char_traits@D@std@@V?$allocator@D@2@@std@@V12@@std@@PEAX@std@@@1@PEAU?$pair@$$CBV?$basic_string@DU?$char_traits@D@std@@V?$allocator@D@2@@std@@V12@@1@$$QEAU?$pair@V?$basic_string@DU?$char_traits@D@std@@V?$allocator@D@2@@std@@V12@@1@@Z 00000000004109c0 f i MyXmlParser.obj
 0001:0000f9e0       ??$destroy@PEAU?$_Tree_node@U?$pair@$$CBV?$basic_string@DU?$char_traits@D@std@@V?$allocator@D@2@@std@@V12@@std@@PEAX@std@@@?$_Wrap_alloc@V?$allocator@U?$_Tree_node@U?$pair@$$CBV?$basic_string@DU?$char_traits@D@std@@V?$allocator@D@2@@std@@V12@@std@@PEAX@std@@@std@@@std@@QEAAXPEAPEAU?$_Tree_node@U?$pair@$$CBV?$basic_string@DU?$char_traits@D@std@@V?$allocator@D@2@@std@@V12@@std@@PEAX@1@@Z 00000000004109e0 f i MyXmlParser.obj
 0001:0000f9f0       ??$destroy@PEAU?$_Tree_node@U?$pair@$$CBV?$basic_string@DU?$char_traits@D@std@@V?$allocator@D@2@@std@@V12@@std@@PEAX@std@@@?$allocator@U?$_Tree_node@U?$pair@$$CBV?$basic_string@DU?$char_traits@D@std@@V?$allocator@D@2@@std@@V12@@std@@PEAX@std@@@std@@QEAAXPEAPEAU?$_Tree_node@U?$pair@$$CBV?$basic_string@DU?$char_traits@D@std@@V?$allocator@D@2@@std@@V12@@std@@PEAX@1@@Z 00000000004109f0 f i MyXmlParser.obj
 0001:0000fa00       ??$destroy@PEAU?$_Tree_node@U?$pair@$$CBV?$basic_string@DU?$char_traits@D@std@@V?$allocator@D@2@@std@@V12@@std@@PEAX@std@@@?$allocator_traits@V?$allocator@U?$_Tree_node@U?$pair@$$CBV?$basic_string@DU?$char_traits@D@std@@V?$allocator@D@2@@std@@V12@@std@@PEAX@std@@@std@@@std@@SAXAEAV?$allocator@U?$_Tree_node@U?$pair@$$CBV?$basic_string@DU?$char_traits@D@std@@V?$allocator@D@2@@std@@V12@@std@@PEAX@std@@@1@PEAPEAU?$_Tree_node@U?$pair@$$CBV?$basic_string@DU?$char_traits@D@std@@V?$allocator@D@2@@std@@V12@@std@@PEAX@1@@Z 0000000000410a00 f i MyXmlParser.obj
 0001:0000fa10       ??$destroy@U?$pair@$$CBV?$basic_string@DU?$char_traits@D@std@@V?$allocator@D@2@@std@@V12@@std@@@?$_Wrap_alloc@V?$allocator@U?$_Tree_node@U?$pair@$$CBV?$basic_string@DU?$char_traits@D@std@@V?$allocator@D@2@@std@@V12@@std@@PEAX@std@@@std@@@std@@QEAAXPEAU?$pair@$$CBV?$basic_string@DU?$char_traits@D@std@@V?$allocator@D@2@@std@@V12@@1@@Z 0000000000410a10 f i MyXmlParser.obj
 0001:0000fa70       ??$destroy@U?$pair@$$CBV?$basic_string@DU?$char_traits@D@std@@V?$allocator@D@2@@std@@V12@@std@@@?$allocator@U?$_Tree_node@U?$pair@$$CBV?$basic_string@DU?$char_traits@D@std@@V?$allocator@D@2@@std@@V12@@std@@PEAX@std@@@std@@QEAAXPEAU?$pair@$$CBV?$basic_string@DU?$char_traits@D@std@@V?$allocator@D@2@@std@@V12@@1@@Z 0000000000410a70 f i MyXmlParser.obj
 0001:0000fad0       ??$destroy@U?$pair@$$CBV?$basic_string@DU?$char_traits@D@std@@V?$allocator@D@2@@std@@V12@@std@@@?$allocator_traits@V?$allocator@U?$_Tree_node@U?$pair@$$CBV?$basic_string@DU?$char_traits@D@std@@V?$allocator@D@2@@std@@V12@@std@@PEAX@std@@@std@@@std@@SAXAEAV?$allocator@U?$_Tree_node@U?$pair@$$CBV?$basic_string@DU?$char_traits@D@std@@V?$allocator@D@2@@std@@V12@@std@@PEAX@std@@@1@PEAU?$pair@$$CBV?$basic_string@DU?$char_traits@D@std@@V?$allocator@D@2@@std@@V12@@1@@Z 0000000000410ad0 f i MyXmlParser.obj
 0001:0000fb30       ??$forward@AEAPEAU?$_Tree_node@U?$pair@$$CBV?$basic_string@DU?$char_traits@D@std@@V?$allocator@D@2@@std@@V12@@std@@PEAX@std@@@std@@YAAEAPEAU?$_Tree_node@U?$pair@$$CBV?$basic_string@DU?$char_traits@D@std@@V?$allocator@D@2@@std@@V12@@std@@PEAX@0@AEAPEAU10@@Z 0000000000410b30 f i MyXmlParser.obj
 0001:0000fb40       ??$forward@AEAU?$pair@$$CBV?$basic_string@DU?$char_traits@D@std@@V?$allocator@D@2@@std@@V12@@std@@@std@@YAAEAU?$pair@$$CBV?$basic_string@DU?$char_traits@D@std@@V?$allocator@D@2@@std@@V12@@0@AEAU10@@Z 0000000000410b40 f i MyXmlParser.obj
 0001:0000fb50       ??$forward@AEAV?$_Tree_iterator@V?$_Tree_val@U?$_Tree_simple_types@U?$pair@$$CBV?$basic_string@DU?$char_traits@D@std@@V?$allocator@D@2@@std@@V12@@std@@@std@@@std@@@std@@@std@@YAAEAV?$_Tree_iterator@V?$_Tree_val@U?$_Tree_simple_types@U?$pair@$$CBV?$basic_string@DU?$char_traits@D@std@@V?$allocator@D@2@@std@@V12@@std@@@std@@@std@@@0@AEAV10@@Z 0000000000410b50 f i MyXmlParser.obj
 0001:0000fb60       ??$forward@U?$pair@V?$basic_string@DU?$char_traits@D@std@@V?$allocator@D@2@@std@@V12@@std@@@std@@YA$$QEAU?$pair@V?$basic_string@DU?$char_traits@D@std@@V?$allocator@D@2@@std@@V12@@0@AEAU10@@Z 0000000000410b60 f i MyXmlParser.obj
 0001:0000fb70       ??$forward@V?$_Tree_iterator@V?$_Tree_val@U?$_Tree_simple_types@U?$pair@$$CBV?$basic_string@DU?$char_traits@D@std@@V?$allocator@D@2@@std@@V12@@std@@@std@@@std@@@std@@@std@@YA$$QEAV?$_Tree_iterator@V?$_Tree_val@U?$_Tree_simple_types@U?$pair@$$CBV?$basic_string@DU?$char_traits@D@std@@V?$allocator@D@2@@std@@V12@@std@@@std@@@std@@@0@AEAV10@@Z 0000000000410b70 f i MyXmlParser.obj
 0001:0000fb80       ??$insert@U?$pair@V?$basic_string@DU?$char_traits@D@std@@V?$allocator@D@2@@std@@V12@@std@@@?$_Tree@V?$_Tmap_traits@V?$basic_string@DU?$char_traits@D@std@@V?$allocator@D@2@@std@@V12@U?$less@V?$basic_string@DU?$char_traits@D@std@@V?$allocator@D@2@@std@@@2@V?$allocator@U?$pair@$$CBV?$basic_string@DU?$char_traits@D@std@@V?$allocator@D@2@@std@@V12@@std@@@2@$0A@@std@@@std@@QEAA?AU?$pair@V?$_Tree_iterator@V?$_Tree_val@U?$_Tree_simple_types@U?$pair@$$CBV?$basic_string@DU?$char_traits@D@std@@V?$allocator@D@2@@std@@V12@@std@@@std@@@std@@@std@@_N@1@$$QEAU?$pair@V?$basic_string@DU?$char_traits@D@std@@V?$allocator@D@2@@std@@V12@@1@@Z 0000000000410b80 f i MyXmlParser.obj
 0001:0000fbd0       ??0?$_Tree@V?$_Tmap_traits@V?$basic_string@DU?$char_traits@D@std@@V?$allocator@D@2@@std@@V12@U?$less@V?$basic_string@DU?$char_traits@D@std@@V?$allocator@D@2@@std@@@2@V?$allocator@U?$pair@$$CBV?$basic_string@DU?$char_traits@D@std@@V?$allocator@D@2@@std@@V12@@std@@@2@$0A@@std@@@std@@QEAA@AEBU?$less@V?$basic_string@DU?$char_traits@D@std@@V?$allocator@D@2@@std@@@1@AEBV?$allocator@U?$pair@$$CBV?$basic_string@DU?$char_traits@D@std@@V?$allocator@D@2@@std@@V12@@std@@@1@@Z 0000000000410bd0 f i MyXmlParser.obj
 0001:0000fc00       ??0?$_Tree_alloc@$0A@U?$_Tree_base_types@U?$pair@$$CBV?$basic_string@DU?$char_traits@D@std@@V?$allocator@D@2@@std@@V12@@std@@V?$allocator@U?$pair@$$CBV?$basic_string@DU?$char_traits@D@std@@V?$allocator@D@2@@std@@V12@@std@@@2@@std@@@std@@QEAA@AEBV?$allocator@U?$pair@$$CBV?$basic_string@DU?$char_traits@D@std@@V?$allocator@D@2@@std@@V12@@std@@@1@@Z 0000000000410c00 f i MyXmlParser.obj
 0001:0000fc30       ??0?$_Tree_buy@U?$pair@$$CBV?$basic_string@DU?$char_traits@D@std@@V?$allocator@D@2@@std@@V12@@std@@V?$allocator@U?$pair@$$CBV?$basic_string@DU?$char_traits@D@std@@V?$allocator@D@2@@std@@V12@@std@@@2@@std@@QEAA@AEBV?$allocator@U?$pair@$$CBV?$basic_string@DU?$char_traits@D@std@@V?$allocator@D@2@@std@@V12@@std@@@1@@Z 0000000000410c30 f i MyXmlParser.obj
 0001:0000fc60       ??0?$_Tree_comp@$0A@V?$_Tmap_traits@V?$basic_string@DU?$char_traits@D@std@@V?$allocator@D@2@@std@@V12@U?$less@V?$basic_string@DU?$char_traits@D@std@@V?$allocator@D@2@@std@@@2@V?$allocator@U?$pair@$$CBV?$basic_string@DU?$char_traits@D@std@@V?$allocator@D@2@@std@@V12@@std@@@2@$0A@@std@@@std@@QEAA@AEBU?$less@V?$basic_string@DU?$char_traits@D@std@@V?$allocator@D@2@@std@@@1@AEBV?$allocator@U?$pair@$$CBV?$basic_string@DU?$char_traits@D@std@@V?$allocator@D@2@@std@@V12@@std@@@1@@Z 0000000000410c60 f i MyXmlParser.obj
 0001:0000fc90       ??0?$_Tree_iterator@V?$_Tree_val@U?$_Tree_simple_types@U?$pair@$$CBV?$basic_string@DU?$char_traits@D@std@@V?$allocator@D@2@@std@@V12@@std@@@std@@@std@@@std@@QEAA@PEAU?$_Tree_node@U?$pair@$$CBV?$basic_string@DU?$char_traits@D@std@@V?$allocator@D@2@@std@@V12@@std@@PEAX@1@PEBV?$_Tree_val@U?$_Tree_simple_types@U?$pair@$$CBV?$basic_string@DU?$char_traits@D@std@@V?$allocator@D@2@@std@@V12@@std@@@std@@@1@@Z 0000000000410c90 f i MyXmlParser.obj
 0001:0000fca0       ??0?$_Tree_val@U?$_Tree_simple_types@U?$pair@$$CBV?$basic_string@DU?$char_traits@D@std@@V?$allocator@D@2@@std@@V12@@std@@@std@@@std@@QEAA@XZ 0000000000410ca0 f i MyXmlParser.obj
 0001:0000fcb0       ??0?$_Wrap_alloc@V?$allocator@U?$_Tree_node@U?$pair@$$CBV?$basic_string@DU?$char_traits@D@std@@V?$allocator@D@2@@std@@V12@@std@@PEAX@std@@@std@@@std@@QEAA@XZ 0000000000410cb0 f i MyXmlParser.obj
 0001:0000fcc0       ??0?$allocator@U?$_Tree_node@U?$pair@$$CBV?$basic_string@DU?$char_traits@D@std@@V?$allocator@D@2@@std@@V12@@std@@PEAX@std@@@std@@QEAA@XZ 0000000000410cc0 f i MyXmlParser.obj
 0001:0000fcd0       ??0?$allocator@U?$pair@$$CBV?$basic_string@DU?$char_traits@D@std@@V?$allocator@D@2@@std@@V12@@std@@@std@@QEAA@XZ 0000000000410cd0 f i MyXmlParser.obj
 0001:0000fce0       ??0?$map@V?$basic_string@DU?$char_traits@D@std@@V?$allocator@D@2@@std@@V12@U?$less@V?$basic_string@DU?$char_traits@D@std@@V?$allocator@D@2@@std@@@2@V?$allocator@U?$pair@$$CBV?$basic_string@DU?$char_traits@D@std@@V?$allocator@D@2@@std@@V12@@std@@@2@@std@@QEAA@XZ 0000000000410ce0 f i MyXmlParser.obj
 0001:0000fd10       ??0FeatureDocumentHandler@AwayJS@@QEAA@PEAVFeatureMatrix@1@@Z 0000000000410d10 f   MyXmlParser.obj
 0001:0000fd30       ??1?$_Tree@V?$_Tmap_traits@V?$basic_string@DU?$char_traits@D@std@@V?$allocator@D@2@@std@@V12@U?$less@V?$basic_string@DU?$char_traits@D@std@@V?$allocator@D@2@@std@@@2@V?$allocator@U?$pair@$$CBV?$basic_string@DU?$char_traits@D@std@@V?$allocator@D@2@@std@@V12@@std@@@2@$0A@@std@@@std@@QEAA@XZ 0000000000410d30 f i MyXmlParser.obj
 0001:0000fd60       ??1?$_Tree_alloc@$0A@U?$_Tree_base_types@U?$pair@$$CBV?$basic_string@DU?$char_traits@D@std@@V?$allocator@D@2@@std@@V12@@std@@V?$allocator@U?$pair@$$CBV?$basic_string@DU?$char_traits@D@std@@V?$allocator@D@2@@std@@V12@@std@@@2@@std@@@std@@QEAA@XZ 0000000000410d60 f i MyXmlParser.obj
 0001:0000fd70       ??1?$_Tree_buy@U?$pair@$$CBV?$basic_string@DU?$char_traits@D@std@@V?$allocator@D@2@@std@@V12@@std@@V?$allocator@U?$pair@$$CBV?$basic_string@DU?$char_traits@D@std@@V?$allocator@D@2@@std@@V12@@std@@@2@@std@@QEAA@XZ 0000000000410d70 f i MyXmlParser.obj
 0001:0000fd80       ??1?$_Tree_comp@$0A@V?$_Tmap_traits@V?$basic_string@DU?$char_traits@D@std@@V?$allocator@D@2@@std@@V12@U?$less@V?$basic_string@DU?$char_traits@D@std@@V?$allocator@D@2@@std@@@2@V?$allocator@U?$pair@$$CBV?$basic_string@DU?$char_traits@D@std@@V?$allocator@D@2@@std@@V12@@std@@@2@$0A@@std@@@std@@QEAA@XZ 0000000000410d80 f i MyXmlParser.obj
 0001:0000fd90       ??1?$map@V?$basic_string@DU?$char_traits@D@std@@V?$allocator@D@2@@std@@V12@U?$less@V?$basic_string@DU?$char_traits@D@std@@V?$allocator@D@2@@std@@@2@V?$allocator@U?$pair@$$CBV?$basic_string@DU?$char_traits@D@std@@V?$allocator@D@2@@std@@V12@@std@@@2@@std@@QEAA@XZ 0000000000410d90 f i MyXmlParser.obj
 0001:0000fdc0       ??1?$pair@$$CBV?$basic_string@DU?$char_traits@D@std@@V?$allocator@D@2@@std@@V12@@std@@QEAA@XZ 0000000000410dc0 f i MyXmlParser.obj
 0001:0000fe20       ??1?$pair@V?$basic_string@DU?$char_traits@D@std@@V?$allocator@D@2@@std@@V12@@std@@QEAA@XZ 0000000000410e20 f i MyXmlParser.obj
 0001:0000fe80       ??E?$_Tree_const_iterator@V?$_Tree_val@U?$_Tree_simple_types@U?$pair@$$CBV?$basic_string@DU?$char_traits@D@std@@V?$allocator@D@2@@std@@V12@@std@@@std@@@std@@@std@@QEAA?AV01@H@Z 0000000000410e80 f i MyXmlParser.obj
 0001:0000fee0       ??E?$_Tree_const_iterator@V?$_Tree_val@U?$_Tree_simple_types@U?$pair@$$CBV?$basic_string@DU?$char_traits@D@std@@V?$allocator@D@2@@std@@V12@@std@@@std@@@std@@@std@@QEAAAEAV01@XZ 0000000000410ee0 f i MyXmlParser.obj
 0001:0000ff40       ??E?$_Tree_unchecked_const_iterator@V?$_Tree_val@U?$_Tree_simple_types@U?$pair@$$CBV?$basic_string@DU?$char_traits@D@std@@V?$allocator@D@2@@std@@V12@@std@@@std@@@std@@U_Iterator_base0@2@@std@@QEAAAEAV01@XZ 0000000000410f40 f i MyXmlParser.obj
 0001:0000ffa0       ??F?$_Tree_const_iterator@V?$_Tree_val@U?$_Tree_simple_types@U?$pair@$$CBV?$basic_string@DU?$char_traits@D@std@@V?$allocator@D@2@@std@@V12@@std@@@std@@@std@@@std@@QEAAAEAV01@XZ 0000000000410fa0 f i MyXmlParser.obj
 0001:0000ffc0       ??F?$_Tree_iterator@V?$_Tree_val@U?$_Tree_simple_types@U?$pair@$$CBV?$basic_string@DU?$char_traits@D@std@@V?$allocator@D@2@@std@@V12@@std@@@std@@@std@@@std@@QEAAAEAV01@XZ 0000000000410fc0 f i MyXmlParser.obj
 0001:0000ffe0       ??F?$_Tree_unchecked_const_iterator@V?$_Tree_val@U?$_Tree_simple_types@U?$pair@$$CBV?$basic_string@DU?$char_traits@D@std@@V?$allocator@D@2@@std@@V12@@std@@@std@@@std@@U_Iterator_base0@2@@std@@QEAAAEAV01@XZ 0000000000410fe0 f i MyXmlParser.obj
 0001:00010060       ??_G?$pair@$$CBV?$basic_string@DU?$char_traits@D@std@@V?$allocator@D@2@@std@@V12@@std@@QEAAPEAXI@Z 0000000000411060 f i MyXmlParser.obj
 0001:000100e0       ??_EFeatureDocumentHandler@AwayJS@@UEAAPEAXI@Z 00000000004110e0 f i MyXmlParser.obj
 0001:000100e0       ??_GFeatureDocumentHandler@AwayJS@@UEAAPEAXI@Z 00000000004110e0 f i MyXmlParser.obj
 0001:00010110       ?_Buyheadnode@?$_Tree_alloc@$0A@U?$_Tree_base_types@U?$pair@$$CBV?$basic_string@DU?$char_traits@D@std@@V?$allocator@D@2@@std@@V12@@std@@V?$allocator@U?$pair@$$CBV?$basic_string@DU?$char_traits@D@std@@V?$allocator@D@2@@std@@V12@@std@@@2@@std@@@std@@QEAAPEAU?$_Tree_node@U?$pair@$$CBV?$basic_string@DU?$char_traits@D@std@@V?$allocator@D@2@@std@@V12@@std@@PEAX@2@XZ 0000000000411110 f i MyXmlParser.obj
 0001:00010160       ?_Buynode0@?$_Tree_buy@U?$pair@$$CBV?$basic_string@DU?$char_traits@D@std@@V?$allocator@D@2@@std@@V12@@std@@V?$allocator@U?$pair@$$CBV?$basic_string@DU?$char_traits@D@std@@V?$allocator@D@2@@std@@V12@@std@@@2@@std@@QEAAPEAU?$_Tree_node@U?$pair@$$CBV?$basic_string@DU?$char_traits@D@std@@V?$allocator@D@2@@std@@V12@@std@@PEAX@2@XZ 0000000000411160 f i MyXmlParser.obj
 0001:000101c0       ?_Color@?$_Tree_val@U?$_Tree_simple_types@U?$pair@$$CBV?$basic_string@DU?$char_traits@D@std@@V?$allocator@D@2@@std@@V12@@std@@@std@@@std@@SAAEADPEAU?$_Tree_node@U?$pair@$$CBV?$basic_string@DU?$char_traits@D@std@@V?$allocator@D@2@@std@@V12@@std@@PEAX@2@@Z 00000000004111c0 f i MyXmlParser.obj
 0001:000101d0       ?_Destroy_if_not_nil@?$_Tree@V?$_Tmap_traits@V?$basic_string@DU?$char_traits@D@std@@V?$allocator@D@2@@std@@V12@U?$less@V?$basic_string@DU?$char_traits@D@std@@V?$allocator@D@2@@std@@@2@V?$allocator@U?$pair@$$CBV?$basic_string@DU?$char_traits@D@std@@V?$allocator@D@2@@std@@V12@@std@@@2@$0A@@std@@@std@@IEAAXPEAU?$_Tree_node@U?$pair@$$CBV?$basic_string@DU?$char_traits@D@std@@V?$allocator@D@2@@std@@V12@@std@@PEAX@2@@Z 00000000004111d0 f i MyXmlParser.obj
 0001:00010230       ?_Erase@?$_Tree@V?$_Tmap_traits@V?$basic_string@DU?$char_traits@D@std@@V?$allocator@D@2@@std@@V12@U?$less@V?$basic_string@DU?$char_traits@D@std@@V?$allocator@D@2@@std@@@2@V?$allocator@U?$pair@$$CBV?$basic_string@DU?$char_traits@D@std@@V?$allocator@D@2@@std@@V12@@std@@@2@$0A@@std@@@std@@IEAAXPEAU?$_Tree_node@U?$pair@$$CBV?$basic_string@DU?$char_traits@D@std@@V?$allocator@D@2@@std@@V12@@std@@PEAX@2@@Z 0000000000411230 f i MyXmlParser.obj
 0001:000102e0       ?_Freeheadnode@?$_Tree_alloc@$0A@U?$_Tree_base_types@U?$pair@$$CBV?$basic_string@DU?$char_traits@D@std@@V?$allocator@D@2@@std@@V12@@std@@V?$allocator@U?$pair@$$CBV?$basic_string@DU?$char_traits@D@std@@V?$allocator@D@2@@std@@V12@@std@@@2@@std@@@std@@QEAAXPEAU?$_Tree_node@U?$pair@$$CBV?$basic_string@DU?$char_traits@D@std@@V?$allocator@D@2@@std@@V12@@std@@PEAX@2@@Z 00000000004112e0 f i MyXmlParser.obj
 0001:000102f0       ?_Freenode0@?$_Tree_buy@U?$pair@$$CBV?$basic_string@DU?$char_traits@D@std@@V?$allocator@D@2@@std@@V12@@std@@V?$allocator@U?$pair@$$CBV?$basic_string@DU?$char_traits@D@std@@V?$allocator@D@2@@std@@V12@@std@@@2@@std@@QEAAXPEAU?$_Tree_node@U?$pair@$$CBV?$basic_string@DU?$char_traits@D@std@@V?$allocator@D@2@@std@@V12@@std@@PEAX@2@@Z 00000000004112f0 f i MyXmlParser.obj
 0001:00010300       ?_Getal@?$_Tree_alloc@$0A@U?$_Tree_base_types@U?$pair@$$CBV?$basic_string@DU?$char_traits@D@std@@V?$allocator@D@2@@std@@V12@@std@@V?$allocator@U?$pair@$$CBV?$basic_string@DU?$char_traits@D@std@@V?$allocator@D@2@@std@@V12@@std@@@2@@std@@@std@@QEBA?AU?$_Wrap_alloc@V?$allocator@U?$_Tree_node@U?$pair@$$CBV?$basic_string@DU?$char_traits@D@std@@V?$allocator@D@2@@std@@V12@@std@@PEAX@std@@@std@@@2@XZ 0000000000411300 f i MyXmlParser.obj
 0001:00010310       ?_Lmost@?$_Tree@V?$_Tmap_traits@V?$basic_string@DU?$char_traits@D@std@@V?$allocator@D@2@@std@@V12@U?$less@V?$basic_string@DU?$char_traits@D@std@@V?$allocator@D@2@@std@@@2@V?$allocator@U?$pair@$$CBV?$basic_string@DU?$char_traits@D@std@@V?$allocator@D@2@@std@@V12@@std@@@2@$0A@@std@@@std@@IEBAAEAPEAU?$_Tree_node@U?$pair@$$CBV?$basic_string@DU?$char_traits@D@std@@V?$allocator@D@2@@std@@V12@@std@@PEAX@2@XZ 0000000000411310 f i MyXmlParser.obj
 0001:00010320       ?_Lrotate@?$_Tree@V?$_Tmap_traits@V?$basic_string@DU?$char_traits@D@std@@V?$allocator@D@2@@std@@V12@U?$less@V?$basic_string@DU?$char_traits@D@std@@V?$allocator@D@2@@std@@@2@V?$allocator@U?$pair@$$CBV?$basic_string@DU?$char_traits@D@std@@V?$allocator@D@2@@std@@V12@@std@@@2@$0A@@std@@@std@@IEAAXPEAU?$_Tree_node@U?$pair@$$CBV?$basic_string@DU?$char_traits@D@std@@V?$allocator@D@2@@std@@V12@@std@@PEAX@2@@Z 0000000000411320 f i MyXmlParser.obj
 0001:00010380       ?_Max@?$_Tree_val@U?$_Tree_simple_types@U?$pair@$$CBV?$basic_string@DU?$char_traits@D@std@@V?$allocator@D@2@@std@@V12@@std@@@std@@@std@@SAPEAU?$_Tree_node@U?$pair@$$CBV?$basic_string@DU?$char_traits@D@std@@V?$allocator@D@2@@std@@V12@@std@@PEAX@2@PEAU32@@Z 0000000000411380 f i MyXmlParser.obj
 0001:000103b0       ?_Min@?$_Tree_val@U?$_Tree_simple_types@U?$pair@$$CBV?$basic_string@DU?$char_traits@D@std@@V?$allocator@D@2@@std@@V12@@std@@@std@@@std@@SAPEAU?$_Tree_node@U?$pair@$$CBV?$basic_string@DU?$char_traits@D@std@@V?$allocator@D@2@@std@@V12@@std@@PEAX@2@PEAU32@@Z 00000000004113b0 f i MyXmlParser.obj
 0001:000103d0       ?_Rmost@?$_Tree@V?$_Tmap_traits@V?$basic_string@DU?$char_traits@D@std@@V?$allocator@D@2@@std@@V12@U?$less@V?$basic_string@DU?$char_traits@D@std@@V?$allocator@D@2@@std@@@2@V?$allocator@U?$pair@$$CBV?$basic_string@DU?$char_traits@D@std@@V?$allocator@D@2@@std@@V12@@std@@@2@$0A@@std@@@std@@IEBAAEAPEAU?$_Tree_node@U?$pair@$$CBV?$basic_string@DU?$char_traits@D@std@@V?$allocator@D@2@@std@@V12@@std@@PEAX@2@XZ 00000000004113d0 f i MyXmlParser.obj
 0001:000103e0       ?_Rrotate@?$_Tree@V?$_Tmap_traits@V?$basic_string@DU?$char_traits@D@std@@V?$allocator@D@2@@std@@V12@U?$less@V?$basic_string@DU?$char_traits@D@std@@V?$allocator@D@2@@std@@@2@V?$allocator@U?$pair@$$CBV?$basic_string@DU?$char_traits@D@std@@V?$allocator@D@2@@std@@V12@@std@@@2@$0A@@std@@@std@@IEAAXPEAU?$_Tree_node@U?$pair@$$CBV?$basic_string@DU?$char_traits@D@std@@V?$allocator@D@2@@std@@V12@@std@@PEAX@2@@Z 00000000004113e0 f i MyXmlParser.obj
 0001:00010440       ?_Tidy@?$_Tree@V?$_Tmap_traits@V?$basic_string@DU?$char_traits@D@std@@V?$allocator@D@2@@std@@V12@U?$less@V?$basic_string@DU?$char_traits@D@std@@V?$allocator@D@2@@std@@@2@V?$allocator@U?$pair@$$CBV?$basic_string@DU?$char_traits@D@std@@V?$allocator@D@2@@std@@V12@@std@@@2@$0A@@std@@@std@@IEAAXXZ 0000000000411440 f i MyXmlParser.obj
 0001:00010460       ?allocate@?$_Wrap_alloc@V?$allocator@U?$_Tree_node@U?$pair@$$CBV?$basic_string@DU?$char_traits@D@std@@V?$allocator@D@2@@std@@V12@@std@@PEAX@std@@@std@@@std@@QEAAPEAU?$_Tree_node@U?$pair@$$CBV?$basic_string@DU?$char_traits@D@std@@V?$allocator@D@2@@std@@V12@@std@@PEAX@2@_K@Z 0000000000411460 f i MyXmlParser.obj
 0001:000104a0       ?allocate@?$allocator@U?$_Tree_node@U?$pair@$$CBV?$basic_string@DU?$char_traits@D@std@@V?$allocator@D@2@@std@@V12@@std@@PEAX@std@@@std@@QEAAPEAU?$_Tree_node@U?$pair@$$CBV?$basic_string@DU?$char_traits@D@std@@V?$allocator@D@2@@std@@V12@@std@@PEAX@2@_K@Z 00000000004114a0 f i MyXmlParser.obj
 0001:000104e0       ?begin@?$_Tree@V?$_Tmap_traits@V?$basic_string@DU?$char_traits@D@std@@V?$allocator@D@2@@std@@V12@U?$less@V?$basic_string@DU?$char_traits@D@std@@V?$allocator@D@2@@std@@@2@V?$allocator@U?$pair@$$CBV?$basic_string@DU?$char_traits@D@std@@V?$allocator@D@2@@std@@V12@@std@@@2@$0A@@std@@@std@@QEAA?AV?$_Tree_iterator@V?$_Tree_val@U?$_Tree_simple_types@U?$pair@$$CBV?$basic_string@DU?$char_traits@D@std@@V?$allocator@D@2@@std@@V12@@std@@@std@@@std@@@2@XZ 00000000004114e0 f i MyXmlParser.obj
 0001:000104f0       ?characters@FeatureDocumentHandler@AwayJS@@UEAAXQEBG_K@Z 00000000004114f0 f i MyXmlParser.obj
 0001:00010500       ?clear@?$_Tree@V?$_Tmap_traits@V?$basic_string@DU?$char_traits@D@std@@V?$allocator@D@2@@std@@V12@U?$less@V?$basic_string@DU?$char_traits@D@std@@V?$allocator@D@2@@std@@@2@V?$allocator@U?$pair@$$CBV?$basic_string@DU?$char_traits@D@std@@V?$allocator@D@2@@std@@V12@@std@@@2@$0A@@std@@@std@@QEAAXXZ 0000000000411500 f i MyXmlParser.obj
 0001:00010540       ?deallocate@?$_Wrap_alloc@V?$allocator@U?$_Tree_node@U?$pair@$$CBV?$basic_string@DU?$char_traits@D@std@@V?$allocator@D@2@@std@@V12@@std@@PEAX@std@@@std@@@std@@QEAAXPEAU?$_Tree_node@U?$pair@$$CBV?$basic_string@DU?$char_traits@D@std@@V?$allocator@D@2@@std@@V12@@std@@PEAX@2@_K@Z 0000000000411540 f i MyXmlParser.obj
 0001:00010550       ?deallocate@?$allocator@U?$_Tree_node@U?$pair@$$CBV?$basic_string@DU?$char_traits@D@std@@V?$allocator@D@2@@std@@V12@@std@@PEAX@std@@@std@@QEAAXPEAU?$_Tree_node@U?$pair@$$CBV?$basic_string@DU?$char_traits@D@std@@V?$allocator@D@2@@std@@V12@@std@@PEAX@2@_K@Z 0000000000411550 f i MyXmlParser.obj
 0001:00010560       ?end@?$_Tree@V?$_Tmap_traits@V?$basic_string@DU?$char_traits@D@std@@V?$allocator@D@2@@std@@V12@U?$less@V?$basic_string@DU?$char_traits@D@std@@V?$allocator@D@2@@std@@@2@V?$allocator@U?$pair@$$CBV?$basic_string@DU?$char_traits@D@std@@V?$allocator@D@2@@std@@V12@@std@@@2@$0A@@std@@@std@@QEAA?AV?$_Tree_iterator@V?$_Tree_val@U?$_Tree_simple_types@U?$pair@$$CBV?$basic_string@DU?$char_traits@D@std@@V?$allocator@D@2@@std@@V12@@std@@@std@@@std@@@2@XZ 0000000000411560 f i MyXmlParser.obj
 0001:00010570       ?endDocument@FeatureDocumentHandler@AwayJS@@UEAAXXZ 0000000000411570 f i MyXmlParser.obj
 0001:00010580       ?endElement@FeatureDocumentHandler@AwayJS@@UEAAXQEBG@Z 0000000000411580 f   MyXmlParser.obj
 0001:00010680       ?erase@?$_Tree@V?$_Tmap_traits@V?$basic_string@DU?$char_traits@D@std@@V?$allocator@D@2@@std@@V12@U?$less@V?$basic_string@DU?$char_traits@D@std@@V?$allocator@D@2@@std@@@2@V?$allocator@U?$pair@$$CBV?$basic_string@DU?$char_traits@D@std@@V?$allocator@D@2@@std@@V12@@std@@@2@$0A@@std@@@std@@QEAA?AV?$_Tree_iterator@V?$_Tree_val@U?$_Tree_simple_types@U?$pair@$$CBV?$basic_string@DU?$char_traits@D@std@@V?$allocator@D@2@@std@@V12@@std@@@std@@@std@@@2@V?$_Tree_const_iterator@V?$_Tree_val@U?$_Tree_simple_types@U?$pair@$$CBV?$basic_string@DU?$char_traits@D@std@@V?$allocator@D@2@@std@@V12@@std@@@std@@@std@@@2@0@Z 0000000000411680 f i MyXmlParser.obj
 0001:00010780       ?erase@?$_Tree@V?$_Tmap_traits@V?$basic_string@DU?$char_traits@D@std@@V?$allocator@D@2@@std@@V12@U?$less@V?$basic_string@DU?$char_traits@D@std@@V?$allocator@D@2@@std@@@2@V?$allocator@U?$pair@$$CBV?$basic_string@DU?$char_traits@D@std@@V?$allocator@D@2@@std@@V12@@std@@@2@$0A@@std@@@std@@QEAA?AV?$_Tree_iterator@V?$_Tree_val@U?$_Tree_simple_types@U?$pair@$$CBV?$basic_string@DU?$char_traits@D@std@@V?$allocator@D@2@@std@@V12@@std@@@std@@@std@@@2@V?$_Tree_const_iterator@V?$_Tree_val@U?$_Tree_simple_types@U?$pair@$$CBV?$basic_string@DU?$char_traits@D@std@@V?$allocator@D@2@@std@@V12@@std@@@std@@@std@@@2@@Z 0000000000411780 f i MyXmlParser.obj
 0001:00010b00       ?ignorableWhitespace@FeatureDocumentHandler@AwayJS@@UEAAXQEBG_K@Z 0000000000411b00 f i MyXmlParser.obj
 0001:00010b10       ?max_size@?$_Tree@V?$_Tmap_traits@V?$basic_string@DU?$char_traits@D@std@@V?$allocator@D@2@@std@@V12@U?$less@V?$basic_string@DU?$char_traits@D@std@@V?$allocator@D@2@@std@@@2@V?$allocator@U?$pair@$$CBV?$basic_string@DU?$char_traits@D@std@@V?$allocator@D@2@@std@@V12@@std@@@2@$0A@@std@@@std@@QEBA_KXZ 0000000000411b10 f i MyXmlParser.obj
 0001:00010b20       ?max_size@?$_Wrap_alloc@V?$allocator@U?$_Tree_node@U?$pair@$$CBV?$basic_string@DU?$char_traits@D@std@@V?$allocator@D@2@@std@@V12@@std@@PEAX@std@@@std@@@std@@QEBA_KXZ 0000000000411b20 f i MyXmlParser.obj
 0001:00010b30       ?max_size@?$allocator@U?$_Tree_node@U?$pair@$$CBV?$basic_string@DU?$char_traits@D@std@@V?$allocator@D@2@@std@@V12@@std@@PEAX@std@@@std@@QEBA_KXZ 0000000000411b30 f i MyXmlParser.obj
 0001:00010b40       ?max_size@?$allocator_traits@V?$allocator@U?$_Tree_node@U?$pair@$$CBV?$basic_string@DU?$char_traits@D@std@@V?$allocator@D@2@@std@@V12@@std@@PEAX@std@@@std@@@std@@SA_KAEBV?$allocator@U?$_Tree_node@U?$pair@$$CBV?$basic_string@DU?$char_traits@D@std@@V?$allocator@D@2@@std@@V12@@std@@PEAX@std@@@2@@Z 0000000000411b40 f i MyXmlParser.obj
 0001:00010b50       ?processingInstruction@FeatureDocumentHandler@AwayJS@@UEAAXQEBG0@Z 0000000000411b50 f i MyXmlParser.obj
 0001:00010b60       ?resetDocument@FeatureDocumentHandler@AwayJS@@UEAAXXZ 0000000000411b60 f i MyXmlParser.obj
 0001:00010b70       ?setDocumentLocator@FeatureDocumentHandler@AwayJS@@UEAAXQEBVLocator@xercesc_3_1@@@Z 0000000000411b70 f i MyXmlParser.obj
 0001:00010b80       ?startDocument@FeatureDocumentHandler@AwayJS@@UEAAXXZ 0000000000411b80 f i MyXmlParser.obj
 0001:00010b90       ?startElement@FeatureDocumentHandler@AwayJS@@UEAAXQEBGAEAVAttributeList@xercesc_3_1@@@Z 0000000000411b90 f   MyXmlParser.obj
 0001:00010fe0       ??$?0VIFCMUnknown@FCM@@@?$AutoPtr@VIMovieClip@FrameElement@DOM@@@FCM@@QEAA@PEAVIFCMUnknown@1@@Z 0000000000411fe0 f i OutputWriter.obj
 0001:00011020       ??$?8DU?$char_traits@D@std@@V?$allocator@D@1@@std@@YA_NAEBV?$basic_string@DU?$char_traits@D@std@@V?$allocator@D@2@@0@PEBD@Z 0000000000412020 f i OutputWriter.obj
 0001:00011060       ??$?9DU?$char_traits@D@std@@V?$allocator@D@1@@std@@YA_NAEBV?$basic_string@DU?$char_traits@D@std@@V?$allocator@D@2@@0@PEBD@Z 0000000000412060 f i OutputWriter.obj
 0001:000110a0       ??$?HDU?$char_traits@D@std@@V?$allocator@D@1@@std@@YA?AV?$basic_string@DU?$char_traits@D@std@@V?$allocator@D@2@@0@AEBV10@PEBD@Z 00000000004120a0 f i OutputWriter.obj
 0001:00011180       ??$?HDU?$char_traits@D@std@@V?$allocator@D@1@@std@@YA?AV?$basic_string@DU?$char_traits@D@std@@V?$allocator@D@2@@0@PEBD$$QEAV10@@Z 0000000000412180 f i OutputWriter.obj
 0001:000111d0       ??$?HDU?$char_traits@D@std@@V?$allocator@D@1@@std@@YA?AV?$basic_string@DU?$char_traits@D@std@@V?$allocator@D@2@@0@PEBDAEBV10@@Z 00000000004121d0 f i OutputWriter.obj
 0001:000112b0       ??$IsSameUnknown@VIFCMUnknown@FCM@@@?$AutoPtr@VIMovieClip@FrameElement@DOM@@@FCM@@QEAA_NPEAVIFCMUnknown@1@@Z 00000000004122b0 f i OutputWriter.obj
 0001:000113c0       ??$_Destroy_range@U?$_Wrap_alloc@V?$allocator@PEAUEdge@p2t@@@std@@@std@@@std@@YAXPEAPEAUEdge@p2t@@0AEAU?$_Wrap_alloc@V?$allocator@PEAUEdge@p2t@@@std@@@0@@Z 00000000004123c0 f i OutputWriter.obj
 0001:000113d0       ??$_Destroy_range@U?$_Wrap_alloc@V?$allocator@PEAUEdge@p2t@@@std@@@std@@@std@@YAXPEAPEAUEdge@p2t@@0AEAU?$_Wrap_alloc@V?$allocator@PEAUEdge@p2t@@@std@@@0@U_Scalar_ptr_iterator_tag@0@@Z 00000000004123d0 f i OutputWriter.obj
 0001:000113e0       ??$_Destroy_range@U?$_Wrap_alloc@V?$allocator@PEAVAWDFrameCommand@@@std@@@std@@@std@@YAXPEAPEAVAWDFrameCommand@@0AEAU?$_Wrap_alloc@V?$allocator@PEAVAWDFrameCommand@@@std@@@0@@Z 00000000004123e0 f i OutputWriter.obj
 0001:000113f0       ??$_Destroy_range@U?$_Wrap_alloc@V?$allocator@PEAVAWDFrameCommand@@@std@@@std@@@std@@YAXPEAPEAVAWDFrameCommand@@0AEAU?$_Wrap_alloc@V?$allocator@PEAVAWDFrameCommand@@@std@@@0@U_Scalar_ptr_iterator_tag@0@@Z 00000000004123f0 f i OutputWriter.obj
 0001:00011400       ??$_Destroy_range@U?$_Wrap_alloc@V?$allocator@PEAVAWDTimeLineFrame@@@std@@@std@@@std@@YAXPEAPEAVAWDTimeLineFrame@@0AEAU?$_Wrap_alloc@V?$allocator@PEAVAWDTimeLineFrame@@@std@@@0@@Z 0000000000412400 f i OutputWriter.obj
 0001:00011410       ??$_Destroy_range@U?$_Wrap_alloc@V?$allocator@PEAVAWDTimeLineFrame@@@std@@@std@@@std@@YAXPEAPEAVAWDTimeLineFrame@@0AEAU?$_Wrap_alloc@V?$allocator@PEAVAWDTimeLineFrame@@@std@@@0@U_Scalar_ptr_iterator_tag@0@@Z 0000000000412410 f i OutputWriter.obj
 0001:00011420       ??$_Ptr_cat@PEAUEdge@p2t@@PEAU12@@std@@YA?AU_Scalar_ptr_iterator_tag@0@PEAPEAUEdge@p2t@@0@Z 0000000000412420 f i OutputWriter.obj
 0001:00011430       ??$_Ptr_cat@PEAVAWDFrameCommand@@PEAV1@@std@@YA?AU_Scalar_ptr_iterator_tag@0@PEAPEAVAWDFrameCommand@@0@Z 0000000000412430 f i OutputWriter.obj
 0001:00011440       ??$_Ptr_cat@PEAVAWDTimeLineFrame@@PEAV1@@std@@YA?AU_Scalar_ptr_iterator_tag@0@PEAPEAVAWDTimeLineFrame@@0@Z 0000000000412440 f i OutputWriter.obj
 0001:00011450       ??$assign@V?$_String_iterator@V?$_String_val@U?$_Simple_types@D@std@@@std@@@std@@@?$basic_string@DU?$char_traits@D@std@@V?$allocator@D@2@@std@@QEAAAEAV01@V?$_String_iterator@V?$_String_val@U?$_Simple_types@D@std@@@std@@@1@0@Z 0000000000412450 f i OutputWriter.obj
 0001:000114a0       ??$move@AEAV?$basic_string@DU?$char_traits@D@std@@V?$allocator@D@2@@std@@@std@@YA$$QEAV?$basic_string@DU?$char_traits@D@std@@V?$allocator@D@2@@0@AEAV10@@Z 00000000004124a0 f i OutputWriter.obj
 0001:000114b0       ??0?$_Vector_alloc@$0A@U?$_Vec_base_types@PEAUEdge@p2t@@V?$allocator@PEAUEdge@p2t@@@std@@@std@@@std@@QEAA@AEBV?$allocator@PEAUEdge@p2t@@@1@@Z 00000000004124b0 f i OutputWriter.obj
 0001:000114d0       ??0?$_Vector_alloc@$0A@U?$_Vec_base_types@PEAVAWDFrameCommand@@V?$allocator@PEAVAWDFrameCommand@@@std@@@std@@@std@@QEAA@AEBV?$allocator@PEAVAWDFrameCommand@@@1@@Z 00000000004124d0 f i OutputWriter.obj
 0001:000114f0       ??0?$_Vector_alloc@$0A@U?$_Vec_base_types@PEAVAWDTimeLineFrame@@V?$allocator@PEAVAWDTimeLineFrame@@@std@@@std@@@std@@QEAA@AEBV?$allocator@PEAVAWDTimeLineFrame@@@1@@Z 00000000004124f0 f i OutputWriter.obj
 0001:00011510       ??0?$_Vector_val@U?$_Simple_types@PEAUEdge@p2t@@@std@@@std@@QEAA@XZ 0000000000412510 f i OutputWriter.obj
 0001:00011530       ??0?$_Vector_val@U?$_Simple_types@PEAVAWDFrameCommand@@@std@@@std@@QEAA@XZ 0000000000412530 f i OutputWriter.obj
 0001:00011550       ??0?$_Vector_val@U?$_Simple_types@PEAVAWDTimeLineFrame@@@std@@@std@@QEAA@XZ 0000000000412550 f i OutputWriter.obj
 0001:00011570       ??0?$_Wrap_alloc@V?$allocator@PEAUEdge@p2t@@@std@@@std@@QEAA@XZ 0000000000412570 f i OutputWriter.obj
 0001:00011580       ??0?$_Wrap_alloc@V?$allocator@PEAVAWDFrameCommand@@@std@@@std@@QEAA@XZ 0000000000412580 f i OutputWriter.obj
 0001:00011590       ??0?$_Wrap_alloc@V?$allocator@PEAVAWDTimeLineFrame@@@std@@@std@@QEAA@XZ 0000000000412590 f i OutputWriter.obj
 0001:000115a0       ??0?$allocator@PEAUEdge@p2t@@@std@@QEAA@XZ 00000000004125a0 f i OutputWriter.obj
 0001:000115b0       ??0?$allocator@PEAVAWDFrameCommand@@@std@@QEAA@XZ 00000000004125b0 f i OutputWriter.obj
 0001:000115c0       ??0?$allocator@PEAVAWDTimeLineFrame@@@std@@QEAA@XZ 00000000004125c0 f i OutputWriter.obj
 0001:000115d0       ??0?$basic_string@DU?$char_traits@D@std@@V?$allocator@D@2@@std@@QEAA@AEBV01@_K1AEBV?$allocator@D@1@@Z 00000000004125d0 f i OutputWriter.obj
 0001:00011600       ??0?$vector@PEAUEdge@p2t@@V?$allocator@PEAUEdge@p2t@@@std@@@std@@QEAA@XZ 0000000000412600 f i OutputWriter.obj
 0001:00011620       ??0?$vector@PEAVAWDFrameCommand@@V?$allocator@PEAVAWDFrameCommand@@@std@@@std@@QEAA@XZ 0000000000412620 f i OutputWriter.obj
 0001:00011640       ??0?$vector@PEAVAWDTimeLineFrame@@V?$allocator@PEAVAWDTimeLineFrame@@@std@@@std@@QEAA@XZ 0000000000412640 f i OutputWriter.obj
 0001:00011660       ??0AWDOutputWriter@AwayJS@@QEAA@PEAVIFCMCallback@FCM@@@Z 0000000000412660 f   OutputWriter.obj
 0001:000116f0       ??0AWDTimelineWriter@AwayJS@@QEAA@PEAVAWD@@PEAVIFCMCallback@FCM@@@Z 00000000004126f0 f   OutputWriter.obj
 0001:000118b0       ??0IOutputWriter@AwayJS@@QEAA@XZ 00000000004128b0 f i OutputWriter.obj
 0001:000118c0       ??0ITimelineWriter@AwayJS@@QEAA@XZ 00000000004128c0 f i OutputWriter.obj
 0001:000118d0       ??0Point@p2t@@QEAA@NN@Z    00000000004128d0 f i OutputWriter.obj
 0001:000118f0       ??1?$AutoPtr@VIMovieClip@FrameElement@DOM@@@FCM@@QEAA@XZ 00000000004128f0 f i OutputWriter.obj
 0001:00011920       ??1?$vector@PEAUEdge@p2t@@V?$allocator@PEAUEdge@p2t@@@std@@@std@@QEAA@XZ 0000000000412920 f i OutputWriter.obj
 0001:00011950       ??1?$vector@PEAVAWDFrameCommand@@V?$allocator@PEAVAWDFrameCommand@@@std@@@std@@QEAA@XZ 0000000000412950 f i OutputWriter.obj
 0001:00011980       ??1?$vector@PEAVAWDTimeLineFrame@@V?$allocator@PEAVAWDTimeLineFrame@@@std@@@std@@QEAA@XZ 0000000000412980 f i OutputWriter.obj
 0001:000119b0       ??1AWDOutputWriter@AwayJS@@UEAA@XZ 00000000004129b0 f   OutputWriter.obj
 0001:00011ab0       ??1AWDTimelineWriter@AwayJS@@UEAA@XZ 0000000000412ab0 f   OutputWriter.obj
 0001:00011b10       ??4?$basic_string@DU?$char_traits@D@std@@V?$allocator@D@2@@std@@QEAAAEAV01@$$QEAV01@@Z 0000000000412b10 f i OutputWriter.obj
 0001:00011b60       ??4?$basic_string@DU?$char_traits@D@std@@V?$allocator@D@2@@std@@QEAAAEAV01@PEBD@Z 0000000000412b60 f i OutputWriter.obj
 0001:00011b80       ??8?$_String_const_iterator@V?$_String_val@U?$_Simple_types@D@std@@@std@@@std@@QEBA_NAEBV01@@Z 0000000000412b80 f i OutputWriter.obj
 0001:00011b90       ??B?$AutoPtr@VIMovieClip@FrameElement@DOM@@@FCM@@QEBA_NXZ 0000000000412b90 f i OutputWriter.obj
 0001:00011ba0       ??C?$AutoPtr@VIMovieClip@FrameElement@DOM@@@FCM@@QEBAPEAVIMovieClip@FrameElement@DOM@@XZ 0000000000412ba0 f i OutputWriter.obj
 0001:00011bb0       ??G?$_String_const_iterator@V?$_String_val@U?$_Simple_types@D@std@@@std@@@std@@QEBA_JAEBV01@@Z 0000000000412bb0 f i OutputWriter.obj
 0001:00011bc0       ??G?$_String_iterator@V?$_String_val@U?$_Simple_types@D@std@@@std@@@std@@QEBA_JAEBV?$_String_const_iterator@V?$_String_val@U?$_Simple_types@D@std@@@std@@@1@@Z 0000000000412bc0 f i OutputWriter.obj
 0001:00011bd0       ??Y?$basic_string@DU?$char_traits@D@std@@V?$allocator@D@2@@std@@QEAAAEAV01@AEBV01@@Z 0000000000412bd0 f i OutputWriter.obj
 0001:00011be0       ??_GAWDOutputWriter@AwayJS@@UEAAPEAXI@Z 0000000000412be0 f i OutputWriter.obj
 0001:00011be0       ??_EAWDOutputWriter@AwayJS@@UEAAPEAXI@Z 0000000000412be0 f i OutputWriter.obj
 0001:00011c10       ??_EAWDTimelineWriter@AwayJS@@UEAAPEAXI@Z 0000000000412c10 f i OutputWriter.obj
 0001:00011c10       ??_GAWDTimelineWriter@AwayJS@@UEAAPEAXI@Z 0000000000412c10 f i OutputWriter.obj
 0001:00011c90       ?AddFrameScript@AWDTimelineWriter@AwayJS@@UEAAIPEBGI@Z 0000000000412c90 f   OutputWriter.obj
 0001:00011f20       ?AddGraphicFilter@AWDTimelineWriter@AwayJS@@UEAAIIPEAVIFCMUnknown@FCM@@@Z 0000000000412f20 f   OutputWriter.obj
 0001:00011f80       ?DefineBitmap@AWDOutputWriter@AwayJS@@UEAAIIHHPEAGPEAVIMediaItem@LibraryItem@DOM@@@Z 0000000000412f80 f   OutputWriter.obj
 0001:00011fa0       ?DefineBitmapFillStyle@AWDOutputWriter@AwayJS@@UEAAIEAEBUMATRIX2D@Utils@DOM@@HHPEAGPEAVIMediaItem@LibraryItem@5@@Z 0000000000412fa0 f   OutputWriter.obj
 0001:000123e0       ?DefineSolidFillStyle@AWDOutputWriter@AwayJS@@UEAAIAEBUCOLOR@Utils@DOM@@@Z 00000000004133e0 f   OutputWriter.obj
 0001:00012430       ?DefineSound@AWDOutputWriter@AwayJS@@UEAAIIAEBV?$basic_string@DU?$char_traits@D@std@@V?$allocator@D@2@@std@@PEAVIMediaItem@LibraryItem@DOM@@@Z 0000000000413430 f   OutputWriter.obj
 0001:00012440       ?DefineText@AWDOutputWriter@AwayJS@@UEAAIIAEBV?$basic_string@DU?$char_traits@D@std@@V?$allocator@D@2@@std@@AEBUCOLOR@Utils@DOM@@0PEAVIClassicText@FrameElement@7@@Z 0000000000413440 f   OutputWriter.obj
 0001:00012680       ?EndDefineBoundary@AWDOutputWriter@AwayJS@@UEAAIXZ 0000000000413680 f   OutputWriter.obj
 0001:00012690       ?EndDefineFill@AWDOutputWriter@AwayJS@@UEAAIXZ 0000000000413690 f   OutputWriter.obj
 0001:000126b0       ?EndDefineHole@AWDOutputWriter@AwayJS@@UEAAIXZ 00000000004136b0 f   OutputWriter.obj
 0001:000126c0       ?EndDefineLinearGradientFillStyle@AWDOutputWriter@AwayJS@@UEAAIXZ 00000000004136c0 f   OutputWriter.obj
 0001:000126d0       ?EndDefinePath@AWDOutputWriter@AwayJS@@UEAAIXZ 00000000004136d0 f   OutputWriter.obj
 0001:000126e0       ?EndDefineRadialGradientFillStyle@AWDOutputWriter@AwayJS@@UEAAIXZ 00000000004136e0 f   OutputWriter.obj
 0001:000126f0       ?EndDefineShape@AWDOutputWriter@AwayJS@@UEAAII@Z 00000000004136f0 f   OutputWriter.obj
 0001:00012770       ?EndDefineSolidStrokeStyle@AWDOutputWriter@AwayJS@@UEAAIXZ 0000000000413770 f   OutputWriter.obj
 0001:00012780       ?EndDefineStroke@AWDOutputWriter@AwayJS@@UEAAIXZ 0000000000413780 f   OutputWriter.obj
 0001:00012790       ?EndDefineStrokeGroup@AWDOutputWriter@AwayJS@@UEAAIXZ 0000000000413790 f   OutputWriter.obj
 0001:000127a0       ?EndDefineTimeline@AWDOutputWriter@AwayJS@@UEAAIIPEAGPEAVITimelineWriter@2@@Z 00000000004137a0 f   OutputWriter.obj
 0001:000127c0       ?EndDocument@AWDOutputWriter@AwayJS@@UEAAIXZ 00000000004137c0 f   OutputWriter.obj
 0001:000127d0       ?EndOutput@AWDOutputWriter@AwayJS@@UEAAIXZ 00000000004137d0 f   OutputWriter.obj
 0001:000127e0       ?Finish@AWDTimelineWriter@AwayJS@@QEAAXIPEAG@Z 00000000004137e0 f   OutputWriter.obj
 0001:000128c0       ?GetIID@IMovieClip@FrameElement@DOM@@SA?AUFCMGUID@FCM@@XZ 00000000004138c0 f i OutputWriter.obj
 0001:000128f0       ?GetRoot@AWDTimelineWriter@AwayJS@@QEAAPEAVAWDShape2DTimeline@@XZ 00000000004138f0 f   OutputWriter.obj
 0001:00012900       ?PlaceObject@AWDTimelineWriter@AwayJS@@UEAAIIIIPEBUMATRIX2D@Utils@DOM@@PEAVIFCMUnknown@FCM@@@Z 0000000000413900 f   OutputWriter.obj
 0001:00012b00       ?PlaceObject@AWDTimelineWriter@AwayJS@@UEAAIIIPEAVIFCMUnknown@FCM@@@Z 0000000000413b00 f   OutputWriter.obj
 0001:00012b10       ?RemoveFrameScript@AWDTimelineWriter@AwayJS@@UEAAII@Z 0000000000413b10 f   OutputWriter.obj
 0001:00012b30       ?RemoveObject@AWDTimelineWriter@AwayJS@@UEAAII@Z 0000000000413b30 f   OutputWriter.obj
 0001:00012bb0       ?Reset@?$AutoPtr@VIMovieClip@FrameElement@DOM@@@FCM@@QEAAXXZ 0000000000413bb0 f i OutputWriter.obj
 0001:00012be0       ?SetFrameLabel@AWDTimelineWriter@AwayJS@@UEAAIPEAGW4KeyFrameLabelType@DOM@@@Z 0000000000413be0 f   OutputWriter.obj
 0001:00012c70       ?SetKeyColorPoint@AWDOutputWriter@AwayJS@@UEAAIAEBUGRADIENT_COLOR_POINT@Utils@DOM@@@Z 0000000000413c70 f   OutputWriter.obj
 0001:00012c80       ?SetSegment@AWDOutputWriter@AwayJS@@UEAAIAEBUSEGMENT@Utils@DOM@@@Z 0000000000413c80 f   OutputWriter.obj
 0001:00012ea0       ?ShowFrame@AWDTimelineWriter@AwayJS@@UEAAII@Z 0000000000413ea0 f   OutputWriter.obj
 0001:00012fd0       ?StartDefineBoundary@AWDOutputWriter@AwayJS@@UEAAIXZ 0000000000413fd0 f   OutputWriter.obj
 0001:00012fe0       ?StartDefineFill@AWDOutputWriter@AwayJS@@UEAAIXZ 0000000000413fe0 f   OutputWriter.obj
 0001:00012ff0       ?StartDefineHole@AWDOutputWriter@AwayJS@@UEAAIXZ 0000000000413ff0 f   OutputWriter.obj
 0001:00013030       ?StartDefineLinearGradientFillStyle@AWDOutputWriter@AwayJS@@UEAAIW4GradientSpread@FillStyle@DOM@@AEBUMATRIX2D@Utils@5@@Z 0000000000414030 f   OutputWriter.obj
 0001:00013060       ?StartDefinePath@AWDOutputWriter@AwayJS@@UEAAIXZ 0000000000414060 f   OutputWriter.obj
 0001:00013070       ?StartDefineRadialGradientFillStyle@AWDOutputWriter@AwayJS@@UEAAIW4GradientSpread@FillStyle@DOM@@AEBUMATRIX2D@Utils@5@H@Z 0000000000414070 f   OutputWriter.obj
 0001:000130a0       ?StartDefineShape@AWDOutputWriter@AwayJS@@UEAAIXZ 00000000004140a0 f   OutputWriter.obj
 0001:00013150       ?StartDefineSolidStrokeStyle@AWDOutputWriter@AwayJS@@UEAAINAEBUJOIN_STYLE@StrokeStyle@DOM@@AEBUCAP_STYLE@45@W4ScaleType@Utils@5@E@Z 0000000000414150 f   OutputWriter.obj
 0001:00013160       ?StartDefineStroke@AWDOutputWriter@AwayJS@@UEAAIXZ 0000000000414160 f   OutputWriter.obj
 0001:00013180       ?StartDefineStrokeGroup@AWDOutputWriter@AwayJS@@UEAAIXZ 0000000000414180 f   OutputWriter.obj
 0001:00013190       ?StartDefineTimeline@AWDOutputWriter@AwayJS@@UEAAIXZ 0000000000414190 f   OutputWriter.obj
 0001:000131a0       ?StartDocument@AWDOutputWriter@AwayJS@@UEAAIAEBUCOLOR@Utils@DOM@@II@Z 00000000004141a0 f   OutputWriter.obj
 0001:000131b0       ?StartOutput@AWDOutputWriter@AwayJS@@UEAAIAEAV?$basic_string@DU?$char_traits@D@std@@V?$allocator@D@2@@std@@@Z 00000000004141b0 f   OutputWriter.obj
 0001:000131c0       ?UpdateBlendMode@AWDTimelineWriter@AwayJS@@UEAAIIW4BlendMode@FrameElement@DOM@@@Z 00000000004141c0 f   OutputWriter.obj
 0001:000131d0       ?UpdateColorTransform@AWDTimelineWriter@AwayJS@@UEAAIIAEBUCOLOR_MATRIX@Utils@DOM@@@Z 00000000004141d0 f   OutputWriter.obj
 0001:000132a0       ?UpdateDisplayTransform@AWDTimelineWriter@AwayJS@@UEAAIIAEBUMATRIX2D@Utils@DOM@@@Z 00000000004142a0 f   OutputWriter.obj
 0001:00013380       ?UpdateVisibility@AWDTimelineWriter@AwayJS@@UEAAIIE@Z 0000000000414380 f   OutputWriter.obj
 0001:00013400       ?UpdateZOrder@AWDTimelineWriter@AwayJS@@UEAAIII@Z 0000000000414400 f   OutputWriter.obj
 0001:000134a0       ?_Compat@?$_String_const_iterator@V?$_String_val@U?$_Simple_types@D@std@@@std@@@std@@QEBAXAEBV12@@Z 00000000004144a0 f i OutputWriter.obj
 0001:000134b0       ?_Destroy@?$vector@PEAUEdge@p2t@@V?$allocator@PEAUEdge@p2t@@@std@@@std@@IEAAXPEAPEAUEdge@p2t@@0@Z 00000000004144b0 f i OutputWriter.obj
 0001:000134c0       ?_Destroy@?$vector@PEAVAWDFrameCommand@@V?$allocator@PEAVAWDFrameCommand@@@std@@@std@@IEAAXPEAPEAVAWDFrameCommand@@0@Z 00000000004144c0 f i OutputWriter.obj
 0001:000134d0       ?_Destroy@?$vector@PEAVAWDTimeLineFrame@@V?$allocator@PEAVAWDTimeLineFrame@@@std@@@std@@IEAAXPEAPEAVAWDTimeLineFrame@@0@Z 00000000004144d0 f i OutputWriter.obj
 0001:000134e0       ?_Getal@?$_Vector_alloc@$0A@U?$_Vec_base_types@PEAUEdge@p2t@@V?$allocator@PEAUEdge@p2t@@@std@@@std@@@std@@QEBA?AU?$_Wrap_alloc@V?$allocator@PEAUEdge@p2t@@@std@@@2@XZ 00000000004144e0 f i OutputWriter.obj
 0001:000134f0       ?_Getal@?$_Vector_alloc@$0A@U?$_Vec_base_types@PEAVAWDFrameCommand@@V?$allocator@PEAVAWDFrameCommand@@@std@@@std@@@std@@QEBA?AU?$_Wrap_alloc@V?$allocator@PEAVAWDFrameCommand@@@std@@@2@XZ 00000000004144f0 f i OutputWriter.obj
 0001:00013500       ?_Getal@?$_Vector_alloc@$0A@U?$_Vec_base_types@PEAVAWDTimeLineFrame@@V?$allocator@PEAVAWDTimeLineFrame@@@std@@@std@@@std@@QEBA?AU?$_Wrap_alloc@V?$allocator@PEAVAWDTimeLineFrame@@@std@@@2@XZ 0000000000414500 f i OutputWriter.obj
 0001:00013510       ?_Pdif@?$basic_string@DU?$char_traits@D@std@@V?$allocator@D@2@@std@@SA_KV?$_String_const_iterator@V?$_String_val@U?$_Simple_types@D@std@@@std@@@2@0@Z 0000000000414510 f i OutputWriter.obj
 0001:00013520       ?_Tidy@?$vector@PEAUEdge@p2t@@V?$allocator@PEAUEdge@p2t@@@std@@@std@@IEAAXXZ 0000000000414520 f i OutputWriter.obj
 0001:00013550       ?_Tidy@?$vector@PEAVAWDFrameCommand@@V?$allocator@PEAVAWDFrameCommand@@@std@@@std@@IEAAXXZ 0000000000414550 f i OutputWriter.obj
 0001:00013580       ?_Tidy@?$vector@PEAVAWDTimeLineFrame@@V?$allocator@PEAVAWDTimeLineFrame@@@std@@@std@@IEAAXXZ 0000000000414580 f i OutputWriter.obj
 0001:000135b0       ?append@?$basic_string@DU?$char_traits@D@std@@V?$allocator@D@2@@std@@QEAAAEAV12@AEBV12@@Z 00000000004145b0 f i OutputWriter.obj
 0001:000135c0       ?assignPtrWithQIOwnership@?$AutoPtr@VIMovieClip@FrameElement@DOM@@@FCM@@AEAAXAEAPEAVIMovieClip@FrameElement@DOM@@PEAVIFCMUnknown@2@@Z 00000000004145c0 f i OutputWriter.obj
 0001:00013640       ?compare@?$basic_string@DU?$char_traits@D@std@@V?$allocator@D@2@@std@@QEBAHPEBD@Z 0000000000414640 f i OutputWriter.obj
 0001:00013680       ?deallocate@?$_Wrap_alloc@V?$allocator@PEAUEdge@p2t@@@std@@@std@@QEAAXPEAPEAUEdge@p2t@@_K@Z 0000000000414680 f i OutputWriter.obj
 0001:00013690       ?deallocate@?$_Wrap_alloc@V?$allocator@PEAVAWDFrameCommand@@@std@@@std@@QEAAXPEAPEAVAWDFrameCommand@@_K@Z 0000000000414690 f i OutputWriter.obj
 0001:000136a0       ?deallocate@?$_Wrap_alloc@V?$allocator@PEAVAWDTimeLineFrame@@@std@@@std@@QEAAXPEAPEAVAWDTimeLineFrame@@_K@Z 00000000004146a0 f i OutputWriter.obj
 0001:000136b0       ?deallocate@?$allocator@PEAUEdge@p2t@@@std@@QEAAXPEAPEAUEdge@p2t@@_K@Z 00000000004146b0 f i OutputWriter.obj
 0001:000136c0       ?deallocate@?$allocator@PEAVAWDFrameCommand@@@std@@QEAAXPEAPEAVAWDFrameCommand@@_K@Z 00000000004146c0 f i OutputWriter.obj
 0001:000136d0       ?deallocate@?$allocator@PEAVAWDTimeLineFrame@@@std@@QEAAXPEAPEAVAWDTimeLineFrame@@_K@Z 00000000004146d0 f i OutputWriter.obj
 0001:000136e0       ?end@?$basic_string@DU?$char_traits@D@std@@V?$allocator@D@2@@std@@QEAA?AV?$_String_iterator@V?$_String_val@U?$_Simple_types@D@std@@@std@@@2@XZ 00000000004146e0 f i OutputWriter.obj
 0001:00013710       ?find@?$basic_string@DU?$char_traits@D@std@@V?$allocator@D@2@@std@@QEBA_KAEBV12@_K@Z 0000000000414710 f i OutputWriter.obj
 0001:00013730       ?find@?$basic_string@DU?$char_traits@D@std@@V?$allocator@D@2@@std@@QEBA_KPEBD_K1@Z 0000000000414730 f i OutputWriter.obj
 0001:00013820       ?find@?$basic_string@DU?$char_traits@D@std@@V?$allocator@D@2@@std@@QEBA_KPEBD_K@Z 0000000000414820 f i OutputWriter.obj
 0001:00013840       ?find@?$char_traits@D@std@@SAPEBDPEBD_KAEBD@Z 0000000000414840 f i OutputWriter.obj
 0001:00013860       ?get_allocator@?$basic_string@DU?$char_traits@D@std@@V?$allocator@D@2@@std@@QEBA?AV?$allocator@D@2@XZ 0000000000414860 f i OutputWriter.obj
 0001:00013870       ?get_awd@AWDOutputWriter@AwayJS@@QEAAPEAVAWD@@XZ 0000000000414870 f   OutputWriter.obj
 0001:00013880       ?get_doc@AWDOutputWriter@AwayJS@@QEAAPEAPEAVIFLADocument@DOM@@XZ 0000000000414880 f   OutputWriter.obj
 0001:00013890       ?get_mCallback@AWDOutputWriter@AwayJS@@QEAAPEAPEAVIFCMCallback@FCM@@XZ 0000000000414890 f   OutputWriter.obj
 0001:000138a0       ?get_mtx_2x3@AWDTimelineWriter@AwayJS@@AEAAPEANPEBUMATRIX2D@Utils@DOM@@@Z 00000000004148a0 f   OutputWriter.obj
 0001:00013940       ?get_timeline@AWDTimelineWriter@AwayJS@@QEAAPEAVAWDShape2DTimeline@@XZ 0000000000414940 f   OutputWriter.obj
 0001:00013950       ?insert@?$basic_string@DU?$char_traits@D@std@@V?$allocator@D@2@@std@@QEAAAEAV12@_KAEBV12@00@Z 0000000000414950 f i OutputWriter.obj
 0001:00013b10       ?insert@?$basic_string@DU?$char_traits@D@std@@V?$allocator@D@2@@std@@QEAAAEAV12@_KPEBD0@Z 0000000000414b10 f i OutputWriter.obj
 0001:00013cb0       ?insert@?$basic_string@DU?$char_traits@D@std@@V?$allocator@D@2@@std@@QEAAAEAV12@_KPEBD@Z 0000000000414cb0 f i OutputWriter.obj
 0001:00013ce0       ?replace@?$basic_string@DU?$char_traits@D@std@@V?$allocator@D@2@@std@@QEAAAEAV12@V?$_String_const_iterator@V?$_String_val@U?$_Simple_types@D@std@@@std@@@2@0V?$_String_iterator@V?$_String_val@U?$_Simple_types@D@std@@@std@@@2@1@Z 0000000000414ce0 f i OutputWriter.obj
 0001:00013d80       ?replace@?$basic_string@DU?$char_traits@D@std@@V?$allocator@D@2@@std@@QEAAAEAV12@_K0AEBV12@00@Z 0000000000414d80 f i OutputWriter.obj
 0001:00014130       ?replace@?$basic_string@DU?$char_traits@D@std@@V?$allocator@D@2@@std@@QEAAAEAV12@_K0AEBV12@@Z 0000000000415130 f i OutputWriter.obj
 0001:00014150       ?replace@?$basic_string@DU?$char_traits@D@std@@V?$allocator@D@2@@std@@QEAAAEAV12@_K0PEBD0@Z 0000000000415150 f i OutputWriter.obj
 0001:00014380       ?reserve@?$basic_string@DU?$char_traits@D@std@@V?$allocator@D@2@@std@@QEAAX_K@Z 0000000000415380 f i OutputWriter.obj
 0001:000143d0       ?set_awd@AWDOutputWriter@AwayJS@@QEAAXPEAVAWD@@@Z 00000000004153d0 f   OutputWriter.obj
 0001:000143e0       ?set_doc@AWDOutputWriter@AwayJS@@QEAAXPEAPEAVIFLADocument@DOM@@@Z 00000000004153e0 f   OutputWriter.obj
 0001:000143f0       ?substr@?$basic_string@DU?$char_traits@D@std@@V?$allocator@D@2@@std@@QEBA?AV12@_K0@Z 00000000004153f0 f i OutputWriter.obj
 0001:00014430       ??$?0V?$_String_const_iterator@V?$_String_val@U?$_Simple_types@D@std@@@std@@@std@@@?$basic_string@GU?$char_traits@G@std@@V?$allocator@G@2@@std@@QEAA@V?$_String_const_iterator@V?$_String_val@U?$_Simple_types@D@std@@@std@@@1@0PEAPEAX@Z 0000000000415430 f i Publisher.obj
 0001:00014480       ??$?0VIFCMUnknown@FCM@@@?$AutoPtr@VIBitmapInfo@MediaInfo@DOM@@@FCM@@QEAA@AEBV?$AutoPtr@VIFCMUnknown@FCM@@@1@@Z 0000000000415480 f i Publisher.obj
 0001:000144c0       ??$?0VIFCMUnknown@FCM@@@?$AutoPtr@VIEdge@Shape@Service@DOM@@@FCM@@QEAA@PEAVIFCMUnknown@1@@Z 00000000004154c0 f i Publisher.obj
 0001:00014500       ??$?0VIFCMUnknown@FCM@@@?$AutoPtr@VIFCMCalloc@FCM@@@FCM@@QEAA@AEBV?$AutoPtr@VIFCMUnknown@FCM@@@1@@Z 0000000000415500 f i Publisher.obj
 0001:00014540       ??$?0VIFCMUnknown@FCM@@@?$AutoPtr@VIFilledRegion@Shape@Service@DOM@@@FCM@@QEAA@PEAVIFCMUnknown@1@@Z 0000000000415540 f i Publisher.obj
 0001:00014580       ??$?0VIFCMUnknown@FCM@@@?$AutoPtr@VILibraryItem@DOM@@@FCM@@QEAA@PEAVIFCMUnknown@1@@Z 0000000000415580 f i Publisher.obj
 0001:000145c0       ??$?0VIFCMUnknown@FCM@@@?$AutoPtr@VILinearColorGradient@Utils@DOM@@@FCM@@QEAA@AEBV?$AutoPtr@VIFCMUnknown@FCM@@@1@@Z 00000000004155c0 f i Publisher.obj
 0001:00014600       ??$?0VIFCMUnknown@FCM@@@?$AutoPtr@VIParagraph@FrameElement@DOM@@@FCM@@QEAA@PEAVIFCMUnknown@1@@Z 0000000000415600 f i Publisher.obj
 0001:00014640       ??$?0VIFCMUnknown@FCM@@@?$AutoPtr@VIPath@Shape@Service@DOM@@@FCM@@QEAA@PEAVIFCMUnknown@1@@Z 0000000000415640 f i Publisher.obj
 0001:00014680       ??$?0VIFCMUnknown@FCM@@@?$AutoPtr@VIRadialColorGradient@Utils@DOM@@@FCM@@QEAA@AEBV?$AutoPtr@VIFCMUnknown@FCM@@@1@@Z 0000000000415680 f i Publisher.obj
 0001:000146c0       ??$?0VIFCMUnknown@FCM@@@?$AutoPtr@VIRegionGeneratorService@Shape@Service@DOM@@@FCM@@QEAA@AEBV?$AutoPtr@VIFCMUnknown@FCM@@@1@@Z 00000000004156c0 f i Publisher.obj
 0001:00014700       ??$?0VIFCMUnknown@FCM@@@?$AutoPtr@VIShapeService@Shape@Service@DOM@@@FCM@@QEAA@AEBV?$AutoPtr@VIFCMUnknown@FCM@@@1@@Z 0000000000415700 f i Publisher.obj
 0001:00014740       ??$?0VIFCMUnknown@FCM@@@?$AutoPtr@VISoundInfo@MediaInfo@DOM@@@FCM@@QEAA@AEBV?$AutoPtr@VIFCMUnknown@FCM@@@1@@Z 0000000000415740 f i Publisher.obj
 0001:00014780       ??$?0VIFCMUnknown@FCM@@@?$AutoPtr@VITextRun@FrameElement@DOM@@@FCM@@QEAA@PEAVIFCMUnknown@1@@Z 0000000000415780 f i Publisher.obj
 0001:000147c0       ??$?0VIFCMUnknown@FCM@@@?$AutoPtr@VITimeline@DOM@@@FCM@@QEAA@PEAVIFCMUnknown@1@@Z 00000000004157c0 f i Publisher.obj
 0001:00014800       ??$?0VILibraryItem@DOM@@@?$AutoPtr@VIFolderItem@LibraryItem@DOM@@@FCM@@QEAA@AEBV?$AutoPtr@VILibraryItem@DOM@@@1@@Z 0000000000415800 f i Publisher.obj
 0001:00014840       ??$?0VILibraryItem@DOM@@@?$AutoPtr@VIFontItem@LibraryItem@DOM@@@FCM@@QEAA@AEBV?$AutoPtr@VILibraryItem@DOM@@@1@@Z 0000000000415840 f i Publisher.obj
 0001:00014880       ??$?0VILibraryItem@DOM@@@?$AutoPtr@VIMediaItem@LibraryItem@DOM@@@FCM@@QEAA@AEBV?$AutoPtr@VILibraryItem@DOM@@@1@@Z 0000000000415880 f i Publisher.obj
 0001:000148c0       ??$?0VILibraryItem@DOM@@@?$AutoPtr@VISymbolItem@LibraryItem@DOM@@@FCM@@QEAA@AEBV?$AutoPtr@VILibraryItem@DOM@@@1@@Z 00000000004158c0 f i Publisher.obj
 0001:00014900       ??$?0VIMovieClip@FrameElement@DOM@@@?$AutoPtr@VIFCMUnknown@FCM@@@FCM@@QEAA@PEAVIMovieClip@FrameElement@DOM@@@Z 0000000000415900 f i Publisher.obj
 0001:00014940       ??$?0VISound@FrameElement@DOM@@@?$AutoPtr@VIFCMUnknown@FCM@@@FCM@@QEAA@PEAVISound@FrameElement@DOM@@@Z 0000000000415940 f i Publisher.obj
 0001:00014980       ??$?0VITextBehaviour@FrameElement@DOM@@@?$AutoPtr@VIDynamicTextBehaviour@FrameElement@DOM@@@FCM@@QEAA@PEAVITextBehaviour@FrameElement@DOM@@@Z 0000000000415980 f i Publisher.obj
 0001:000149c0       ??$?4VIFCMUnknown@FCM@@@?$AutoPtr@VIBitmapFillStyle@FillStyle@DOM@@@FCM@@QEAAXPEAVIFCMUnknown@1@@Z 00000000004159c0 f i Publisher.obj
 0001:00014a00       ??$?4VIFCMUnknown@FCM@@@?$AutoPtr@VIFrameCommandGenerator@Service@Exporter@@@FCM@@QEAAXAEBV?$AutoPtr@VIFCMUnknown@FCM@@@1@@Z 0000000000415a00 f i Publisher.obj
 0001:00014a40       ??$?4VIFCMUnknown@FCM@@@?$AutoPtr@VIGradientFillStyle@FillStyle@DOM@@@FCM@@QEAAXPEAVIFCMUnknown@1@@Z 0000000000415a40 f i Publisher.obj
 0001:00014a80       ??$?4VIFCMUnknown@FCM@@@?$AutoPtr@VISolidFillStyle@FillStyle@DOM@@@FCM@@QEAAXPEAVIFCMUnknown@1@@Z 0000000000415a80 f i Publisher.obj
 0001:00014ac0       ??$?4VIFCMUnknown@FCM@@@?$AutoPtr@VISolidStrokeStyle@StrokeStyle@DOM@@@FCM@@QEAAXPEAVIFCMUnknown@1@@Z 0000000000415ac0 f i Publisher.obj
 0001:00014b00       ??$?4VIMediaItem@LibraryItem@DOM@@@?$AutoPtr@VILibraryItem@DOM@@@FCM@@QEAAXAEBV?$AutoPtr@VIMediaItem@LibraryItem@DOM@@@1@@Z 0000000000415b00 f i Publisher.obj
 0001:00014b40       ??$?4VIMediaItem@LibraryItem@DOM@@@?$AutoPtr@VILibraryItem@DOM@@@FCM@@QEAAXPEAVIMediaItem@LibraryItem@DOM@@@Z 0000000000415b40 f i Publisher.obj
 0001:00014b80       ??$?6DU?$char_traits@D@std@@_J@std@@YAAEAV?$basic_ostream@DU?$char_traits@D@std@@@0@AEAV10@AEBU?$_Smanip@_J@0@@Z 0000000000415b80 f i Publisher.obj
 0001:00014bc0       ??$?6U?$char_traits@D@std@@@std@@YAAEAV?$basic_ostream@DU?$char_traits@D@std@@@0@AEAV10@PEBD@Z 0000000000415bc0 f i Publisher.obj
 0001:00014d90       ??$?HDU?$char_traits@D@std@@V?$allocator@D@1@@std@@YA?AV?$basic_string@DU?$char_traits@D@std@@V?$allocator@D@2@@0@$$QEAV10@AEBV10@@Z 0000000000415d90 f i Publisher.obj
 0001:00014dd0       ??$?HDU?$char_traits@D@std@@V?$allocator@D@1@@std@@YA?AV?$basic_string@DU?$char_traits@D@std@@V?$allocator@D@2@@0@$$QEAV10@PEBD@Z 0000000000415dd0 f i Publisher.obj
 0001:00014e20       ??$?HDU?$char_traits@D@std@@V?$allocator@D@1@@std@@YA?AV?$basic_string@DU?$char_traits@D@std@@V?$allocator@D@2@@0@AEBV10@0@Z 0000000000415e20 f i Publisher.obj
 0001:00014ee0       ??$IsSameUnknown@VIFCMUnknown@FCM@@@?$AutoPtr@VIBitmapFillStyle@FillStyle@DOM@@@FCM@@QEAA_NPEAVIFCMUnknown@1@@Z 0000000000415ee0 f i Publisher.obj
 0001:00014ff0       ??$IsSameUnknown@VIFCMUnknown@FCM@@@?$AutoPtr@VIBitmapInfo@MediaInfo@DOM@@@FCM@@QEAA_NPEAVIFCMUnknown@1@@Z 0000000000415ff0 f i Publisher.obj
 0001:00015100       ??$IsSameUnknown@VIFCMUnknown@FCM@@@?$AutoPtr@VIEdge@Shape@Service@DOM@@@FCM@@QEAA_NPEAVIFCMUnknown@1@@Z 0000000000416100 f i Publisher.obj
 0001:00015210       ??$IsSameUnknown@VIFCMUnknown@FCM@@@?$AutoPtr@VIFilledRegion@Shape@Service@DOM@@@FCM@@QEAA_NPEAVIFCMUnknown@1@@Z 0000000000416210 f i Publisher.obj
 0001:00015320       ??$IsSameUnknown@VIFCMUnknown@FCM@@@?$AutoPtr@VIFrameCommandGenerator@Service@Exporter@@@FCM@@QEAA_NPEAVIFCMUnknown@1@@Z 0000000000416320 f i Publisher.obj
 0001:00015430       ??$IsSameUnknown@VIFCMUnknown@FCM@@@?$AutoPtr@VIGradientFillStyle@FillStyle@DOM@@@FCM@@QEAA_NPEAVIFCMUnknown@1@@Z 0000000000416430 f i Publisher.obj
 0001:00015540       ??$IsSameUnknown@VIFCMUnknown@FCM@@@?$AutoPtr@VILibraryItem@DOM@@@FCM@@QEAA_NPEAVIFCMUnknown@1@@Z 0000000000416540 f i Publisher.obj
 0001:00015650       ??$IsSameUnknown@VIFCMUnknown@FCM@@@?$AutoPtr@VILinearColorGradient@Utils@DOM@@@FCM@@QEAA_NPEAVIFCMUnknown@1@@Z 0000000000416650 f i Publisher.obj
 0001:00015760       ??$IsSameUnknown@VIFCMUnknown@FCM@@@?$AutoPtr@VIParagraph@FrameElement@DOM@@@FCM@@QEAA_NPEAVIFCMUnknown@1@@Z 0000000000416760 f i Publisher.obj
 0001:00015870       ??$IsSameUnknown@VIFCMUnknown@FCM@@@?$AutoPtr@VIPath@Shape@Service@DOM@@@FCM@@QEAA_NPEAVIFCMUnknown@1@@Z 0000000000416870 f i Publisher.obj
 0001:00015980       ??$IsSameUnknown@VIFCMUnknown@FCM@@@?$AutoPtr@VIRadialColorGradient@Utils@DOM@@@FCM@@QEAA_NPEAVIFCMUnknown@1@@Z 0000000000416980 f i Publisher.obj
 0001:00015a90       ??$IsSameUnknown@VIFCMUnknown@FCM@@@?$AutoPtr@VIRegionGeneratorService@Shape@Service@DOM@@@FCM@@QEAA_NPEAVIFCMUnknown@1@@Z 0000000000416a90 f i Publisher.obj
 0001:00015ba0       ??$IsSameUnknown@VIFCMUnknown@FCM@@@?$AutoPtr@VIShapeService@Shape@Service@DOM@@@FCM@@QEAA_NPEAVIFCMUnknown@1@@Z 0000000000416ba0 f i Publisher.obj
 0001:00015cb0       ??$IsSameUnknown@VIFCMUnknown@FCM@@@?$AutoPtr@VISolidFillStyle@FillStyle@DOM@@@FCM@@QEAA_NPEAVIFCMUnknown@1@@Z 0000000000416cb0 f i Publisher.obj
 0001:00015dc0       ??$IsSameUnknown@VIFCMUnknown@FCM@@@?$AutoPtr@VISolidStrokeStyle@StrokeStyle@DOM@@@FCM@@QEAA_NPEAVIFCMUnknown@1@@Z 0000000000416dc0 f i Publisher.obj
 0001:00015ed0       ??$IsSameUnknown@VIFCMUnknown@FCM@@@?$AutoPtr@VISoundInfo@MediaInfo@DOM@@@FCM@@QEAA_NPEAVIFCMUnknown@1@@Z 0000000000416ed0 f i Publisher.obj
 0001:00015fe0       ??$IsSameUnknown@VIFCMUnknown@FCM@@@?$AutoPtr@VITextRun@FrameElement@DOM@@@FCM@@QEAA_NPEAVIFCMUnknown@1@@Z 0000000000416fe0 f i Publisher.obj
 0001:000160f0       ??$IsSameUnknown@VIFCMUnknown@FCM@@@?$AutoPtr@VITimeline@DOM@@@FCM@@QEAA_NPEAVIFCMUnknown@1@@Z 00000000004170f0 f i Publisher.obj
 0001:00016200       ??$IsSameUnknown@VILibraryItem@DOM@@@?$AutoPtr@VIFolderItem@LibraryItem@DOM@@@FCM@@QEAA_NPEAVILibraryItem@DOM@@@Z 0000000000417200 f i Publisher.obj
 0001:00016310       ??$IsSameUnknown@VILibraryItem@DOM@@@?$AutoPtr@VIFontItem@LibraryItem@DOM@@@FCM@@QEAA_NPEAVILibraryItem@DOM@@@Z 0000000000417310 f i Publisher.obj
 0001:00016420       ??$IsSameUnknown@VILibraryItem@DOM@@@?$AutoPtr@VIMediaItem@LibraryItem@DOM@@@FCM@@QEAA_NPEAVILibraryItem@DOM@@@Z 0000000000417420 f i Publisher.obj
 0001:00016530       ??$IsSameUnknown@VILibraryItem@DOM@@@?$AutoPtr@VISymbolItem@LibraryItem@DOM@@@FCM@@QEAA_NPEAVILibraryItem@DOM@@@Z 0000000000417530 f i Publisher.obj
 0001:00016640       ??$IsSameUnknown@VIMediaItem@LibraryItem@DOM@@@?$AutoPtr@VILibraryItem@DOM@@@FCM@@QEAA_NPEAVIMediaItem@LibraryItem@DOM@@@Z 0000000000417640 f i Publisher.obj
 0001:00016750       ??$IsSameUnknown@VIMovieClip@FrameElement@DOM@@@?$AutoPtr@VIFCMUnknown@FCM@@@FCM@@QEAA_NPEAVIMovieClip@FrameElement@DOM@@@Z 0000000000417750 f i Publisher.obj
 0001:00016860       ??$IsSameUnknown@VISound@FrameElement@DOM@@@?$AutoPtr@VIFCMUnknown@FCM@@@FCM@@QEAA_NPEAVISound@FrameElement@DOM@@@Z 0000000000417860 f i Publisher.obj
 0001:00016970       ??$IsSameUnknown@VITextBehaviour@FrameElement@DOM@@@?$AutoPtr@VIDynamicTextBehaviour@FrameElement@DOM@@@FCM@@QEAA_NPEAVITextBehaviour@FrameElement@DOM@@@Z 0000000000417970 f i Publisher.obj
 0001:00016a80       ??$_Allocate@G@std@@YAPEAG_KPEAG@Z 0000000000417a80 f i Publisher.obj
 0001:00016ac0       ??$_Allocate@I@std@@YAPEAI_KPEAI@Z 0000000000417ac0 f i Publisher.obj
 0001:00016b00       ??$_Allocate@V?$basic_string@DU?$char_traits@D@std@@V?$allocator@D@2@@std@@@std@@YAPEAV?$basic_string@DU?$char_traits@D@std@@V?$allocator@D@2@@0@_KPEAV10@@Z 0000000000417b00 f i Publisher.obj
 0001:00016b40       ??$_Construct@V?$_String_const_iterator@V?$_String_val@U?$_Simple_types@D@std@@@std@@@std@@@?$basic_string@GU?$char_traits@G@std@@V?$allocator@G@2@@std@@QEAAXV?$_String_const_iterator@V?$_String_val@U?$_Simple_types@D@std@@@std@@@1@0Uforward_iterator_tag@1@@Z 0000000000417b40 f i Publisher.obj
 0001:00016c90       ??$_Destroy_range@U?$_Wrap_alloc@V?$allocator@I@std@@@std@@@std@@YAXPEAI0AEAU?$_Wrap_alloc@V?$allocator@I@std@@@0@@Z 0000000000417c90 f i Publisher.obj
 0001:00016ca0       ??$_Destroy_range@U?$_Wrap_alloc@V?$allocator@I@std@@@std@@@std@@YAXPEAI0AEAU?$_Wrap_alloc@V?$allocator@I@std@@@0@U_Scalar_ptr_iterator_tag@0@@Z 0000000000417ca0 f i Publisher.obj
 0001:00016cb0       ??$_Destroy_range@U?$_Wrap_alloc@V?$allocator@V?$basic_string@DU?$char_traits@D@std@@V?$allocator@D@2@@std@@@std@@@std@@@std@@YAXPEAV?$basic_string@DU?$char_traits@D@std@@V?$allocator@D@2@@0@0AEAU?$_Wrap_alloc@V?$allocator@V?$basic_string@DU?$char_traits@D@std@@V?$allocator@D@2@@std@@@std@@@0@@Z 0000000000417cb0 f i Publisher.obj
 0001:00016d10       ??$_Destroy_range@U?$_Wrap_alloc@V?$allocator@V?$basic_string@DU?$char_traits@D@std@@V?$allocator@D@2@@std@@@std@@@std@@@std@@YAXPEAV?$basic_string@DU?$char_traits@D@std@@V?$allocator@D@2@@0@0AEAU?$_Wrap_alloc@V?$allocator@V?$basic_string@DU?$char_traits@D@std@@V?$allocator@D@2@@std@@@std@@@0@U_Nonscalar_ptr_iterator_tag@0@@Z 0000000000417d10 f i Publisher.obj
 0001:00016d70       ??$_Distance2@V?$_String_const_iterator@V?$_String_val@U?$_Simple_types@D@std@@@std@@@std@@_K@std@@YAXV?$_String_const_iterator@V?$_String_val@U?$_Simple_types@D@std@@@std@@@0@0AEA_KUrandom_access_iterator_tag@0@@Z 0000000000417d70 f i Publisher.obj
 0001:00016d80       ??$_Distance@V?$_String_const_iterator@V?$_String_val@U?$_Simple_types@D@std@@@std@@@std@@_K@std@@YAXV?$_String_const_iterator@V?$_String_val@U?$_Simple_types@D@std@@@std@@@0@0AEA_K@Z 0000000000417d80 f i Publisher.obj
 0001:00016d90       ??$_Iter_cat@V?$_String_const_iterator@V?$_String_val@U?$_Simple_types@D@std@@@std@@@std@@@std@@YA?AUrandom_access_iterator_tag@0@AEBV?$_String_const_iterator@V?$_String_val@U?$_Simple_types@D@std@@@std@@@0@@Z 0000000000417d90 f i Publisher.obj
 0001:00016da0       ??$_Ptr_cat@II@std@@YA?AU_Scalar_ptr_iterator_tag@0@PEAI0@Z 0000000000417da0 f i Publisher.obj
 0001:00016db0       ??$_Ptr_cat@V?$basic_string@DU?$char_traits@D@std@@V?$allocator@D@2@@std@@V12@@std@@YA?AU_Nonscalar_ptr_iterator_tag@0@PEAV?$basic_string@DU?$char_traits@D@std@@V?$allocator@D@2@@0@0@Z 0000000000417db0 f i Publisher.obj
 0001:00016dc0       ??$_Transform@PEADV?$_String_iterator@V?$_String_val@U?$_Simple_types@D@std@@@std@@@std@@P6AHH@Z@std@@YA?AV?$_String_iterator@V?$_String_val@U?$_Simple_types@D@std@@@std@@@0@PEAD0V10@P6AHH@Z@Z 0000000000417dc0 f i Publisher.obj
 0001:00016e40       ??$_Umove@PEAI@?$vector@IV?$allocator@I@std@@@std@@IEAAPEAIPEAI00@Z 0000000000417e40 f i Publisher.obj
 0001:00016e70       ??$_Umove@PEAV?$basic_string@DU?$char_traits@D@std@@V?$allocator@D@2@@std@@@?$vector@V?$basic_string@DU?$char_traits@D@std@@V?$allocator@D@2@@std@@V?$allocator@V?$basic_string@DU?$char_traits@D@std@@V?$allocator@D@2@@std@@@2@@std@@IEAAPEAV?$basic_string@DU?$char_traits@D@std@@V?$allocator@D@2@@1@PEAV21@00@Z 0000000000417e70 f i Publisher.obj
 0001:00016eb0       ??$_Unchecked@V?$_String_val@U?$_Simple_types@D@std@@@std@@@std@@YAPEADV?$_String_iterator@V?$_String_val@U?$_Simple_types@D@std@@@std@@@0@@Z 0000000000417eb0 f i Publisher.obj
 0001:00016ec0       ??$_Uninit_move@III@std@@YAPEAIPEAI00AEAU?$_Wrap_alloc@V?$allocator@I@std@@@0@0U_Scalar_ptr_iterator_tag@0@@Z 0000000000417ec0 f i Publisher.obj
 0001:00016ef0       ??$_Uninit_move@PEAV?$basic_string@DU?$char_traits@D@std@@V?$allocator@D@2@@std@@PEAV12@V?$allocator@V?$basic_string@DU?$char_traits@D@std@@V?$allocator@D@2@@std@@@2@V12@@std@@YAPEAV?$basic_string@DU?$char_traits@D@std@@V?$allocator@D@2@@0@PEAV10@00AEAU?$_Wrap_alloc@V?$allocator@V?$basic_string@DU?$char_traits@D@std@@V?$allocator@D@2@@std@@@std@@@0@0U_Nonscalar_ptr_iterator_tag@0@@Z 0000000000417ef0 f i Publisher.obj
 0001:00016fb0       ??$_Uninitialized_move@PEAIPEAIU?$_Wrap_alloc@V?$allocator@I@std@@@std@@@std@@YAPEAIPEAI00AEAU?$_Wrap_alloc@V?$allocator@I@std@@@0@@Z 0000000000417fb0 f i Publisher.obj
 0001:00016fe0       ??$_Uninitialized_move@PEAV?$basic_string@DU?$char_traits@D@std@@V?$allocator@D@2@@std@@PEAV12@U?$_Wrap_alloc@V?$allocator@V?$basic_string@DU?$char_traits@D@std@@V?$allocator@D@2@@std@@@std@@@2@@std@@YAPEAV?$basic_string@DU?$char_traits@D@std@@V?$allocator@D@2@@0@PEAV10@00AEAU?$_Wrap_alloc@V?$allocator@V?$basic_string@DU?$char_traits@D@std@@V?$allocator@D@2@@std@@@std@@@0@@Z 0000000000417fe0 f i Publisher.obj
 0001:00017000       ??$_Val_type@PEAI@std@@YAPEAIPEAI@Z 0000000000418000 f i Publisher.obj
 0001:00017010       ??$_Val_type@PEAV?$basic_string@DU?$char_traits@D@std@@V?$allocator@D@2@@std@@@std@@YAPEAV?$basic_string@DU?$char_traits@D@std@@V?$allocator@D@2@@0@PEAV10@@Z 0000000000418010 f i Publisher.obj
 0001:00017020       ??$addressof@$$CBI@std@@YAPEBIAEBI@Z 0000000000418020 f i Publisher.obj
 0001:00017030       ??$addressof@G@std@@YAPEAGAEAG@Z 0000000000418030 f i Publisher.obj
 0001:00017040       ??$addressof@V?$basic_string@DU?$char_traits@D@std@@V?$allocator@D@2@@std@@@std@@YAPEAV?$basic_string@DU?$char_traits@D@std@@V?$allocator@D@2@@0@AEAV10@@Z 0000000000418040 f i Publisher.obj
 0001:00017050       ??$assign@V?$_String_const_iterator@V?$_String_val@U?$_Simple_types@D@std@@@std@@@std@@@?$basic_string@GU?$char_traits@G@std@@V?$allocator@G@2@@std@@QEAAAEAV01@V?$_String_const_iterator@V?$_String_val@U?$_Simple_types@D@std@@@std@@@1@0@Z 0000000000418050 f i Publisher.obj
 0001:000170a0       ??$construct@IAEAI@?$_Wrap_alloc@V?$allocator@I@std@@@std@@QEAAXPEAIAEAI@Z 00000000004180a0 f i Publisher.obj
 0001:000170b0       ??$construct@IAEAI@?$allocator@I@std@@QEAAXPEAIAEAI@Z 00000000004180b0 f i Publisher.obj
 0001:000170c0       ??$construct@IAEAI@?$allocator_traits@V?$allocator@I@std@@@std@@SAXAEAV?$allocator@I@1@PEAIAEAI@Z 00000000004180c0 f i Publisher.obj
 0001:000170d0       ??$construct@IAEBI@?$_Wrap_alloc@V?$allocator@I@std@@@std@@QEAAXPEAIAEBI@Z 00000000004180d0 f i Publisher.obj
 0001:000170e0       ??$construct@IAEBI@?$allocator_traits@V?$allocator@I@std@@@std@@SAXAEAV?$allocator@I@1@PEAIAEBI@Z 00000000004180e0 f i Publisher.obj
 0001:000170f0       ??$construct@PEAGAEAPEAG@?$_Wrap_alloc@V?$allocator@G@std@@@std@@QEAAXPEAPEAGAEAPEAG@Z 00000000004180f0 f i Publisher.obj
 0001:00017100       ??$construct@PEAGAEAPEAG@?$allocator@G@std@@QEAAXPEAPEAGAEAPEAG@Z 0000000000418100 f i Publisher.obj
 0001:00017110       ??$construct@PEAGAEAPEAG@?$allocator_traits@V?$allocator@G@std@@@std@@SAXAEAV?$allocator@G@1@PEAPEAGAEAPEAG@Z 0000000000418110 f i Publisher.obj
 0001:00017120       ??$construct@V?$basic_string@DU?$char_traits@D@std@@V?$allocator@D@2@@std@@V12@@?$_Wrap_alloc@V?$allocator@V?$basic_string@DU?$char_traits@D@std@@V?$allocator@D@2@@std@@@std@@@std@@QEAAXPEAV?$basic_string@DU?$char_traits@D@std@@V?$allocator@D@2@@1@$$QEAV21@@Z 0000000000418120 f i Publisher.obj
 0001:000171b0       ??$construct@V?$basic_string@DU?$char_traits@D@std@@V?$allocator@D@2@@std@@V12@@?$allocator@V?$basic_string@DU?$char_traits@D@std@@V?$allocator@D@2@@std@@@std@@QEAAXPEAV?$basic_string@DU?$char_traits@D@std@@V?$allocator@D@2@@1@$$QEAV21@@Z 00000000004181b0 f i Publisher.obj
 0001:00017240       ??$construct@V?$basic_string@DU?$char_traits@D@std@@V?$allocator@D@2@@std@@V12@@?$allocator_traits@V?$allocator@V?$basic_string@DU?$char_traits@D@std@@V?$allocator@D@2@@std@@@std@@@std@@SAXAEAV?$allocator@V?$basic_string@DU?$char_traits@D@std@@V?$allocator@D@2@@std@@@1@PEAV?$basic_string@DU?$char_traits@D@std@@V?$allocator@D@2@@1@$$QEAV31@@Z 0000000000418240 f i Publisher.obj
 0001:000172d0       ??$destroy@PEAG@?$_Wrap_alloc@V?$allocator@G@std@@@std@@QEAAXPEAPEAG@Z 00000000004182d0 f i Publisher.obj
 0001:000172e0       ??$destroy@PEAG@?$allocator@G@std@@QEAAXPEAPEAG@Z 00000000004182e0 f i Publisher.obj
 0001:000172f0       ??$destroy@PEAG@?$allocator_traits@V?$allocator@G@std@@@std@@SAXAEAV?$allocator@G@1@PEAPEAG@Z 00000000004182f0 f i Publisher.obj
 0001:00017300       ??$destroy@V?$basic_string@DU?$char_traits@D@std@@V?$allocator@D@2@@std@@@?$_Wrap_alloc@V?$allocator@V?$basic_string@DU?$char_traits@D@std@@V?$allocator@D@2@@std@@@std@@@std@@QEAAXPEAV?$basic_string@DU?$char_traits@D@std@@V?$allocator@D@2@@1@@Z 0000000000418300 f i Publisher.obj
 0001:00017340       ??$destroy@V?$basic_string@DU?$char_traits@D@std@@V?$allocator@D@2@@std@@@?$allocator@V?$basic_string@DU?$char_traits@D@std@@V?$allocator@D@2@@std@@@std@@QEAAXPEAV?$basic_string@DU?$char_traits@D@std@@V?$allocator@D@2@@1@@Z 0000000000418340 f i Publisher.obj
 0001:00017380       ??$destroy@V?$basic_string@DU?$char_traits@D@std@@V?$allocator@D@2@@std@@@?$allocator_traits@V?$allocator@V?$basic_string@DU?$char_traits@D@std@@V?$allocator@D@2@@std@@@std@@@std@@SAXAEAV?$allocator@V?$basic_string@DU?$char_traits@D@std@@V?$allocator@D@2@@std@@@1@PEAV?$basic_string@DU?$char_traits@D@std@@V?$allocator@D@2@@1@@Z 0000000000418380 f i Publisher.obj
 0001:000173c0       ??$forward@AEAI@std@@YAAEAIAEAI@Z 00000000004183c0 f i Publisher.obj
 0001:000173d0       ??$forward@AEAPEAG@std@@YAAEAPEAGAEAPEAG@Z 00000000004183d0 f i Publisher.obj
 0001:000173e0       ??$forward@AEBI@std@@YAAEBIAEBI@Z 00000000004183e0 f i Publisher.obj
 0001:000173f0       ??$replace@V?$_String_const_iterator@V?$_String_val@U?$_Simple_types@D@std@@@std@@@std@@@?$basic_string@GU?$char_traits@G@std@@V?$allocator@G@2@@std@@QEAAAEAV01@V?$_String_const_iterator@V?$_String_val@U?$_Simple_types@G@std@@@std@@@1@0V?$_String_const_iterator@V?$_String_val@U?$_Simple_types@D@std@@@std@@@1@1@Z 00000000004183f0 f i Publisher.obj
 0001:000174e0       ??$transform@V?$_String_iterator@V?$_String_val@U?$_Simple_types@D@std@@@std@@@std@@V12@P6AHH@Z@std@@YA?AV?$_String_iterator@V?$_String_val@U?$_Simple_types@D@std@@@std@@@0@V10@00P6AHH@Z@Z 00000000004184e0 f i Publisher.obj
 0001:00017520       ??0?$AutoPtr@VIBitmapFillStyle@FillStyle@DOM@@@FCM@@QEAA@PEAVIBitmapFillStyle@FillStyle@DOM@@@Z 0000000000418520 f i Publisher.obj
 0001:00017550       ??0?$AutoPtr@VIBitmapFillStyle@FillStyle@DOM@@@FCM@@QEAA@XZ 0000000000418550 f i Publisher.obj
 0001:00017560       ??0?$AutoPtr@VIClassicText@FrameElement@DOM@@@FCM@@QEAA@XZ 0000000000418560 f i Publisher.obj
 0001:00017570       ??0?$AutoPtr@VIFCMList@FCM@@@FCM@@QEAA@AEBV01@@Z 0000000000418570 f i Publisher.obj
 0001:000175a0       ??0?$AutoPtr@VIFCMList@FCM@@@FCM@@QEAA@XZ 00000000004185a0 f i Publisher.obj
 0001:000175b0       ??0?$AutoPtr@VIFrameCommandGenerator@Service@Exporter@@@FCM@@QEAA@XZ 00000000004185b0 f i Publisher.obj
 0001:000175c0       ??0?$AutoPtr@VIGradientFillStyle@FillStyle@DOM@@@FCM@@QEAA@PEAVIGradientFillStyle@FillStyle@DOM@@@Z 00000000004185c0 f i Publisher.obj
 0001:000175f0       ??0?$AutoPtr@VIGradientFillStyle@FillStyle@DOM@@@FCM@@QEAA@XZ 00000000004185f0 f i Publisher.obj
 0001:00017600       ??0?$AutoPtr@VILibraryItem@DOM@@@FCM@@QEAA@XZ 0000000000418600 f i Publisher.obj
 0001:00017610       ??0?$AutoPtr@VIMediaItem@LibraryItem@DOM@@@FCM@@QEAA@XZ 0000000000418610 f i Publisher.obj
 0001:00017620       ??0?$AutoPtr@VIPath@Shape@Service@DOM@@@FCM@@QEAA@XZ 0000000000418620 f i Publisher.obj
 0001:00017630       ??0?$AutoPtr@VIResourcePalette@Service@Exporter@@@FCM@@QEAA@XZ 0000000000418630 f i Publisher.obj
 0001:00017640       ??0?$AutoPtr@VISolidFillStyle@FillStyle@DOM@@@FCM@@QEAA@PEAVISolidFillStyle@FillStyle@DOM@@@Z 0000000000418640 f i Publisher.obj
 0001:00017670       ??0?$AutoPtr@VISolidFillStyle@FillStyle@DOM@@@FCM@@QEAA@XZ 0000000000418670 f i Publisher.obj
 0001:00017680       ??0?$AutoPtr@VISolidStrokeStyle@StrokeStyle@DOM@@@FCM@@QEAA@XZ 0000000000418680 f i Publisher.obj
 0001:00017690       ??0?$AutoPtr@VITextBehaviour@FrameElement@DOM@@@FCM@@QEAA@XZ 0000000000418690 f i Publisher.obj
 0001:000176a0       ??0?$AutoPtr@VITextStyle@FrameElement@DOM@@@FCM@@QEAA@XZ 00000000004186a0 f i Publisher.obj
 0001:000176b0       ??0?$AutoPtr@VITimelineBuilder@Service@Exporter@@@FCM@@QEAA@XZ 00000000004186b0 f i Publisher.obj
 0001:000176c0       ??0?$AutoPtr@VITimelineBuilderFactory@Service@Exporter@@@FCM@@QEAA@XZ 00000000004186c0 f i Publisher.obj
 0001:000176d0       ??0?$_String_alloc@$0A@U?$_String_base_types@GV?$allocator@G@std@@@std@@@std@@QEAA@AEBV?$allocator@G@1@@Z 00000000004186d0 f i Publisher.obj
 0001:000176e0       ??0?$_String_const_iterator@V?$_String_val@U?$_Simple_types@G@std@@@std@@@std@@QEAA@PEBGPEBU_Container_base0@1@@Z 00000000004186e0 f i Publisher.obj
 0001:000176f0       ??0?$_String_iterator@V?$_String_val@U?$_Simple_types@G@std@@@std@@@std@@QEAA@PEAGPEBU_Container_base0@1@@Z 00000000004186f0 f i Publisher.obj
 0001:00017700       ??0?$_String_val@U?$_Simple_types@G@std@@@std@@QEAA@XZ 0000000000418700 f i Publisher.obj
 0001:00017710       ??0?$_Vector_alloc@$0A@U?$_Vec_base_types@IV?$allocator@I@std@@@std@@@std@@QEAA@AEBV?$allocator@I@1@@Z 0000000000418710 f i Publisher.obj
 0001:00017730       ??0?$_Vector_alloc@$0A@U?$_Vec_base_types@V?$basic_string@DU?$char_traits@D@std@@V?$allocator@D@2@@std@@V?$allocator@V?$basic_string@DU?$char_traits@D@std@@V?$allocator@D@2@@std@@@2@@std@@@std@@QEAA@AEBV?$allocator@V?$basic_string@DU?$char_traits@D@std@@V?$allocator@D@2@@std@@@1@@Z 0000000000418730 f i Publisher.obj
 0001:00017750       ??0?$_Vector_const_iterator@V?$_Vector_val@U?$_Simple_types@I@std@@@std@@@std@@QEAA@PEAIPEBU_Container_base0@1@@Z 0000000000418750 f i Publisher.obj
 0001:00017760       ??0?$_Vector_iterator@V?$_Vector_val@U?$_Simple_types@I@std@@@std@@@std@@QEAA@PEAIPEBU_Container_base0@1@@Z 0000000000418760 f i Publisher.obj
 0001:00017770       ??0?$_Vector_val@U?$_Simple_types@I@std@@@std@@QEAA@XZ 0000000000418770 f i Publisher.obj
 0001:00017790       ??0?$_Vector_val@U?$_Simple_types@V?$basic_string@DU?$char_traits@D@std@@V?$allocator@D@2@@std@@@std@@@std@@QEAA@XZ 0000000000418790 f i Publisher.obj
 0001:000177b0       ??0?$_Wrap_alloc@V?$allocator@G@std@@@std@@QEAA@XZ 00000000004187b0 f i Publisher.obj
 0001:000177c0       ??0?$_Wrap_alloc@V?$allocator@I@std@@@std@@QEAA@XZ 00000000004187c0 f i Publisher.obj
 0001:000177d0       ??0?$_Wrap_alloc@V?$allocator@V?$basic_string@DU?$char_traits@D@std@@V?$allocator@D@2@@std@@@std@@@std@@QEAA@XZ 00000000004187d0 f i Publisher.obj
 0001:000177e0       ??0?$allocator@G@std@@QEAA@XZ 00000000004187e0 f i Publisher.obj
 0001:000177f0       ??0?$allocator@I@std@@QEAA@XZ 00000000004187f0 f i Publisher.obj
 0001:00017800       ??0?$allocator@V?$basic_string@DU?$char_traits@D@std@@V?$allocator@D@2@@std@@@std@@QEAA@XZ 0000000000418800 f i Publisher.obj
 0001:00017810       ??0?$auto_ptr@VAWDOutputWriter@AwayJS@@@std@@QEAA@PEAVAWDOutputWriter@AwayJS@@@Z 0000000000418810 f i Publisher.obj
 0001:00017820       ??0?$basic_ostringstream@DU?$char_traits@D@std@@V?$allocator@D@2@@std@@QEAA@H@Z 0000000000418820 f i Publisher.obj
 0001:000178e0       ??0?$basic_string@DU?$char_traits@D@std@@V?$allocator@D@2@@std@@QEAA@PEBD_K@Z 00000000004188e0 f i Publisher.obj
 0001:00017910       ??0?$basic_string@GU?$char_traits@G@std@@V?$allocator@G@2@@std@@QEAA@PEBG@Z 0000000000418910 f i Publisher.obj
 0001:00017960       ??0?$basic_string@GU?$char_traits@G@std@@V?$allocator@G@2@@std@@QEAA@XZ 0000000000418960 f i Publisher.obj
 0001:00017980       ??0?$basic_stringbuf@DU?$char_traits@D@std@@V?$allocator@D@2@@std@@QEAA@H@Z 0000000000418980 f i Publisher.obj
 0001:000179f0       ??0?$vector@IV?$allocator@I@std@@@std@@QEAA@XZ 00000000004189f0 f i Publisher.obj
 0001:00017a10       ??0?$vector@V?$basic_string@DU?$char_traits@D@std@@V?$allocator@D@2@@std@@V?$allocator@V?$basic_string@DU?$char_traits@D@std@@V?$allocator@D@2@@std@@@2@@std@@QEAA@XZ 0000000000418a10 f i Publisher.obj
 0001:00017a30       ??0CPublisher@AwayJS@@QEAA@XZ 0000000000418a30 f   Publisher.obj
 0001:00017a50       ??0FCMListPtr@FCM@@QEAA@AEBV01@@Z 0000000000418a50 f i Publisher.obj
 0001:00017a80       ??0FCMListPtr@FCM@@QEAA@XZ 0000000000418a80 f i Publisher.obj
 0001:00017a90       ??0IPublisher@Publisher@@QEAA@XZ 0000000000418a90 f i Publisher.obj
 0001:00017aa0       ??0IResourcePalette@Service@Exporter@@QEAA@XZ 0000000000418aa0 f i Publisher.obj
 0001:00017ab0       ??0ITimelineBuilder@Service@Exporter@@QEAA@XZ 0000000000418ab0 f i Publisher.obj
 0001:00017ac0       ??0ITimelineBuilderFactory@Service@Exporter@@QEAA@XZ 0000000000418ac0 f i Publisher.obj
 0001:00017ad0       ??0ResourcePalette@AwayJS@@QEAA@XZ 0000000000418ad0 f   Publisher.obj
 0001:00017b00       ??0TimelineBuilder@AwayJS@@QEAA@XZ 0000000000418b00 f   Publisher.obj
 0001:00017b20       ??0TimelineBuilderFactory@AwayJS@@QEAA@XZ 0000000000418b20 f   Publisher.obj
 0001:00017b30       ??0_Sentry_base@?$basic_ostream@DU?$char_traits@D@std@@@std@@QEAA@AEAV12@@Z 0000000000418b30 f i Publisher.obj
 0001:00017b60       ??0sentry@?$basic_ostream@DU?$char_traits@D@std@@@std@@QEAA@AEAV12@@Z 0000000000418b60 f i Publisher.obj
 0001:00017be0       ??1?$AutoPtr@VIBitmapFillStyle@FillStyle@DOM@@@FCM@@QEAA@XZ 0000000000418be0 f i Publisher.obj
 0001:00017c10       ??1?$AutoPtr@VIBitmapInfo@MediaInfo@DOM@@@FCM@@QEAA@XZ 0000000000418c10 f i Publisher.obj
 0001:00017c40       ??1?$AutoPtr@VIClassicText@FrameElement@DOM@@@FCM@@QEAA@XZ 0000000000418c40 f i Publisher.obj
 0001:00017c70       ??1?$AutoPtr@VIDynamicTextBehaviour@FrameElement@DOM@@@FCM@@QEAA@XZ 0000000000418c70 f i Publisher.obj
 0001:00017ca0       ??1?$AutoPtr@VIEdge@Shape@Service@DOM@@@FCM@@QEAA@XZ 0000000000418ca0 f i Publisher.obj
 0001:00017cd0       ??1?$AutoPtr@VIFCMList@FCM@@@FCM@@QEAA@XZ 0000000000418cd0 f i Publisher.obj
 0001:00017d00       ??1?$AutoPtr@VIFilledRegion@Shape@Service@DOM@@@FCM@@QEAA@XZ 0000000000418d00 f i Publisher.obj
 0001:00017d30       ??1?$AutoPtr@VIFolderItem@LibraryItem@DOM@@@FCM@@QEAA@XZ 0000000000418d30 f i Publisher.obj
 0001:00017d60       ??1?$AutoPtr@VIFontItem@LibraryItem@DOM@@@FCM@@QEAA@XZ 0000000000418d60 f i Publisher.obj
 0001:00017d90       ??1?$AutoPtr@VIFrameCommandGenerator@Service@Exporter@@@FCM@@QEAA@XZ 0000000000418d90 f i Publisher.obj
 0001:00017dc0       ??1?$AutoPtr@VIGradientFillStyle@FillStyle@DOM@@@FCM@@QEAA@XZ 0000000000418dc0 f i Publisher.obj
 0001:00017df0       ??1?$AutoPtr@VILibraryItem@DOM@@@FCM@@QEAA@XZ 0000000000418df0 f i Publisher.obj
 0001:00017e20       ??1?$AutoPtr@VILinearColorGradient@Utils@DOM@@@FCM@@QEAA@XZ 0000000000418e20 f i Publisher.obj
 0001:00017e50       ??1?$AutoPtr@VIMediaItem@LibraryItem@DOM@@@FCM@@QEAA@XZ 0000000000418e50 f i Publisher.obj
 0001:00017e80       ??1?$AutoPtr@VIParagraph@FrameElement@DOM@@@FCM@@QEAA@XZ 0000000000418e80 f i Publisher.obj
 0001:00017eb0       ??1?$AutoPtr@VIPath@Shape@Service@DOM@@@FCM@@QEAA@XZ 0000000000418eb0 f i Publisher.obj
 0001:00017ee0       ??1?$AutoPtr@VIRadialColorGradient@Utils@DOM@@@FCM@@QEAA@XZ 0000000000418ee0 f i Publisher.obj
 0001:00017f10       ??1?$AutoPtr@VIRegionGeneratorService@Shape@Service@DOM@@@FCM@@QEAA@XZ 0000000000418f10 f i Publisher.obj
 0001:00017f40       ??1?$AutoPtr@VIResourcePalette@Service@Exporter@@@FCM@@QEAA@XZ 0000000000418f40 f i Publisher.obj
 0001:00017f70       ??1?$AutoPtr@VIShapeService@Shape@Service@DOM@@@FCM@@QEAA@XZ 0000000000418f70 f i Publisher.obj
 0001:00017fa0       ??1?$AutoPtr@VISolidFillStyle@FillStyle@DOM@@@FCM@@QEAA@XZ 0000000000418fa0 f i Publisher.obj
 0001:00017fd0       ??1?$AutoPtr@VISolidStrokeStyle@StrokeStyle@DOM@@@FCM@@QEAA@XZ 0000000000418fd0 f i Publisher.obj
 0001:00018000       ??1?$AutoPtr@VISoundInfo@MediaInfo@DOM@@@FCM@@QEAA@XZ 0000000000419000 f i Publisher.obj
 0001:00018030       ??1?$AutoPtr@VISymbolItem@LibraryItem@DOM@@@FCM@@QEAA@XZ 0000000000419030 f i Publisher.obj
 0001:00018060       ??1?$AutoPtr@VITextBehaviour@FrameElement@DOM@@@FCM@@QEAA@XZ 0000000000419060 f i Publisher.obj
 0001:00018090       ??1?$AutoPtr@VITextRun@FrameElement@DOM@@@FCM@@QEAA@XZ 0000000000419090 f i Publisher.obj
 0001:000180c0       ??1?$AutoPtr@VITextStyle@FrameElement@DOM@@@FCM@@QEAA@XZ 00000000004190c0 f i Publisher.obj
 0001:000180f0       ??1?$AutoPtr@VITimeline@DOM@@@FCM@@QEAA@XZ 00000000004190f0 f i Publisher.obj
 0001:00018120       ??1?$AutoPtr@VITimelineBuilder@Service@Exporter@@@FCM@@QEAA@XZ 0000000000419120 f i Publisher.obj
 0001:00018150       ??1?$AutoPtr@VITimelineBuilderFactory@Service@Exporter@@@FCM@@QEAA@XZ 0000000000419150 f i Publisher.obj
 0001:00018180       ??1?$auto_ptr@VAWDOutputWriter@AwayJS@@@std@@QEAA@XZ 0000000000419180 f i Publisher.obj
 0001:000181a0       ??1?$basic_ostringstream@DU?$char_traits@D@std@@V?$allocator@D@2@@std@@UEAA@XZ 00000000004191a0 f i Publisher.obj
 0001:000181f0       ??1?$basic_string@GU?$char_traits@G@std@@V?$allocator@G@2@@std@@QEAA@XZ 00000000004191f0 f i Publisher.obj
 0001:00018220       ??1?$basic_stringbuf@DU?$char_traits@D@std@@V?$allocator@D@2@@std@@UEAA@XZ 0000000000419220 f i Publisher.obj
 0001:00018290       ??1?$vector@IV?$allocator@I@std@@@std@@QEAA@XZ 0000000000419290 f i Publisher.obj
 0001:000182c0       ??1?$vector@V?$basic_string@DU?$char_traits@D@std@@V?$allocator@D@2@@std@@V?$allocator@V?$basic_string@DU?$char_traits@D@std@@V?$allocator@D@2@@std@@@2@@std@@QEAA@XZ 00000000004192c0 f i Publisher.obj
 0001:000182d0       ??1CPublisher@AwayJS@@QEAA@XZ 00000000004192d0 f   Publisher.obj
 0001:00018330       ??1FCMListPtr@FCM@@QEAA@XZ 0000000000419330 f i Publisher.obj
 0001:00018360       ??1ResourcePalette@AwayJS@@QEAA@XZ 0000000000419360 f   Publisher.obj
 0001:000183a0       ??1TimelineBuilder@AwayJS@@QEAA@XZ 00000000004193a0 f   Publisher.obj
 0001:000183b0       ??1TimelineBuilderFactory@AwayJS@@QEAA@XZ 00000000004193b0 f   Publisher.obj
 0001:000183c0       ??1_Sentry_base@?$basic_ostream@DU?$char_traits@D@std@@@std@@QEAA@XZ 00000000004193c0 f i Publisher.obj
 0001:000183e0       ??1sentry@?$basic_ostream@DU?$char_traits@D@std@@@std@@QEAA@XZ 00000000004193e0 f i Publisher.obj
 0001:00018430       ??4?$AutoPtr@VIClassicText@FrameElement@DOM@@@FCM@@QEAAXPEAVIClassicText@FrameElement@DOM@@@Z 0000000000419430 f i Publisher.obj
 0001:00018480       ??4?$AutoPtr@VIFCMCalloc@FCM@@@FCM@@QEAAXAEBV01@@Z 0000000000419480 f i Publisher.obj
 0001:000184d0       ??8?$_Vector_const_iterator@V?$_Vector_val@U?$_Simple_types@I@std@@@std@@@std@@QEBA_NAEBV01@@Z 00000000004194d0 f i Publisher.obj
 0001:000184e0       ??9?$_String_const_iterator@V?$_String_val@U?$_Simple_types@D@std@@@std@@@std@@QEBA_NAEBV01@@Z 00000000004194e0 f i Publisher.obj
 0001:000184f0       ??9?$_Vector_const_iterator@V?$_Vector_val@U?$_Simple_types@I@std@@@std@@@std@@QEBA_NAEBV01@@Z 00000000004194f0 f i Publisher.obj
 0001:00018500       ??A?$vector@V?$basic_string@DU?$char_traits@D@std@@V?$allocator@D@2@@std@@V?$allocator@V?$basic_string@DU?$char_traits@D@std@@V?$allocator@D@2@@std@@@2@@std@@QEAAAEAV?$basic_string@DU?$char_traits@D@std@@V?$allocator@D@2@@1@_K@Z 0000000000419500 f i Publisher.obj
 0001:00018510       ??AFCMListPtr@FCM@@QEAAPEAVIFCMUnknown@1@I@Z 0000000000419510 f i Publisher.obj
 0001:00018520       ??B?$AutoPtr@VIBitmapFillStyle@FillStyle@DOM@@@FCM@@QEBAPEAVIBitmapFillStyle@FillStyle@DOM@@XZ 0000000000419520 f i Publisher.obj
 0001:00018530       ??B?$AutoPtr@VIBitmapFillStyle@FillStyle@DOM@@@FCM@@QEBA_NXZ 0000000000419530 f i Publisher.obj
 0001:00018540       ??B?$AutoPtr@VIClassicText@FrameElement@DOM@@@FCM@@QEBAPEAVIClassicText@FrameElement@DOM@@XZ 0000000000419540 f i Publisher.obj
 0001:00018550       ??B?$AutoPtr@VIDynamicTextBehaviour@FrameElement@DOM@@@FCM@@QEBA_NXZ 0000000000419550 f i Publisher.obj
 0001:00018560       ??B?$AutoPtr@VIFCMUnknown@FCM@@@FCM@@QEBAPEAVIFCMUnknown@1@XZ 0000000000419560 f i Publisher.obj
 0001:00018570       ??B?$AutoPtr@VIFolderItem@LibraryItem@DOM@@@FCM@@QEBA_NXZ 0000000000419570 f i Publisher.obj
 0001:00018580       ??B?$AutoPtr@VIFontItem@LibraryItem@DOM@@@FCM@@QEBA_NXZ 0000000000419580 f i Publisher.obj
 0001:00018590       ??B?$AutoPtr@VIFrameCommandGenerator@Service@Exporter@@@FCM@@QEBA_NXZ 0000000000419590 f i Publisher.obj
 0001:000185a0       ??B?$AutoPtr@VIGradientFillStyle@FillStyle@DOM@@@FCM@@QEBAPEAVIGradientFillStyle@FillStyle@DOM@@XZ 00000000004195a0 f i Publisher.obj
 0001:000185b0       ??B?$AutoPtr@VIGradientFillStyle@FillStyle@DOM@@@FCM@@QEBA_NXZ 00000000004195b0 f i Publisher.obj
 0001:000185c0       ??B?$AutoPtr@VILibraryItem@DOM@@@FCM@@QEBAPEAVILibraryItem@DOM@@XZ 00000000004195c0 f i Publisher.obj
 0001:000185d0       ??B?$AutoPtr@VILinearColorGradient@Utils@DOM@@@FCM@@QEBA_NXZ 00000000004195d0 f i Publisher.obj
 0001:000185e0       ??B?$AutoPtr@VIMediaItem@LibraryItem@DOM@@@FCM@@QEBAPEAVIMediaItem@LibraryItem@DOM@@XZ 00000000004195e0 f i Publisher.obj
 0001:000185f0       ??B?$AutoPtr@VIMediaItem@LibraryItem@DOM@@@FCM@@QEBA_NXZ 00000000004195f0 f i Publisher.obj
 0001:00018600       ??B?$AutoPtr@VIParagraph@FrameElement@DOM@@@FCM@@QEBA_NXZ 0000000000419600 f i Publisher.obj
 0001:00018610       ??B?$AutoPtr@VIPath@Shape@Service@DOM@@@FCM@@QEBAPEAVIPath@Shape@Service@DOM@@XZ 0000000000419610 f i Publisher.obj
 0001:00018620       ??B?$AutoPtr@VIRadialColorGradient@Utils@DOM@@@FCM@@QEBA_NXZ 0000000000419620 f i Publisher.obj
 0001:00018630       ??B?$AutoPtr@VIResourcePalette@Service@Exporter@@@FCM@@QEBAPEAVIResourcePalette@Service@Exporter@@XZ 0000000000419630 f i Publisher.obj
 0001:00018640       ??B?$AutoPtr@VIResourcePalette@Service@Exporter@@@FCM@@QEBA_NXZ 0000000000419640 f i Publisher.obj
 0001:00018650       ??B?$AutoPtr@VISolidFillStyle@FillStyle@DOM@@@FCM@@QEBAPEAVISolidFillStyle@FillStyle@DOM@@XZ 0000000000419650 f i Publisher.obj
 0001:00018660       ??B?$AutoPtr@VISolidFillStyle@FillStyle@DOM@@@FCM@@QEBA_NXZ 0000000000419660 f i Publisher.obj
 0001:00018670       ??B?$AutoPtr@VISolidStrokeStyle@StrokeStyle@DOM@@@FCM@@QEBAPEAVISolidStrokeStyle@StrokeStyle@DOM@@XZ 0000000000419670 f i Publisher.obj
 0001:00018680       ??B?$AutoPtr@VISolidStrokeStyle@StrokeStyle@DOM@@@FCM@@QEBA_NXZ 0000000000419680 f i Publisher.obj
 0001:00018690       ??B?$AutoPtr@VISymbolItem@LibraryItem@DOM@@@FCM@@QEBA_NXZ 0000000000419690 f i Publisher.obj
 0001:000186a0       ??B?$AutoPtr@VITextStyle@FrameElement@DOM@@@FCM@@QEBAPEAVITextStyle@FrameElement@DOM@@XZ 00000000004196a0 f i Publisher.obj
 0001:000186b0       ??B?$AutoPtr@VITimeline@DOM@@@FCM@@QEBAPEAVITimeline@DOM@@XZ 00000000004196b0 f i Publisher.obj
 0001:000186c0       ??B?$AutoPtr@VITimelineBuilderFactory@Service@Exporter@@@FCM@@QEBAPEAVITimelineBuilderFactory@Service@Exporter@@XZ 00000000004196c0 f i Publisher.obj
 0001:000186d0       ??Bsentry@?$basic_ostream@DU?$char_traits@D@std@@@std@@QEBAPEQ?$_Bool_struct@V?$basic_ostream@DU?$char_traits@D@std@@@std@@@2@HXZ 00000000004196d0 f i Publisher.obj
 0001:000186e0       ??C?$AutoPtr@VIBitmapInfo@MediaInfo@DOM@@@FCM@@QEBAPEAVIBitmapInfo@MediaInfo@DOM@@XZ 00000000004196e0 f i Publisher.obj
 0001:000186f0       ??C?$AutoPtr@VIClassicText@FrameElement@DOM@@@FCM@@QEBAPEAVIClassicText@FrameElement@DOM@@XZ 00000000004196f0 f i Publisher.obj
 0001:00018700       ??C?$AutoPtr@VIEdge@Shape@Service@DOM@@@FCM@@QEBAPEAVIEdge@Shape@Service@DOM@@XZ 0000000000419700 f i Publisher.obj
 0001:00018710       ??C?$AutoPtr@VIFCMList@FCM@@@FCM@@QEBAPEAVIFCMList@1@XZ 0000000000419710 f i Publisher.obj
 0001:00018720       ??C?$AutoPtr@VIFilledRegion@Shape@Service@DOM@@@FCM@@QEBAPEAVIFilledRegion@Shape@Service@DOM@@XZ 0000000000419720 f i Publisher.obj
 0001:00018730       ??C?$AutoPtr@VIFolderItem@LibraryItem@DOM@@@FCM@@QEBAPEAVIFolderItem@LibraryItem@DOM@@XZ 0000000000419730 f i Publisher.obj
 0001:00018740       ??C?$AutoPtr@VIFrameCommandGenerator@Service@Exporter@@@FCM@@QEBAPEAVIFrameCommandGenerator@Service@Exporter@@XZ 0000000000419740 f i Publisher.obj
 0001:00018750       ??C?$AutoPtr@VIGradientFillStyle@FillStyle@DOM@@@FCM@@QEBAPEAVIGradientFillStyle@FillStyle@DOM@@XZ 0000000000419750 f i Publisher.obj
 0001:00018760       ??C?$AutoPtr@VILibraryItem@DOM@@@FCM@@QEBAPEAVILibraryItem@DOM@@XZ 0000000000419760 f i Publisher.obj
 0001:00018770       ??C?$AutoPtr@VILinearColorGradient@Utils@DOM@@@FCM@@QEBAPEAVILinearColorGradient@Utils@DOM@@XZ 0000000000419770 f i Publisher.obj
 0001:00018780       ??C?$AutoPtr@VIMediaItem@LibraryItem@DOM@@@FCM@@QEBAPEAVIMediaItem@LibraryItem@DOM@@XZ 0000000000419780 f i Publisher.obj
 0001:00018790       ??C?$AutoPtr@VIParagraph@FrameElement@DOM@@@FCM@@QEBAPEAVIParagraph@FrameElement@DOM@@XZ 0000000000419790 f i Publisher.obj
 0001:000187a0       ??C?$AutoPtr@VIRadialColorGradient@Utils@DOM@@@FCM@@QEBAPEAVIRadialColorGradient@Utils@DOM@@XZ 00000000004197a0 f i Publisher.obj
 0001:000187b0       ??C?$AutoPtr@VIRegionGeneratorService@Shape@Service@DOM@@@FCM@@QEBAPEAVIRegionGeneratorService@Shape@Service@DOM@@XZ 00000000004197b0 f i Publisher.obj
 0001:000187c0       ??C?$AutoPtr@VIShapeService@Shape@Service@DOM@@@FCM@@QEBAPEAVIShapeService@Shape@Service@DOM@@XZ 00000000004197c0 f i Publisher.obj
 0001:000187d0       ??C?$AutoPtr@VISolidFillStyle@FillStyle@DOM@@@FCM@@QEBAPEAVISolidFillStyle@FillStyle@DOM@@XZ 00000000004197d0 f i Publisher.obj
 0001:000187e0       ??C?$AutoPtr@VITextRun@FrameElement@DOM@@@FCM@@QEBAPEAVITextRun@FrameElement@DOM@@XZ 00000000004197e0 f i Publisher.obj
 0001:000187f0       ??C?$AutoPtr@VITextStyle@FrameElement@DOM@@@FCM@@QEBAPEAVITextStyle@FrameElement@DOM@@XZ 00000000004197f0 f i Publisher.obj
 0001:00018800       ??C?$AutoPtr@VITimeline@DOM@@@FCM@@QEBAPEAVITimeline@DOM@@XZ 0000000000419800 f i Publisher.obj
 0001:00018810       ??C?$auto_ptr@VAWDOutputWriter@AwayJS@@@std@@QEBAPEAVAWDOutputWriter@AwayJS@@XZ 0000000000419810 f i Publisher.obj
 0001:00018820       ??D?$_Vector_const_iterator@V?$_Vector_val@U?$_Simple_types@I@std@@@std@@@std@@QEBAAEBIXZ 0000000000419820 f i Publisher.obj
 0001:00018830       ??D?$_Vector_iterator@V?$_Vector_val@U?$_Simple_types@I@std@@@std@@@std@@QEBAAEAIXZ 0000000000419830 f i Publisher.obj
 0001:00018840       ??E?$_String_const_iterator@V?$_String_val@U?$_Simple_types@D@std@@@std@@@std@@QEAAAEAV01@XZ 0000000000419840 f i Publisher.obj
 0001:00018850       ??E?$_String_iterator@V?$_String_val@U?$_Simple_types@D@std@@@std@@@std@@QEAAAEAV01@XZ 0000000000419850 f i Publisher.obj
 0001:00018860       ??E?$_Vector_const_iterator@V?$_Vector_val@U?$_Simple_types@I@std@@@std@@@std@@QEAAAEAV01@XZ 0000000000419860 f i Publisher.obj
 0001:00018870       ??E?$_Vector_iterator@V?$_Vector_val@U?$_Simple_types@I@std@@@std@@@std@@QEAA?AV01@H@Z 0000000000419870 f i Publisher.obj
 0001:00018890       ??E?$_Vector_iterator@V?$_Vector_val@U?$_Simple_types@I@std@@@std@@@std@@QEAAAEAV01@XZ 0000000000419890 f i Publisher.obj
 0001:000188a0       ??G?$_String_const_iterator@V?$_String_val@U?$_Simple_types@G@std@@@std@@@std@@QEBA_JAEBV01@@Z 00000000004198a0 f i Publisher.obj
 0001:000188b0       ??I?$AutoPtr@VIResourcePalette@Service@Exporter@@@FCM@@QEAAPEAPEAVIResourcePalette@Service@Exporter@@XZ 00000000004198b0 f i Publisher.obj
 0001:000188c0       ??I?$AutoPtr@VITimelineBuilderFactory@Service@Exporter@@@FCM@@QEAAPEAPEAVITimelineBuilderFactory@Service@Exporter@@XZ 00000000004198c0 f i Publisher.obj
 0001:000188d0       ??Y?$basic_string@GU?$char_traits@G@std@@V?$allocator@G@2@@std@@QEAAAEAV01@AEBV01@@Z 00000000004198d0 f i Publisher.obj
 0001:000188e0       ??_D?$basic_ostringstream@DU?$char_traits@D@std@@V?$allocator@D@2@@std@@QEAAXXZ 00000000004198e0 f i Publisher.obj
 0001:00018954       ??_E?$basic_ostringstream@DU?$char_traits@D@std@@V?$allocator@D@2@@std@@$4PPPPPPPM@A@EAAPEAXI@Z 0000000000419954 f i Publisher.obj
 0001:00018960       ??_E?$basic_ostringstream@DU?$char_traits@D@std@@V?$allocator@D@2@@std@@UEAAPEAXI@Z 0000000000419960 f i Publisher.obj
 0001:00018960       ??_G?$basic_ostringstream@DU?$char_traits@D@std@@V?$allocator@D@2@@std@@UEAAPEAXI@Z 0000000000419960 f i Publisher.obj
 0001:000189a0       ??_G?$basic_string@DU?$char_traits@D@std@@V?$allocator@D@2@@std@@QEAAPEAXI@Z 00000000004199a0 f i Publisher.obj
 0001:000189f0       ??_E?$basic_stringbuf@DU?$char_traits@D@std@@V?$allocator@D@2@@std@@UEAAPEAXI@Z 00000000004199f0 f i Publisher.obj
 0001:000189f0       ??_G?$basic_stringbuf@DU?$char_traits@D@std@@V?$allocator@D@2@@std@@UEAAPEAXI@Z 00000000004199f0 f i Publisher.obj
 0001:00018a20       ??_GAWD@@QEAAPEAXI@Z       0000000000419a20 f i Publisher.obj
 0001:00018a50       ?AddBitmap@ResourcePalette@AwayJS@@UEAAIIPEAVIMediaItem@LibraryItem@DOM@@@Z 0000000000419a50 f   Publisher.obj
 0001:00018d20       ?AddBitmap@TimelineBuilder@AwayJS@@UEAAIIPEAUDISPLAY_OBJECT_INFO@Service@Exporter@@@Z 0000000000419d20 f   Publisher.obj
 0001:00018d60       ?AddClassicText@ResourcePalette@AwayJS@@UEAAIIPEAVIClassicText@FrameElement@DOM@@@Z 0000000000419d60 f   Publisher.obj
 0001:00019230       ?AddClassicText@TimelineBuilder@AwayJS@@UEAAIIPEAUDISPLAY_OBJECT_INFO@Service@Exporter@@@Z 000000000041a230 f   Publisher.obj
 0001:00019270       ?AddFrameScript@TimelineBuilder@AwayJS@@UEAAIPEBGI@Z 000000000041a270 f   Publisher.obj
 0001:00019290       ?AddGraphic@ResourcePalette@AwayJS@@UEAAIIPEAVITimelineBuilder@Service@Exporter@@@Z 000000000041a290 f   Publisher.obj
 0001:00019340       ?AddGraphic@TimelineBuilder@AwayJS@@UEAAIIPEAUDISPLAY_OBJECT_INFO@Service@Exporter@@@Z 000000000041a340 f   Publisher.obj
 0001:00019380       ?AddMovieClip@ResourcePalette@AwayJS@@UEAAIIPEAGPEAVITimelineBuilder@Service@Exporter@@@Z 000000000041a380 f   Publisher.obj
 0001:00019440       ?AddMovieClip@TimelineBuilder@AwayJS@@UEAAIIPEAUDISPLAY_OBJECT_INFO@Service@Exporter@@PEAVIMovieClip@FrameElement@DOM@@@Z 000000000041a440 f   Publisher.obj
 0001:00019530       ?AddShape@ResourcePalette@AwayJS@@UEAAIIPEAVIShape@FrameElement@DOM@@@Z 000000000041a530 f   Publisher.obj
 0001:00019610       ?AddShape@TimelineBuilder@AwayJS@@UEAAIIPEAUDISPLAY_OBJECT_INFO@Service@Exporter@@@Z 000000000041a610 f   Publisher.obj
 0001:00019650       ?AddSound@ResourcePalette@AwayJS@@UEAAIIPEAVIMediaItem@LibraryItem@DOM@@@Z 000000000041a650 f   Publisher.obj
 0001:00019950       ?AddSound@TimelineBuilder@AwayJS@@UEAAIIPEAUSOUND_INFO@Service@Exporter@@PEAVISound@FrameElement@DOM@@@Z 000000000041a950 f   Publisher.obj
 0001:00019a20       ?AddSymbol@ResourcePalette@AwayJS@@UEAAIIPEAGPEAVITimelineBuilder@Service@Exporter@@@Z 000000000041aa20 f   Publisher.obj
 0001:00019b40       ?Build@TimelineBuilder@AwayJS@@UEAAIIPEAGPEAPEAVITimelineWriter@2@@Z 000000000041ab40 f   Publisher.obj
 0001:00019b70       ?Clear@ResourcePalette@AwayJS@@QEAAXXZ 000000000041ab70 f   Publisher.obj
 0001:00019b80       ?ClearCache@CPublisher@AwayJS@@UEAAIXZ 000000000041ab80 f   Publisher.obj
 0001:00019ba0       ?CreateImageFileName@ResourcePalette@AwayJS@@AEAAIPEAVILibraryItem@DOM@@AEAV?$basic_string@DU?$char_traits@D@std@@V?$allocator@D@2@@std@@@Z 000000000041aba0 f   Publisher.obj
 0001:00019fd0       ?CreateSoundFileName@ResourcePalette@AwayJS@@AEAAIPEAVILibraryItem@DOM@@AEAV?$basic_string@DU?$char_traits@D@std@@V?$allocator@D@2@@std@@@Z 000000000041afd0 f   Publisher.obj
 0001:0001a400       ?CreateTimelineBuilder@TimelineBuilderFactory@AwayJS@@UEAAIAEAPEAVITimelineBuilder@Service@Exporter@@@Z 000000000041b400 f   Publisher.obj
 0001:0001a470       ?Export@CPublisher@AwayJS@@AEAAIPEAVIFLADocument@DOM@@PEAVITimeline@4@PEBURANGE@Service@Exporter@@QEAVIFCMDictionary@FCM@@3@Z 000000000041b470 f   Publisher.obj
 0001:0001adf0       ?ExportBitmapFillStyle@ResourcePalette@AwayJS@@AEAAIPEAVIBitmapFillStyle@FillStyle@DOM@@@Z 000000000041bdf0 f   Publisher.obj
 0001:0001b0a0       ?ExportFill@ResourcePalette@AwayJS@@AEAAIPEAVIShape@FrameElement@DOM@@@Z 000000000041c0a0 f   Publisher.obj
 0001:0001b410       ?ExportFillBoundary@ResourcePalette@AwayJS@@AEAAIPEAVIPath@Shape@Service@DOM@@@Z 000000000041c410 f   Publisher.obj
 0001:0001b460       ?ExportFillStyle@ResourcePalette@AwayJS@@AEAAIPEAVIFCMUnknown@FCM@@@Z 000000000041c460 f   Publisher.obj
 0001:0001b760       ?ExportHole@ResourcePalette@AwayJS@@AEAAIPEAVIPath@Shape@Service@DOM@@@Z 000000000041c760 f   Publisher.obj
 0001:0001b7b0       ?ExportLibraryItems@CPublisher@AwayJS@@AEAAIVFCMListPtr@FCM@@@Z 000000000041c7b0 f   Publisher.obj
 0001:0001be00       ?ExportLinearGradientFillStyle@ResourcePalette@AwayJS@@AEAAIPEAVIGradientFillStyle@FillStyle@DOM@@@Z 000000000041ce00 f   Publisher.obj
 0001:0001bf90       ?ExportPath@ResourcePalette@AwayJS@@AEAAIPEAVIPath@Shape@Service@DOM@@@Z 000000000041cf90 f   Publisher.obj
 0001:0001c0e0       ?ExportRadialGradientFillStyle@ResourcePalette@AwayJS@@AEAAIPEAVIGradientFillStyle@FillStyle@DOM@@@Z 000000000041d0e0 f   Publisher.obj
 0001:0001c280       ?ExportSolidFillStyle@ResourcePalette@AwayJS@@AEAAIPEAVISolidFillStyle@FillStyle@DOM@@@Z 000000000041d280 f   Publisher.obj
 0001:0001c2f0       ?ExportSolidStrokeStyle@ResourcePalette@AwayJS@@AEAAIPEAVISolidStrokeStyle@StrokeStyle@DOM@@@Z 000000000041d2f0 f   Publisher.obj
 0001:0001c410       ?ExportStroke@ResourcePalette@AwayJS@@AEAAIPEAVIShape@FrameElement@DOM@@@Z 000000000041d410 f   Publisher.obj
 0001:0001c620       ?ExportStrokeStyle@ResourcePalette@AwayJS@@AEAAIPEAVIFCMUnknown@FCM@@@Z 000000000041d620 f   Publisher.obj
 0001:0001c6f0       ?FCMGUIDToString@FCMUtils@FCM@@SA?AV?$basic_string@DU?$char_traits@D@std@@V?$allocator@D@2@@std@@AEBUFCMGUID@2@@Z 000000000041d6f0 f i Publisher.obj
 0001:0001ca50       ?GetFontInfo@ResourcePalette@AwayJS@@AEAAIPEAVITextStyle@FrameElement@DOM@@AEAV?$basic_string@DU?$char_traits@D@std@@V?$allocator@D@2@@std@@G@Z 000000000041da50 f   Publisher.obj
 0001:0001d060       ?GetIID@IBitmapFillStyle@FillStyle@DOM@@SA?AUFCMGUID@FCM@@XZ 000000000041e060 f i Publisher.obj
 0001:0001d090       ?GetIID@IBitmapInfo@MediaInfo@DOM@@SA?AUFCMGUID@FCM@@XZ 000000000041e090 f i Publisher.obj
 0001:0001d0c0       ?GetIID@IDynamicTextBehaviour@FrameElement@DOM@@SA?AUFCMGUID@FCM@@XZ 000000000041e0c0 f i Publisher.obj
 0001:0001d0f0       ?GetIID@IEdge@Shape@Service@DOM@@SA?AUFCMGUID@FCM@@XZ 000000000041e0f0 f i Publisher.obj
 0001:0001d120       ?GetIID@IFilledRegion@Shape@Service@DOM@@SA?AUFCMGUID@FCM@@XZ 000000000041e120 f i Publisher.obj
 0001:0001d150       ?GetIID@IFolderItem@LibraryItem@DOM@@SA?AUFCMGUID@FCM@@XZ 000000000041e150 f i Publisher.obj
 0001:0001d180       ?GetIID@IFontItem@LibraryItem@DOM@@SA?AUFCMGUID@FCM@@XZ 000000000041e180 f i Publisher.obj
 0001:0001d1b0       ?GetIID@IFrameCommandGenerator@Service@Exporter@@SA?AUFCMGUID@FCM@@XZ 000000000041e1b0 f i Publisher.obj
 0001:0001d1e0       ?GetIID@IGradientFillStyle@FillStyle@DOM@@SA?AUFCMGUID@FCM@@XZ 000000000041e1e0 f i Publisher.obj
 0001:0001d210       ?GetIID@ILibraryItem@DOM@@SA?AUFCMGUID@FCM@@XZ 000000000041e210 f i Publisher.obj
 0001:0001d240       ?GetIID@ILinearColorGradient@Utils@DOM@@SA?AUFCMGUID@FCM@@XZ 000000000041e240 f i Publisher.obj
 0001:0001d270       ?GetIID@IMediaItem@LibraryItem@DOM@@SA?AUFCMGUID@FCM@@XZ 000000000041e270 f i Publisher.obj
 0001:0001d2a0       ?GetIID@IParagraph@FrameElement@DOM@@SA?AUFCMGUID@FCM@@XZ 000000000041e2a0 f i Publisher.obj
 0001:0001d2d0       ?GetIID@IPath@Shape@Service@DOM@@SA?AUFCMGUID@FCM@@XZ 000000000041e2d0 f i Publisher.obj
 0001:0001d300       ?GetIID@IRadialColorGradient@Utils@DOM@@SA?AUFCMGUID@FCM@@XZ 000000000041e300 f i Publisher.obj
 0001:0001d330       ?GetIID@IRegionGeneratorService@Shape@Service@DOM@@SA?AUFCMGUID@FCM@@XZ 000000000041e330 f i Publisher.obj
 0001:0001d360       ?GetIID@IShapeService@Shape@Service@DOM@@SA?AUFCMGUID@FCM@@XZ 000000000041e360 f i Publisher.obj
 0001:0001d390       ?GetIID@ISolidFillStyle@FillStyle@DOM@@SA?AUFCMGUID@FCM@@XZ 000000000041e390 f i Publisher.obj
 0001:0001d3c0       ?GetIID@ISolidStrokeStyle@StrokeStyle@DOM@@SA?AUFCMGUID@FCM@@XZ 000000000041e3c0 f i Publisher.obj
 0001:0001d3f0       ?GetIID@ISoundInfo@MediaInfo@DOM@@SA?AUFCMGUID@FCM@@XZ 000000000041e3f0 f i Publisher.obj
 0001:0001d420       ?GetIID@ISymbolItem@LibraryItem@DOM@@SA?AUFCMGUID@FCM@@XZ 000000000041e420 f i Publisher.obj
 0001:0001d450       ?GetIID@ITextRun@FrameElement@DOM@@SA?AUFCMGUID@FCM@@XZ 000000000041e450 f i Publisher.obj
 0001:0001d480       ?GetIID@ITimeline@DOM@@SA?AUFCMGUID@FCM@@XZ 000000000041e480 f i Publisher.obj
 0001:0001d4b0       ?GetOutputFileName@CPublisher@AwayJS@@AEAAIPEAVIFLADocument@DOM@@PEAVITimeline@4@QEAVIFCMDictionary@FCM@@AEAV?$basic_string@DU?$char_traits@D@std@@V?$allocator@D@2@@std@@@Z 000000000041e4b0 f   Publisher.obj
 0001:0001d850       ?HasResource@ResourcePalette@AwayJS@@QEAAIAEBV?$basic_string@DU?$char_traits@D@std@@V?$allocator@D@2@@std@@AEAE@Z 000000000041e850 f   Publisher.obj
 0001:0001d940       ?HasResource@ResourcePalette@AwayJS@@UEAAIIAEAE@Z 000000000041e940 f   Publisher.obj
 0001:0001d970       ?Init@CPublisher@AwayJS@@AEAAIXZ 000000000041e970 f   Publisher.obj
 0001:0001da40       ?Init@ResourcePalette@AwayJS@@QEAAXPEAVIOutputWriter@2@@Z 000000000041ea40 f   Publisher.obj
 0001:0001da50       ?Init@TimelineBuilder@AwayJS@@QEAAXPEAVIOutputWriter@2@PEAVAWD@@@Z 000000000041ea50 f   Publisher.obj
 0001:0001dad0       ?Init@TimelineBuilderFactory@AwayJS@@QEAAXPEAVIOutputWriter@2@@Z 000000000041ead0 f   Publisher.obj
 0001:0001dae0       ?IsPreviewNeeded@CPublisher@AwayJS@@AEAAEQEAVIFCMDictionary@FCM@@@Z 000000000041eae0 f   Publisher.obj
 0001:0001dc30       ?LaunchBrowser@CPublisher@AwayJS@@AEAAXAEBV?$basic_string@DU?$char_traits@D@std@@V?$allocator@D@2@@std@@@Z 000000000041ec30 f   Publisher.obj
 0001:0001dd70       ?Publish@CPublisher@AwayJS@@UEAAIPEAVIFLADocument@DOM@@PEAVITimeline@4@AEBURANGE@Service@Exporter@@QEAVIFCMDictionary@FCM@@3@Z 000000000041ed70 f   Publisher.obj
 0001:0001dd80       ?Publish@CPublisher@AwayJS@@UEAAIPEAVIFLADocument@DOM@@QEAVIFCMDictionary@FCM@@1@Z 000000000041ed80 f   Publisher.obj
 0001:0001dda0       ?ReadString@CPublisher@AwayJS@@AEAA_NQEAVIFCMDictionary@FCM@@PEADAEAV?$basic_string@DU?$char_traits@D@std@@V?$allocator@D@2@@std@@@Z 000000000041eda0 f   Publisher.obj
 0001:0001de70       ?RegisterPublisher@AwayJS@@YAIPEAVIFCMDictionary@FCM@@UFCMGUID@3@@Z 000000000041ee70 f   Publisher.obj
 0001:0001e160       ?Remove@TimelineBuilder@AwayJS@@UEAAII@Z 000000000041f160 f   Publisher.obj
 0001:0001e170       ?RemoveFrameScript@TimelineBuilder@AwayJS@@UEAAII@Z 000000000041f170 f   Publisher.obj
 0001:0001e180       ?Reset@?$AutoPtr@VIBitmapFillStyle@FillStyle@DOM@@@FCM@@QEAAXXZ 000000000041f180 f i Publisher.obj
 0001:0001e1b0       ?Reset@?$AutoPtr@VIBitmapInfo@MediaInfo@DOM@@@FCM@@QEAAXXZ 000000000041f1b0 f i Publisher.obj
 0001:0001e1e0       ?Reset@?$AutoPtr@VIClassicText@FrameElement@DOM@@@FCM@@QEAAXXZ 000000000041f1e0 f i Publisher.obj
 0001:0001e210       ?Reset@?$AutoPtr@VIDynamicTextBehaviour@FrameElement@DOM@@@FCM@@QEAAXXZ 000000000041f210 f i Publisher.obj
 0001:0001e240       ?Reset@?$AutoPtr@VIEdge@Shape@Service@DOM@@@FCM@@QEAAXXZ 000000000041f240 f i Publisher.obj
 0001:0001e270       ?Reset@?$AutoPtr@VIFCMList@FCM@@@FCM@@QEAAXXZ 000000000041f270 f i Publisher.obj
 0001:0001e2a0       ?Reset@?$AutoPtr@VIFilledRegion@Shape@Service@DOM@@@FCM@@QEAAXXZ 000000000041f2a0 f i Publisher.obj
 0001:0001e2d0       ?Reset@?$AutoPtr@VIFolderItem@LibraryItem@DOM@@@FCM@@QEAAXXZ 000000000041f2d0 f i Publisher.obj
 0001:0001e300       ?Reset@?$AutoPtr@VIFontItem@LibraryItem@DOM@@@FCM@@QEAAXXZ 000000000041f300 f i Publisher.obj
 0001:0001e330       ?Reset@?$AutoPtr@VIFrameCommandGenerator@Service@Exporter@@@FCM@@QEAAXXZ 000000000041f330 f i Publisher.obj
 0001:0001e360       ?Reset@?$AutoPtr@VIGradientFillStyle@FillStyle@DOM@@@FCM@@QEAAXXZ 000000000041f360 f i Publisher.obj
 0001:0001e390       ?Reset@?$AutoPtr@VILibraryItem@DOM@@@FCM@@QEAAXXZ 000000000041f390 f i Publisher.obj
 0001:0001e3c0       ?Reset@?$AutoPtr@VILinearColorGradient@Utils@DOM@@@FCM@@QEAAXXZ 000000000041f3c0 f i Publisher.obj
 0001:0001e3f0       ?Reset@?$AutoPtr@VIMediaItem@LibraryItem@DOM@@@FCM@@QEAAXXZ 000000000041f3f0 f i Publisher.obj
 0001:0001e420       ?Reset@?$AutoPtr@VIParagraph@FrameElement@DOM@@@FCM@@QEAAXXZ 000000000041f420 f i Publisher.obj
 0001:0001e450       ?Reset@?$AutoPtr@VIPath@Shape@Service@DOM@@@FCM@@QEAAXXZ 000000000041f450 f i Publisher.obj
 0001:0001e480       ?Reset@?$AutoPtr@VIRadialColorGradient@Utils@DOM@@@FCM@@QEAAXXZ 000000000041f480 f i Publisher.obj
 0001:0001e4b0       ?Reset@?$AutoPtr@VIRegionGeneratorService@Shape@Service@DOM@@@FCM@@QEAAXXZ 000000000041f4b0 f i Publisher.obj
 0001:0001e4e0       ?Reset@?$AutoPtr@VIResourcePalette@Service@Exporter@@@FCM@@QEAAXXZ 000000000041f4e0 f i Publisher.obj
 0001:0001e510       ?Reset@?$AutoPtr@VIShapeService@Shape@Service@DOM@@@FCM@@QEAAXXZ 000000000041f510 f i Publisher.obj
 0001:0001e540       ?Reset@?$AutoPtr@VISolidFillStyle@FillStyle@DOM@@@FCM@@QEAAXXZ 000000000041f540 f i Publisher.obj
 0001:0001e570       ?Reset@?$AutoPtr@VISolidStrokeStyle@StrokeStyle@DOM@@@FCM@@QEAAXXZ 000000000041f570 f i Publisher.obj
 0001:0001e5a0       ?Reset@?$AutoPtr@VISoundInfo@MediaInfo@DOM@@@FCM@@QEAAXXZ 000000000041f5a0 f i Publisher.obj
 0001:0001e5d0       ?Reset@?$AutoPtr@VISymbolItem@LibraryItem@DOM@@@FCM@@QEAAXXZ 000000000041f5d0 f i Publisher.obj
 0001:0001e600       ?Reset@?$AutoPtr@VITextBehaviour@FrameElement@DOM@@@FCM@@QEAAXXZ 000000000041f600 f i Publisher.obj
 0001:0001e630       ?Reset@?$AutoPtr@VITextRun@FrameElement@DOM@@@FCM@@QEAAXXZ 000000000041f630 f i Publisher.obj
 0001:0001e660       ?Reset@?$AutoPtr@VITextStyle@FrameElement@DOM@@@FCM@@QEAAXXZ 000000000041f660 f i Publisher.obj
 0001:0001e690       ?Reset@?$AutoPtr@VITimeline@DOM@@@FCM@@QEAAXXZ 000000000041f690 f i Publisher.obj
 0001:0001e6c0       ?Reset@?$AutoPtr@VITimelineBuilder@Service@Exporter@@@FCM@@QEAAXXZ 000000000041f6c0 f i Publisher.obj
 0001:0001e6f0       ?Reset@?$AutoPtr@VITimelineBuilderFactory@Service@Exporter@@@FCM@@QEAAXXZ 000000000041f6f0 f i Publisher.obj
 0001:0001e720       ?SetFrameLabel@TimelineBuilder@AwayJS@@UEAAIPEAGW4KeyFrameLabelType@DOM@@@Z 000000000041f720 f   Publisher.obj
 0001:0001e740       ?ShowFrame@TimelineBuilder@AwayJS@@UEAAIXZ 000000000041f740 f   Publisher.obj
 0001:0001e760       ?UpdateBlendMode@TimelineBuilder@AwayJS@@UEAAIIW4BlendMode@FrameElement@DOM@@@Z 000000000041f760 f   Publisher.obj
 0001:0001e770       ?UpdateColorTransform@TimelineBuilder@AwayJS@@UEAAIIAEBUCOLOR_MATRIX@Utils@DOM@@@Z 000000000041f770 f   Publisher.obj
 0001:0001e780       ?UpdateDisplayTransform@TimelineBuilder@AwayJS@@UEAAIIAEBUMATRIX2D@Utils@DOM@@@Z 000000000041f780 f   Publisher.obj
 0001:0001e790       ?UpdateGraphicFilter@TimelineBuilder@AwayJS@@UEAAIIPEAVIFCMList@FCM@@@Z 000000000041f790 f   Publisher.obj
 0001:0001e7b0       ?UpdateVisibility@TimelineBuilder@AwayJS@@UEAAIIE@Z 000000000041f7b0 f   Publisher.obj
 0001:0001e7c0       ?UpdateZOrder@TimelineBuilder@AwayJS@@UEAAIII@Z 000000000041f7c0 f   Publisher.obj
 0001:0001e7cc       ?_Add_vtordisp2@?$basic_ostream@DU?$char_traits@D@std@@@std@@$4PPPPPPPM@HI@EAAXXZ 000000000041f7cc f i Publisher.obj
 0001:0001e7e0       ?_Chassign@?$basic_string@GU?$char_traits@G@std@@V?$allocator@G@2@@std@@QEAAX_K0G@Z 000000000041f7e0 f i Publisher.obj
 0001:0001e830       ?_Compat@?$_String_const_iterator@V?$_String_val@U?$_Simple_types@G@std@@@std@@@std@@QEBAXAEBV12@@Z 000000000041f830 f i Publisher.obj
 0001:0001e840       ?_Compat@?$_Vector_const_iterator@V?$_Vector_val@U?$_Simple_types@I@std@@@std@@@std@@QEBAXAEBV12@@Z 000000000041f840 f i Publisher.obj
 0001:0001e850       ?_Copy@?$basic_string@GU?$char_traits@G@std@@V?$allocator@G@2@@std@@QEAAX_K0@Z 000000000041f850 f i Publisher.obj
 0001:0001e970       ?_Destroy@?$vector@IV?$allocator@I@std@@@std@@IEAAXPEAI0@Z 000000000041f970 f i Publisher.obj
 0001:0001e980       ?_Destroy@?$vector@V?$basic_string@DU?$char_traits@D@std@@V?$allocator@D@2@@std@@V?$allocator@V?$basic_string@DU?$char_traits@D@std@@V?$allocator@D@2@@std@@@2@@std@@IEAAXPEAV?$basic_string@DU?$char_traits@D@std@@V?$allocator@D@2@@2@0@Z 000000000041f980 f i Publisher.obj
 0001:0001e9e0       ?_Eos@?$basic_string@GU?$char_traits@G@std@@V?$allocator@G@2@@std@@QEAAX_K@Z 000000000041f9e0 f i Publisher.obj
 0001:0001ea00       ?_Getal@?$_String_alloc@$0A@U?$_String_base_types@GV?$allocator@G@std@@@std@@@std@@QEBA?AU?$_Wrap_alloc@V?$allocator@G@std@@@2@XZ 000000000041fa00 f i Publisher.obj
 0001:0001ea10       ?_Getal@?$_Vector_alloc@$0A@U?$_Vec_base_types@IV?$allocator@I@std@@@std@@@std@@QEBA?AU?$_Wrap_alloc@V?$allocator@I@std@@@2@XZ 000000000041fa10 f i Publisher.obj
 0001:0001ea20       ?_Getal@?$_Vector_alloc@$0A@U?$_Vec_base_types@V?$basic_string@DU?$char_traits@D@std@@V?$allocator@D@2@@std@@V?$allocator@V?$basic_string@DU?$char_traits@D@std@@V?$allocator@D@2@@std@@@2@@std@@@std@@QEBA?AU?$_Wrap_alloc@V?$allocator@V?$basic_string@DU?$char_traits@D@std@@V?$allocator@D@2@@std@@@std@@@2@XZ 000000000041fa20 f i Publisher.obj
 0001:0001ea30       ?_Getstate@?$basic_stringbuf@DU?$char_traits@D@std@@V?$allocator@D@2@@std@@AEAAHH@Z 000000000041fa30 f i Publisher.obj
 0001:0001ea60       ?_Grow@?$basic_string@GU?$char_traits@G@std@@V?$allocator@G@2@@std@@QEAA_N_K_N@Z 000000000041fa60 f i Publisher.obj
 0001:0001eb40       ?_Grow_to@?$vector@IV?$allocator@I@std@@@std@@IEBA_K_K@Z 000000000041fb40 f i Publisher.obj
 0001:0001eb80       ?_Grow_to@?$vector@V?$basic_string@DU?$char_traits@D@std@@V?$allocator@D@2@@std@@V?$allocator@V?$basic_string@DU?$char_traits@D@std@@V?$allocator@D@2@@std@@@2@@std@@IEBA_K_K@Z 000000000041fb80 f i Publisher.obj
 0001:0001ebc0       ?_Init@?$basic_stringbuf@DU?$char_traits@D@std@@V?$allocator@D@2@@std@@IEAAXPEBD_KH@Z 000000000041fbc0 f i Publisher.obj
 0001:0001ecc0       ?_Inside@?$basic_string@GU?$char_traits@G@std@@V?$allocator@G@2@@std@@QEAA_NPEBG@Z 000000000041fcc0 f i Publisher.obj
 0001:0001ed00       ?_Inside@?$vector@IV?$allocator@I@std@@@std@@IEBA_NPEBI@Z 000000000041fd00 f i Publisher.obj
 0001:0001ed20       ?_Inside@?$vector@V?$basic_string@DU?$char_traits@D@std@@V?$allocator@D@2@@std@@V?$allocator@V?$basic_string@DU?$char_traits@D@std@@V?$allocator@D@2@@std@@@2@@std@@IEBA_NPEBV?$basic_string@DU?$char_traits@D@std@@V?$allocator@D@2@@2@@Z 000000000041fd20 f i Publisher.obj
 0001:0001ed40       ?_Myptr@?$_String_val@U?$_Simple_types@G@std@@@std@@QEAAPEAGXZ 000000000041fd40 f i Publisher.obj
 0001:0001ed50       ?_Myptr@?$_String_val@U?$_Simple_types@G@std@@@std@@QEBAPEBGXZ 000000000041fd50 f i Publisher.obj
 0001:0001ed60       ?_Orphan_range@?$vector@IV?$allocator@I@std@@@std@@IEBAXPEAI0@Z 000000000041fd60 f i Publisher.obj
 0001:0001ed70       ?_Orphan_range@?$vector@V?$basic_string@DU?$char_traits@D@std@@V?$allocator@D@2@@std@@V?$allocator@V?$basic_string@DU?$char_traits@D@std@@V?$allocator@D@2@@std@@@2@@std@@IEBAXPEAV?$basic_string@DU?$char_traits@D@std@@V?$allocator@D@2@@2@0@Z 000000000041fd70 f i Publisher.obj
 0001:0001ed80       ?_Pdif@?$basic_string@GU?$char_traits@G@std@@V?$allocator@G@2@@std@@SA_KV?$_String_const_iterator@V?$_String_val@U?$_Simple_types@G@std@@@std@@@2@0@Z 000000000041fd80 f i Publisher.obj
 0001:0001eda0       ?_Reallocate@?$vector@IV?$allocator@I@std@@@std@@IEAAX_K@Z 000000000041fda0 f i Publisher.obj
 0001:0001ee70       ?_Reallocate@?$vector@V?$basic_string@DU?$char_traits@D@std@@V?$allocator@D@2@@std@@V?$allocator@V?$basic_string@DU?$char_traits@D@std@@V?$allocator@D@2@@std@@@2@@std@@IEAAX_K@Z 000000000041fe70 f i Publisher.obj
 0001:0001ef90       ?_Reserve@?$vector@IV?$allocator@I@std@@@std@@IEAAX_K@Z 000000000041ff90 f i Publisher.obj
 0001:0001f020       ?_Reserve@?$vector@V?$basic_string@DU?$char_traits@D@std@@V?$allocator@D@2@@std@@V?$allocator@V?$basic_string@DU?$char_traits@D@std@@V?$allocator@D@2@@std@@@2@@std@@IEAAX_K@Z 0000000000420020 f i Publisher.obj
 0001:0001f0b0       ?_Tidy@?$basic_string@GU?$char_traits@G@std@@V?$allocator@G@2@@std@@QEAAX_N_K@Z 00000000004200b0 f i Publisher.obj
 0001:0001f110       ?_Tidy@?$basic_stringbuf@DU?$char_traits@D@std@@V?$allocator@D@2@@std@@IEAAXXZ 0000000000420110 f i Publisher.obj
 0001:0001f170       ?_Tidy@?$vector@IV?$allocator@I@std@@@std@@IEAAXXZ 0000000000420170 f i Publisher.obj
 0001:0001f1a0       ?_Tidy@?$vector@V?$basic_string@DU?$char_traits@D@std@@V?$allocator@D@2@@std@@V?$allocator@V?$basic_string@DU?$char_traits@D@std@@V?$allocator@D@2@@std@@@2@@std@@IEAAXXZ 00000000004201a0 f i Publisher.obj
 0001:0001f220       ?_Unchecked@?$_String_iterator@V?$_String_val@U?$_Simple_types@D@std@@@std@@@std@@QEBAPEADXZ 0000000000420220 f i Publisher.obj
 0001:0001f230       ?_Unused_capacity@?$vector@IV?$allocator@I@std@@@std@@QEBA_KXZ 0000000000420230 f i Publisher.obj
 0001:0001f240       ?_Unused_capacity@?$vector@V?$basic_string@DU?$char_traits@D@std@@V?$allocator@D@2@@std@@V?$allocator@V?$basic_string@DU?$char_traits@D@std@@V?$allocator@D@2@@std@@@2@@std@@QEBA_KXZ 0000000000420240 f i Publisher.obj
 0001:0001f250       ?_Xlen@?$basic_string@GU?$char_traits@G@std@@V?$allocator@G@2@@std@@QEBAXXZ 0000000000420250 f i Publisher.obj
 0001:0001f270       ?_Xlen@?$vector@IV?$allocator@I@std@@@std@@IEBAXXZ 0000000000420270 f i Publisher.obj
 0001:0001f290       ?_Xlen@?$vector@V?$basic_string@DU?$char_traits@D@std@@V?$allocator@D@2@@std@@V?$allocator@V?$basic_string@DU?$char_traits@D@std@@V?$allocator@D@2@@std@@@2@@std@@IEBAXXZ 0000000000420290 f i Publisher.obj
 0001:0001f2b0       ?_Xran@?$basic_string@GU?$char_traits@G@std@@V?$allocator@G@2@@std@@QEBAXXZ 00000000004202b0 f i Publisher.obj
 0001:0001f2d0       ?allocate@?$_Wrap_alloc@V?$allocator@G@std@@@std@@QEAAPEAG_K@Z 00000000004202d0 f i Publisher.obj
 0001:0001f310       ?allocate@?$_Wrap_alloc@V?$allocator@I@std@@@std@@QEAAPEAI_K@Z 0000000000420310 f i Publisher.obj
 0001:0001f350       ?allocate@?$_Wrap_alloc@V?$allocator@V?$basic_string@DU?$char_traits@D@std@@V?$allocator@D@2@@std@@@std@@@std@@QEAAPEAV?$basic_string@DU?$char_traits@D@std@@V?$allocator@D@2@@2@_K@Z 0000000000420350 f i Publisher.obj
 0001:0001f390       ?allocate@?$allocator@G@std@@QEAAPEAG_K@Z 0000000000420390 f i Publisher.obj
 0001:0001f3d0       ?allocate@?$allocator@I@std@@QEAAPEAI_K@Z 00000000004203d0 f i Publisher.obj
 0001:0001f410       ?allocate@?$allocator@V?$basic_string@DU?$char_traits@D@std@@V?$allocator@D@2@@std@@@std@@QEAAPEAV?$basic_string@DU?$char_traits@D@std@@V?$allocator@D@2@@2@_K@Z 0000000000420410 f i Publisher.obj
 0001:0001f450       ?append@?$basic_string@GU?$char_traits@G@std@@V?$allocator@G@2@@std@@QEAAAEAV12@AEBV12@@Z 0000000000420450 f i Publisher.obj
 0001:0001f460       ?append@?$basic_string@GU?$char_traits@G@std@@V?$allocator@G@2@@std@@QEAAAEAV12@AEBV12@_K1@Z 0000000000420460 f i Publisher.obj
 0001:0001f5a0       ?append@?$basic_string@GU?$char_traits@G@std@@V?$allocator@G@2@@std@@QEAAAEAV12@_KG@Z 00000000004205a0 f i Publisher.obj
 0001:0001f6d0       ?assign@?$basic_string@GU?$char_traits@G@std@@V?$allocator@G@2@@std@@QEAAAEAV12@AEBV12@_K1@Z 00000000004206d0 f i Publisher.obj
 0001:0001f810       ?assign@?$basic_string@GU?$char_traits@G@std@@V?$allocator@G@2@@std@@QEAAAEAV12@PEBG@Z 0000000000420810 f i Publisher.obj
 0001:0001f840       ?assign@?$basic_string@GU?$char_traits@G@std@@V?$allocator@G@2@@std@@QEAAAEAV12@PEBG_K@Z 0000000000420840 f i Publisher.obj
 0001:0001f990       ?assign@?$char_traits@G@std@@SAPEAGPEAG_KG@Z 0000000000420990 f i Publisher.obj
 0001:0001f9c0       ?assign@?$char_traits@G@std@@SAXAEAGAEBG@Z 00000000004209c0 f i Publisher.obj
 0001:0001f9d0       ?assignPtrWithOwnership@?$AutoPtr@VIClassicText@FrameElement@DOM@@@FCM@@AEAAXAEAPEAVIClassicText@FrameElement@DOM@@PEAV345@@Z 00000000004209d0 f i Publisher.obj
 0001:0001fa20       ?assignPtrWithQIOwnership@?$AutoPtr@VIBitmapFillStyle@FillStyle@DOM@@@FCM@@AEAAXAEAPEAVIBitmapFillStyle@FillStyle@DOM@@PEAVIFCMUnknown@2@@Z 0000000000420a20 f i Publisher.obj
 0001:0001faa0       ?assignPtrWithQIOwnership@?$AutoPtr@VIBitmapInfo@MediaInfo@DOM@@@FCM@@AEAAXAEAPEAVIBitmapInfo@MediaInfo@DOM@@PEAVIFCMUnknown@2@@Z 0000000000420aa0 f i Publisher.obj
 0001:0001fb20       ?assignPtrWithQIOwnership@?$AutoPtr@VIDynamicTextBehaviour@FrameElement@DOM@@@FCM@@AEAAXAEAPEAVIDynamicTextBehaviour@FrameElement@DOM@@PEAVIFCMUnknown@2@@Z 0000000000420b20 f i Publisher.obj
 0001:0001fba0       ?assignPtrWithQIOwnership@?$AutoPtr@VIEdge@Shape@Service@DOM@@@FCM@@AEAAXAEAPEAVIEdge@Shape@Service@DOM@@PEAVIFCMUnknown@2@@Z 0000000000420ba0 f i Publisher.obj
 0001:0001fc20       ?assignPtrWithQIOwnership@?$AutoPtr@VIFCMUnknown@FCM@@@FCM@@AEAAXAEAPEAVIFCMUnknown@2@PEAV32@@Z 0000000000420c20 f i Publisher.obj
 0001:0001fca0       ?assignPtrWithQIOwnership@?$AutoPtr@VIFilledRegion@Shape@Service@DOM@@@FCM@@AEAAXAEAPEAVIFilledRegion@Shape@Service@DOM@@PEAVIFCMUnknown@2@@Z 0000000000420ca0 f i Publisher.obj
 0001:0001fd20       ?assignPtrWithQIOwnership@?$AutoPtr@VIFolderItem@LibraryItem@DOM@@@FCM@@AEAAXAEAPEAVIFolderItem@LibraryItem@DOM@@PEAVIFCMUnknown@2@@Z 0000000000420d20 f i Publisher.obj
 0001:0001fda0       ?assignPtrWithQIOwnership@?$AutoPtr@VIFontItem@LibraryItem@DOM@@@FCM@@AEAAXAEAPEAVIFontItem@LibraryItem@DOM@@PEAVIFCMUnknown@2@@Z 0000000000420da0 f i Publisher.obj
 0001:0001fe20       ?assignPtrWithQIOwnership@?$AutoPtr@VIFrameCommandGenerator@Service@Exporter@@@FCM@@AEAAXAEAPEAVIFrameCommandGenerator@Service@Exporter@@PEAVIFCMUnknown@2@@Z 0000000000420e20 f i Publisher.obj
 0001:0001fea0       ?assignPtrWithQIOwnership@?$AutoPtr@VIGradientFillStyle@FillStyle@DOM@@@FCM@@AEAAXAEAPEAVIGradientFillStyle@FillStyle@DOM@@PEAVIFCMUnknown@2@@Z 0000000000420ea0 f i Publisher.obj
 0001:0001ff20       ?assignPtrWithQIOwnership@?$AutoPtr@VILibraryItem@DOM@@@FCM@@AEAAXAEAPEAVILibraryItem@DOM@@PEAVIFCMUnknown@2@@Z 0000000000420f20 f i Publisher.obj
 0001:0001ffa0       ?assignPtrWithQIOwnership@?$AutoPtr@VILinearColorGradient@Utils@DOM@@@FCM@@AEAAXAEAPEAVILinearColorGradient@Utils@DOM@@PEAVIFCMUnknown@2@@Z 0000000000420fa0 f i Publisher.obj
 0001:00020020       ?assignPtrWithQIOwnership@?$AutoPtr@VIMediaItem@LibraryItem@DOM@@@FCM@@AEAAXAEAPEAVIMediaItem@LibraryItem@DOM@@PEAVIFCMUnknown@2@@Z 0000000000421020 f i Publisher.obj
 0001:000200a0       ?assignPtrWithQIOwnership@?$AutoPtr@VIParagraph@FrameElement@DOM@@@FCM@@AEAAXAEAPEAVIParagraph@FrameElement@DOM@@PEAVIFCMUnknown@2@@Z 00000000004210a0 f i Publisher.obj
 0001:00020120       ?assignPtrWithQIOwnership@?$AutoPtr@VIPath@Shape@Service@DOM@@@FCM@@AEAAXAEAPEAVIPath@Shape@Service@DOM@@PEAVIFCMUnknown@2@@Z 0000000000421120 f i Publisher.obj
 0001:000201a0       ?assignPtrWithQIOwnership@?$AutoPtr@VIRadialColorGradient@Utils@DOM@@@FCM@@AEAAXAEAPEAVIRadialColorGradient@Utils@DOM@@PEAVIFCMUnknown@2@@Z 00000000004211a0 f i Publisher.obj
 0001:00020220       ?assignPtrWithQIOwnership@?$AutoPtr@VIRegionGeneratorService@Shape@Service@DOM@@@FCM@@AEAAXAEAPEAVIRegionGeneratorService@Shape@Service@DOM@@PEAVIFCMUnknown@2@@Z 0000000000421220 f i Publisher.obj
 0001:000202a0       ?assignPtrWithQIOwnership@?$AutoPtr@VIShapeService@Shape@Service@DOM@@@FCM@@AEAAXAEAPEAVIShapeService@Shape@Service@DOM@@PEAVIFCMUnknown@2@@Z 00000000004212a0 f i Publisher.obj
 0001:00020320       ?assignPtrWithQIOwnership@?$AutoPtr@VISolidFillStyle@FillStyle@DOM@@@FCM@@AEAAXAEAPEAVISolidFillStyle@FillStyle@DOM@@PEAVIFCMUnknown@2@@Z 0000000000421320 f i Publisher.obj
 0001:000203a0       ?assignPtrWithQIOwnership@?$AutoPtr@VISolidStrokeStyle@StrokeStyle@DOM@@@FCM@@AEAAXAEAPEAVISolidStrokeStyle@StrokeStyle@DOM@@PEAVIFCMUnknown@2@@Z 00000000004213a0 f i Publisher.obj
 0001:00020420       ?assignPtrWithQIOwnership@?$AutoPtr@VISoundInfo@MediaInfo@DOM@@@FCM@@AEAAXAEAPEAVISoundInfo@MediaInfo@DOM@@PEAVIFCMUnknown@2@@Z 0000000000421420 f i Publisher.obj
 0001:000204a0       ?assignPtrWithQIOwnership@?$AutoPtr@VISymbolItem@LibraryItem@DOM@@@FCM@@AEAAXAEAPEAVISymbolItem@LibraryItem@DOM@@PEAVIFCMUnknown@2@@Z 00000000004214a0 f i Publisher.obj
 0001:00020520       ?assignPtrWithQIOwnership@?$AutoPtr@VITextRun@FrameElement@DOM@@@FCM@@AEAAXAEAPEAVITextRun@FrameElement@DOM@@PEAVIFCMUnknown@2@@Z 0000000000421520 f i Publisher.obj
 0001:000205a0       ?assignPtrWithQIOwnership@?$AutoPtr@VITimeline@DOM@@@FCM@@AEAAXAEAPEAVITimeline@DOM@@PEAVIFCMUnknown@2@@Z 00000000004215a0 f i Publisher.obj
 0001:00020620       ?begin@?$basic_string@DU?$char_traits@D@std@@V?$allocator@D@2@@std@@QEBA?AV?$_String_const_iterator@V?$_String_val@U?$_Simple_types@D@std@@@std@@@2@XZ 0000000000421620 f i Publisher.obj
 0001:00020640       ?begin@?$basic_string@GU?$char_traits@G@std@@V?$allocator@G@2@@std@@QEAA?AV?$_String_iterator@V?$_String_val@U?$_Simple_types@G@std@@@std@@@2@XZ 0000000000421640 f i Publisher.obj
 0001:00020660       ?begin@?$vector@IV?$allocator@I@std@@@std@@QEAA?AV?$_Vector_iterator@V?$_Vector_val@U?$_Simple_types@I@std@@@std@@@2@XZ 0000000000421660 f i Publisher.obj
 0001:00020670       ?c_str@?$basic_string@GU?$char_traits@G@std@@V?$allocator@G@2@@std@@QEBAPEBGXZ 0000000000421670 f i Publisher.obj
 0001:00020680       ?capacity@?$vector@IV?$allocator@I@std@@@std@@QEBA_KXZ 0000000000421680 f i Publisher.obj
 0001:00020690       ?capacity@?$vector@V?$basic_string@DU?$char_traits@D@std@@V?$allocator@D@2@@std@@V?$allocator@V?$basic_string@DU?$char_traits@D@std@@V?$allocator@D@2@@std@@@2@@std@@QEBA_KXZ 0000000000421690 f i Publisher.obj
 0001:000206a0       ?clear@?$vector@IV?$allocator@I@std@@@std@@QEAAXXZ 00000000004216a0 f i Publisher.obj
 0001:000206b0       ?construct@?$allocator@I@std@@QEAAXPEAIAEBI@Z 00000000004216b0 f i Publisher.obj
 0001:000206c0       ?copy@?$char_traits@G@std@@SAPEAGPEAGPEBG_K@Z 00000000004216c0 f i Publisher.obj
 0001:000206e0       ?deallocate@?$_Wrap_alloc@V?$allocator@G@std@@@std@@QEAAXPEAG_K@Z 00000000004216e0 f i Publisher.obj
 0001:000206f0       ?deallocate@?$_Wrap_alloc@V?$allocator@I@std@@@std@@QEAAXPEAI_K@Z 00000000004216f0 f i Publisher.obj
 0001:00020700       ?deallocate@?$_Wrap_alloc@V?$allocator@V?$basic_string@DU?$char_traits@D@std@@V?$allocator@D@2@@std@@@std@@@std@@QEAAXPEAV?$basic_string@DU?$char_traits@D@std@@V?$allocator@D@2@@2@_K@Z 0000000000421700 f i Publisher.obj
 0001:00020710       ?deallocate@?$allocator@G@std@@QEAAXPEAG_K@Z 0000000000421710 f i Publisher.obj
 0001:00020720       ?deallocate@?$allocator@I@std@@QEAAXPEAI_K@Z 0000000000421720 f i Publisher.obj
 0001:00020730       ?deallocate@?$allocator@V?$basic_string@DU?$char_traits@D@std@@V?$allocator@D@2@@std@@@std@@QEAAXPEAV?$basic_string@DU?$char_traits@D@std@@V?$allocator@D@2@@2@_K@Z 0000000000421730 f i Publisher.obj
 0001:00020740       ?end@?$basic_string@DU?$char_traits@D@std@@V?$allocator@D@2@@std@@QEBA?AV?$_String_const_iterator@V?$_String_val@U?$_Simple_types@D@std@@@std@@@2@XZ 0000000000421740 f i Publisher.obj
 0001:00020770       ?end@?$basic_string@GU?$char_traits@G@std@@V?$allocator@G@2@@std@@QEAA?AV?$_String_iterator@V?$_String_val@U?$_Simple_types@G@std@@@std@@@2@XZ 0000000000421770 f i Publisher.obj
 0001:000207a0       ?end@?$vector@IV?$allocator@I@std@@@std@@QEAA?AV?$_Vector_iterator@V?$_Vector_val@U?$_Simple_types@I@std@@@std@@@2@XZ 00000000004217a0 f i Publisher.obj
 0001:000207b0       ?eq@?$char_traits@D@std@@SA_NAEBD0@Z 00000000004217b0 f i Publisher.obj
 0001:000207c0       ?erase@?$basic_string@GU?$char_traits@G@std@@V?$allocator@G@2@@std@@QEAAAEAV12@_K0@Z 00000000004217c0 f i Publisher.obj
 0001:00020870       ?erase@?$basic_string@GU?$char_traits@G@std@@V?$allocator@G@2@@std@@QEAAAEAV12@_K@Z 0000000000421870 f i Publisher.obj
 0001:000208c0       ?get@?$auto_ptr@VAWDOutputWriter@AwayJS@@@std@@QEBAPEAVAWDOutputWriter@AwayJS@@XZ 00000000004218c0 f i Publisher.obj
 0001:000208d0       ?hex@std@@YAAEAVios_base@1@AEAV21@@Z 00000000004218d0 f i Publisher.obj
 0001:000208f0       ?length@?$char_traits@G@std@@SA_KPEBG@Z 00000000004218f0 f i Publisher.obj
 0001:00020910       ?max_size@?$_Wrap_alloc@V?$allocator@G@std@@@std@@QEBA_KXZ 0000000000421910 f i Publisher.obj
 0001:00020920       ?max_size@?$_Wrap_alloc@V?$allocator@I@std@@@std@@QEBA_KXZ 0000000000421920 f i Publisher.obj
 0001:00020930       ?max_size@?$_Wrap_alloc@V?$allocator@V?$basic_string@DU?$char_traits@D@std@@V?$allocator@D@2@@std@@@std@@@std@@QEBA_KXZ 0000000000421930 f i Publisher.obj
 0001:00020940       ?max_size@?$allocator@G@std@@QEBA_KXZ 0000000000421940 f i Publisher.obj
 0001:00020950       ?max_size@?$allocator@I@std@@QEBA_KXZ 0000000000421950 f i Publisher.obj
 0001:00020960       ?max_size@?$allocator@V?$basic_string@DU?$char_traits@D@std@@V?$allocator@D@2@@std@@@std@@QEBA_KXZ 0000000000421960 f i Publisher.obj
 0001:00020970       ?max_size@?$allocator_traits@V?$allocator@G@std@@@std@@SA_KAEBV?$allocator@G@2@@Z 0000000000421970 f i Publisher.obj
 0001:00020980       ?max_size@?$allocator_traits@V?$allocator@I@std@@@std@@SA_KAEBV?$allocator@I@2@@Z 0000000000421980 f i Publisher.obj
 0001:00020990       ?max_size@?$allocator_traits@V?$allocator@V?$basic_string@DU?$char_traits@D@std@@V?$allocator@D@2@@std@@@std@@@std@@SA_KAEBV?$allocator@V?$basic_string@DU?$char_traits@D@std@@V?$allocator@D@2@@std@@@2@@Z 0000000000421990 f i Publisher.obj
 0001:000209a0       ?max_size@?$basic_string@GU?$char_traits@G@std@@V?$allocator@G@2@@std@@QEBA_KXZ 00000000004219a0 f i Publisher.obj
 0001:000209b0       ?max_size@?$vector@IV?$allocator@I@std@@@std@@QEBA_KXZ 00000000004219b0 f i Publisher.obj
 0001:000209c0       ?max_size@?$vector@V?$basic_string@DU?$char_traits@D@std@@V?$allocator@D@2@@std@@V?$allocator@V?$basic_string@DU?$char_traits@D@std@@V?$allocator@D@2@@std@@@2@@std@@QEBA_KXZ 00000000004219c0 f i Publisher.obj
 0001:000209d0       ?move@?$char_traits@G@std@@SAPEAGPEAGPEBG_K@Z 00000000004219d0 f i Publisher.obj
 0001:000209f0       ?overflow@?$basic_stringbuf@DU?$char_traits@D@std@@V?$allocator@D@2@@std@@MEAAHH@Z 00000000004219f0 f i Publisher.obj
 0001:00020c50       ?pbackfail@?$basic_stringbuf@DU?$char_traits@D@std@@V?$allocator@D@2@@std@@MEAAHH@Z 0000000000421c50 f i Publisher.obj
 0001:00020ca0       ?push_back@?$vector@IV?$allocator@I@std@@@std@@QEAAXAEBI@Z 0000000000421ca0 f i Publisher.obj
 0001:00020d30       ?push_back@?$vector@V?$basic_string@DU?$char_traits@D@std@@V?$allocator@D@2@@std@@V?$allocator@V?$basic_string@DU?$char_traits@D@std@@V?$allocator@D@2@@std@@@2@@std@@QEAAX$$QEAV?$basic_string@DU?$char_traits@D@std@@V?$allocator@D@2@@2@@Z 0000000000421d30 f i Publisher.obj
 0001:00020e10       ?replace@?$basic_string@GU?$char_traits@G@std@@V?$allocator@G@2@@std@@QEAAAEAV12@V?$_String_const_iterator@V?$_String_val@U?$_Simple_types@G@std@@@std@@@2@0AEBV12@@Z 0000000000421e10 f i Publisher.obj
 0001:00020e60       ?replace@?$basic_string@GU?$char_traits@G@std@@V?$allocator@G@2@@std@@QEAAAEAV12@_K0AEBV12@00@Z 0000000000421e60 f i Publisher.obj
 0001:00021230       ?replace@?$basic_string@GU?$char_traits@G@std@@V?$allocator@G@2@@std@@QEAAAEAV12@_K0AEBV12@@Z 0000000000422230 f i Publisher.obj
 0001:00021250       ?reserve@?$basic_string@GU?$char_traits@G@std@@V?$allocator@G@2@@std@@QEAAX_K@Z 0000000000422250 f i Publisher.obj
 0001:000212a0       ?rfind@?$basic_string@DU?$char_traits@D@std@@V?$allocator@D@2@@std@@QEBA_KPEBD_K1@Z 00000000004222a0 f i Publisher.obj
 0001:00021360       ?rfind@?$basic_string@DU?$char_traits@D@std@@V?$allocator@D@2@@std@@QEBA_KPEBD_K@Z 0000000000422360 f i Publisher.obj
 0001:00021380       ?seekoff@?$basic_stringbuf@DU?$char_traits@D@std@@V?$allocator@D@2@@std@@MEAA?AV?$fpos@H@2@_JHH@Z 0000000000422380 f i Publisher.obj
 0001:00021510       ?seekpos@?$basic_stringbuf@DU?$char_traits@D@std@@V?$allocator@D@2@@std@@MEAA?AV?$fpos@H@2@V32@H@Z 0000000000422510 f i Publisher.obj
 0001:00021620       ?size@?$basic_string@GU?$char_traits@G@std@@V?$allocator@G@2@@std@@QEBA_KXZ 0000000000422620 f i Publisher.obj
 0001:00021630       ?size@?$vector@IV?$allocator@I@std@@@std@@QEBA_KXZ 0000000000422630 f i Publisher.obj
 0001:00021640       ?size@?$vector@V?$basic_string@DU?$char_traits@D@std@@V?$allocator@D@2@@std@@V?$allocator@V?$basic_string@DU?$char_traits@D@std@@V?$allocator@D@2@@std@@@2@@std@@QEBA_KXZ 0000000000422640 f i Publisher.obj
 0001:00021650       ?str@?$basic_ostringstream@DU?$char_traits@D@std@@V?$allocator@D@2@@std@@QEBA?AV?$basic_string@DU?$char_traits@D@std@@V?$allocator@D@2@@2@XZ 0000000000422650 f i Publisher.obj
 0001:00021680       ?str@?$basic_stringbuf@DU?$char_traits@D@std@@V?$allocator@D@2@@std@@QEBA?AV?$basic_string@DU?$char_traits@D@std@@V?$allocator@D@2@@2@XZ 0000000000422680 f i Publisher.obj
 0001:00021810       ?to_string@std@@YA?AV?$basic_string@DU?$char_traits@D@std@@V?$allocator@D@2@@1@H@Z 0000000000422810 f i Publisher.obj
 0001:000218b0       ?underflow@?$basic_stringbuf@DU?$char_traits@D@std@@V?$allocator@D@2@@std@@MEAAHXZ 00000000004228b0 f i Publisher.obj
 0001:00021910       wmemcpy                    0000000000422910 f i Publisher.obj
 0001:00021930       wmemmove                   0000000000422930 f i Publisher.obj
 0001:00021940       wmemset                    0000000000422940 f i Publisher.obj
 0001:00021970       ??$?0VIFCMUnknown@FCM@@@?$AutoPtr@VIFCMStringUtils@FCM@@@FCM@@QEAA@AEBV?$AutoPtr@VIFCMUnknown@FCM@@@1@@Z 0000000000422970 f i Utils.obj
 0001:000219b0       ??$?4VIFCMUnknown@FCM@@@?$AutoPtr@VIOutputConsoleService@Service@FlashApplication@@@FCM@@QEAAXAEBV?$AutoPtr@VIFCMUnknown@FCM@@@1@@Z 00000000004229b0 f i Utils.obj
 0001:000219f0       ??$IsSameUnknown@VIFCMUnknown@FCM@@@?$AutoPtr@VIFCMStringUtils@FCM@@@FCM@@QEAA_NPEAVIFCMUnknown@1@@Z 00000000004229f0 f i Utils.obj
 0001:00021b00       ??0?$AutoPtr@VIFCMCalloc@FCM@@@FCM@@QEAA@AEBV01@@Z 0000000000422b00 f i Utils.obj
 0001:00021b30       ??0?$AutoPtr@VIFCMCalloc@FCM@@@FCM@@QEAA@PEAVIFCMCalloc@1@@Z 0000000000422b30 f i Utils.obj
 0001:00021b60       ??0?$AutoPtr@VIFCMStringUtils@FCM@@@FCM@@QEAA@AEBV01@@Z 0000000000422b60 f i Utils.obj
 0001:00021b90       ??0?$AutoPtr@VIFCMStringUtils@FCM@@@FCM@@QEAA@PEAVIFCMStringUtils@1@@Z 0000000000422b90 f i Utils.obj
 0001:00021bc0       ??0?$AutoPtr@VIOutputConsoleService@Service@FlashApplication@@@FCM@@QEAA@XZ 0000000000422bc0 f i Utils.obj
 0001:00021bd0       ??1?$AutoPtr@VIFCMStringUtils@FCM@@@FCM@@QEAA@XZ 0000000000422bd0 f i Utils.obj
 0001:00021c00       ??B?$AutoPtr@VIOutputConsoleService@Service@FlashApplication@@@FCM@@QEBA_NXZ 0000000000422c00 f i Utils.obj
 0001:00021c10       ??C?$AutoPtr@VIFCMStringUtils@FCM@@@FCM@@QEBAPEAVIFCMStringUtils@1@XZ 0000000000422c10 f i Utils.obj
 0001:00021c20       ?GetCallocService@Utils@AwayJS@@SA?AV?$AutoPtr@VIFCMCalloc@FCM@@@FCM@@PEAVIFCMCallback@4@@Z 0000000000422c20 f   Utils.obj
 0001:00021d60       ?GetFileExtension@Utils@AwayJS@@SAXAEBV?$basic_string@DU?$char_traits@D@std@@V?$allocator@D@2@@std@@AEAV34@@Z 0000000000422d60 f   Utils.obj
 0001:00021e30       ?GetFileName@Utils@AwayJS@@SAXAEBV?$basic_string@DU?$char_traits@D@std@@V?$allocator@D@2@@std@@AEAV34@@Z 0000000000422e30 f   Utils.obj
 0001:00021ee0       ?GetFileNameWithoutExtension@Utils@AwayJS@@SAXAEBV?$basic_string@DU?$char_traits@D@std@@V?$allocator@D@2@@std@@AEAV34@@Z 0000000000422ee0 f   Utils.obj
 0001:00021fa0       ?GetIID@IFCMStringUtils@FCM@@SA?AUFCMGUID@2@XZ 0000000000422fa0 f i Utils.obj
 0001:00021fd0       ?GetModuleFilePath@Utils@AwayJS@@SAXAEAV?$basic_string@DU?$char_traits@D@std@@V?$allocator@D@2@@std@@PEAVIFCMCallback@FCM@@@Z 0000000000422fd0 f   Utils.obj
 0001:000221a0       ?GetParent@Utils@AwayJS@@SAXAEBV?$basic_string@DU?$char_traits@D@std@@V?$allocator@D@2@@std@@AEAV34@@Z 00000000004231a0 f   Utils.obj
 0001:00022250       ?GetStringUtilsService@Utils@AwayJS@@SA?AV?$AutoPtr@VIFCMStringUtils@FCM@@@FCM@@PEAVIFCMCallback@4@@Z 0000000000423250 f   Utils.obj
 0001:00022390       ?Log@Utils@AwayJS@@SAXPEBDZZ 0000000000423390 f   Utils.obj
 0001:000223f0       ?Reset@?$AutoPtr@VIFCMStringUtils@FCM@@@FCM@@QEAAXXZ 00000000004233f0 f i Utils.obj
 0001:00022420       ?ToString16@Utils@AwayJS@@SAPEAGAEBV?$basic_string@DU?$char_traits@D@std@@V?$allocator@D@2@@std@@PEAVIFCMCallback@FCM@@@Z 0000000000423420 f   Utils.obj
 0001:00022490       ?ToString@Utils@AwayJS@@SA?AV?$basic_string@DU?$char_traits@D@std@@V?$allocator@D@2@@std@@AEBH@Z 0000000000423490 f   Utils.obj
 0001:00022520       ?ToString@Utils@AwayJS@@SA?AV?$basic_string@DU?$char_traits@D@std@@V?$allocator@D@2@@std@@AEBI@Z 0000000000423520 f   Utils.obj
 0001:000225b0       ?ToString@Utils@AwayJS@@SA?AV?$basic_string@DU?$char_traits@D@std@@V?$allocator@D@2@@std@@AEBM@Z 00000000004235b0 f   Utils.obj
 0001:00022650       ?ToString@Utils@AwayJS@@SA?AV?$basic_string@DU?$char_traits@D@std@@V?$allocator@D@2@@std@@AEBN@Z 0000000000423650 f   Utils.obj
 0001:000226f0       ?ToString@Utils@AwayJS@@SA?AV?$basic_string@DU?$char_traits@D@std@@V?$allocator@D@2@@std@@AEBUCOLOR@1DOM@@@Z 00000000004236f0 f   Utils.obj
 0001:00022840       ?ToString@Utils@AwayJS@@SA?AV?$basic_string@DU?$char_traits@D@std@@V?$allocator@D@2@@std@@AEBUFCMGUID@FCM@@@Z 0000000000423840 f   Utils.obj
 0001:00022ba0       ?ToString@Utils@AwayJS@@SA?AV?$basic_string@DU?$char_traits@D@std@@V?$allocator@D@2@@std@@AEBUMATRIX2D@1DOM@@@Z 0000000000423ba0 f   Utils.obj
 0001:00022dc0       ?ToString@Utils@AwayJS@@SA?AV?$basic_string@DU?$char_traits@D@std@@V?$allocator@D@2@@std@@AEBW4CapType@1DOM@@@Z 0000000000423dc0 f   Utils.obj
 0001:00022e40       ?ToString@Utils@AwayJS@@SA?AV?$basic_string@DU?$char_traits@D@std@@V?$allocator@D@2@@std@@AEBW4GradientSpread@FillStyle@DOM@@@Z 0000000000423e40 f   Utils.obj
 0001:00022ed0       ?ToString@Utils@AwayJS@@SA?AV?$basic_string@DU?$char_traits@D@std@@V?$allocator@D@2@@std@@AEBW4JoinType@1DOM@@@Z 0000000000423ed0 f   Utils.obj
 0001:00022f50       ?ToString@Utils@AwayJS@@SA?AV?$basic_string@DU?$char_traits@D@std@@V?$allocator@D@2@@std@@PEBGPEAVIFCMCallback@FCM@@@Z 0000000000423f50 f   Utils.obj
 0001:00023030       ?Trace@Utils@AwayJS@@SAXPEAVIFCMCallback@FCM@@PEBDZZ 0000000000424030 f   Utils.obj
 0001:00023280       ?TransformPoint@Utils@AwayJS@@SAXAEBUMATRIX2D@1DOM@@AEAUPOINT2D@14@1@Z 0000000000424280 f   Utils.obj
 0001:000232d0       ?assignPtrWithQIOwnership@?$AutoPtr@VIFCMStringUtils@FCM@@@FCM@@AEAAXAEAPEAVIFCMStringUtils@2@PEAVIFCMUnknown@2@@Z 00000000004242d0 f i Utils.obj
 0001:00023350       ?find_last_of@?$basic_string@DU?$char_traits@D@std@@V?$allocator@D@2@@std@@QEBA_KPEBD_K1@Z 0000000000424350 f i Utils.obj
 0001:000233f0       ?find_last_of@?$basic_string@DU?$char_traits@D@std@@V?$allocator@D@2@@std@@QEBA_KPEBD_K@Z 00000000004243f0 f i Utils.obj
 0001:00023410       ??0SAXParser@xercesc_3_1@@QEAA@QEAVXMLValidator@1@QEAVMemoryManager@1@QEAVXMLGrammarPool@1@@Z 0000000000424410 f   xerces-c_3:xerces-c_3_1.dll
 0001:00023416       ??1SAXParser@xercesc_3_1@@UEAA@XZ 0000000000424416 f   xerces-c_3:xerces-c_3_1.dll
 0001:0002341c       ?parse@SAXParser@xercesc_3_1@@UEAAXAEBVInputSource@2@@Z 000000000042441c f   xerces-c_3:xerces-c_3_1.dll
 0001:00023422       ?setDocumentHandler@SAXParser@xercesc_3_1@@UEAAXQEAVDocumentHandler@2@@Z 0000000000424422 f   xerces-c_3:xerces-c_3_1.dll
 0001:00023428       ??0MemBufInputSource@xercesc_3_1@@QEAA@QEBE_KQEBD_NQEAVMemoryManager@1@@Z 0000000000424428 f   xerces-c_3:xerces-c_3_1.dll
 0001:0002342e       ??1MemBufInputSource@xercesc_3_1@@UEAA@XZ 000000000042442e f   xerces-c_3:xerces-c_3_1.dll
 0001:00023434       ?transcode@XMLString@xercesc_3_1@@SA_NQEBGQEAD_KQEAVMemoryManager@2@@Z 0000000000424434 f   xerces-c_3:xerces-c_3_1.dll
 0001:00023440       ??0AWDBlock@@QEAA@W4AWD_block_type@@@Z 0000000000424440 f   libawd2D:block.obj
 0001:00023470       ??0AWDBlockIterator@@QEAA@PEAVAWDBlockList@@@Z 0000000000424470 f   libawd2D:block.obj
 0001:00023490       ??0AWDBlockList@@QEAA@_N@Z 0000000000424490 f   libawd2D:block.obj
 0001:000234b0       ??0BlockSettings@@QEAA@_N000N@Z 00000000004244b0 f   libawd2D:block.obj
 0001:000234e0       ??1AWDBlock@@QEAA@XZ       00000000004244e0 f   libawd2D:block.obj
 0001:00023520       ??1AWDBlockIterator@@QEAA@XZ 0000000000424520 f   libawd2D:block.obj
 0001:00023530       ??1AWDBlockList@@QEAA@XZ   0000000000424530 f   libawd2D:block.obj
 0001:00023610       ??1BlockSettings@@QEAA@XZ  0000000000424610 f   libawd2D:block.obj
 0001:00023620       ??_GAWDBitmapTexture@@QEAAPEAXI@Z 0000000000424620 f i libawd2D:block.obj
 0001:00023650       ??_GAWDMessageBlock@@QEAAPEAXI@Z 0000000000424650 f i libawd2D:block.obj
 0001:00023680       ??_GAWDNamespace@@QEAAPEAXI@Z 0000000000424680 f i libawd2D:block.obj
 0001:000236b0       ?append@AWDBlockList@@QEAA_NPEAVAWDBlock@@@Z 00000000004246b0 f   libawd2D:block.obj
 0001:00023730       ?contains@AWDBlockList@@QEAA_NPEAVAWDBlock@@@Z 0000000000424730 f   libawd2D:block.obj
 0001:00023760       ?force_append@AWDBlockList@@QEAAXPEAVAWDBlock@@@Z 0000000000424760 f   libawd2D:block.obj
 0001:000237c0       ?getByIndex@AWDBlockList@@QEAAPEAVAWDBlock@@H@Z 00000000004247c0 f   libawd2D:block.obj
 0001:000237e0       ?get_addr@AWDBlock@@QEAAIXZ 00000000004247e0 f   libawd2D:block.obj
 0001:000237f0       ?get_block_by_ID@AWDBlockList@@QEAAPEAVAWDBlock@@AEAV?$basic_string@DU?$char_traits@D@std@@V?$allocator@D@2@@std@@@Z 00000000004247f0 f   libawd2D:block.obj
 0001:000238a0       ?get_isValid@AWDBlock@@QEAA_NXZ 00000000004248a0 f   libawd2D:block.obj
 0001:000238b0       ?get_num_blocks@AWDBlockList@@QEAAHXZ 00000000004248b0 f   libawd2D:block.obj
 0001:000238c0       ?get_num_blocks_valid@AWDBlockList@@QEAAHXZ 00000000004248c0 f   libawd2D:block.obj
 0001:000238f0       ?get_objectID@AWDBlock@@QEAAAEAV?$basic_string@DU?$char_traits@D@std@@V?$allocator@D@2@@std@@XZ 00000000004248f0 f   libawd2D:block.obj
 0001:00023900       ?get_scale@BlockSettings@@QEAANXZ 0000000000424900 f   libawd2D:block.obj
 0001:00023910       ?get_type@AWDBlock@@QEAA?AW4AWD_block_type@@XZ 0000000000424910 f   libawd2D:block.obj
 0001:00023920       ?get_wide_attributes@BlockSettings@@QEAA_NXZ 0000000000424920 f   libawd2D:block.obj
 0001:00023930       ?get_wide_geom@BlockSettings@@QEAA_NXZ 0000000000424930 f   libawd2D:block.obj
 0001:00023940       ?get_wide_matrix@BlockSettings@@QEAA_NXZ 0000000000424940 f   libawd2D:block.obj
 0001:00023950       ?get_wide_props@BlockSettings@@QEAA_NXZ 0000000000424950 f   libawd2D:block.obj
 0001:00023960       ?make_invalide@AWDBlock@@QEAAXXZ 0000000000424960 f   libawd2D:block.obj
 0001:00023970       ?next@AWDBlockIterator@@QEAAPEAVAWDBlock@@XZ 0000000000424970 f   libawd2D:block.obj
 0001:00023990       ?prepare_and_add_dependencies@AWDBlock@@MEAAXPEAVAWDBlockList@@@Z 0000000000424990 f   libawd2D:block.obj
 0001:000239a0       ?prepare_and_add_with_dependencies@AWDBlock@@QEAAXPEAVAWDBlockList@@@Z 00000000004249a0 f   libawd2D:block.obj
 0001:00023a00       ?replace@AWDBlockList@@QEAA_NPEAVAWDBlock@@0@Z 0000000000424a00 f   libawd2D:block.obj
 0001:00023a30       ?reset@AWDBlockIterator@@QEAAXXZ 0000000000424a30 f   libawd2D:block.obj
 0001:00023a50       ?set_objectID@AWDBlock@@QEAAXAEAV?$basic_string@DU?$char_traits@D@std@@V?$allocator@D@2@@std@@@Z 0000000000424a50 f   libawd2D:block.obj
 0001:00023a70       ?set_scale@BlockSettings@@QEAAXN@Z 0000000000424a70 f   libawd2D:block.obj
 0001:00023a80       ?set_wide_attributes@BlockSettings@@QEAAX_N@Z 0000000000424a80 f   libawd2D:block.obj
 0001:00023a90       ?set_wide_geom@BlockSettings@@QEAAX_N@Z 0000000000424a90 f   libawd2D:block.obj
 0001:00023aa0       ?set_wide_matrix@BlockSettings@@QEAAX_N@Z 0000000000424aa0 f   libawd2D:block.obj
 0001:00023ab0       ?set_wide_props@BlockSettings@@QEAAX_N@Z 0000000000424ab0 f   libawd2D:block.obj
 0001:00023ac0       ?write_block@AWDBlock@@QEAA_KPEAVAWDFileWriter@@PEAVBlockSettings@@@Z 0000000000424ac0 f   libawd2D:block.obj
 0001:00023b80       ??0AWDNamedElement@@QEAA@AEAV?$basic_string@DU?$char_traits@D@std@@V?$allocator@D@2@@std@@@Z 0000000000424b80 f   libawd2D:name.obj
 0001:00023bd0       ??1AWDNamedElement@@QEAA@XZ 0000000000424bd0 f   libawd2D:name.obj
 0001:00023c10       ?get_name@AWDNamedElement@@QEAAAEAV?$basic_string@DU?$char_traits@D@std@@V?$allocator@D@2@@std@@XZ 0000000000424c10 f   libawd2D:name.obj
 0001:00023c20       ?set_name@AWDNamedElement@@QEAAXAEAV?$basic_string@DU?$char_traits@D@std@@V?$allocator@D@2@@std@@@Z 0000000000424c20 f   libawd2D:name.obj
 0001:00023c40       ?awdutil_float_color@@YAINNNN@Z 0000000000424c40 f   libawd2D:util.obj
 0001:00023c90       ?awdutil_get_type_size@@YA_KW4AWD_field_type@@_N@Z 0000000000424c90 f   libawd2D:util.obj
 0001:00023db0       ?awdutil_id_mtx4x4@@YAPEANPEAN@Z 0000000000424db0 f   libawd2D:util.obj
 0001:00023e20       ?awdutil_int_color@@YAIHHHH@Z 0000000000424e20 f   libawd2D:util.obj
 0001:00023e40       ?awdutil_swapf32@@YAMM@Z   0000000000424e40 f   libawd2D:util.obj
 0001:00023e70       ?awdutil_swapf64@@YANN@Z   0000000000424e70 f   libawd2D:util.obj
 0001:00023ee0       ?awdutil_swapui16@@YAGG@Z  0000000000424ee0 f   libawd2D:util.obj
 0001:00023f00       ?awdutil_swapui32@@YAII@Z  0000000000424f00 f   libawd2D:util.obj
 0001:00023f30       ?awdutil_write_floats@@YAIPEAVAWDFileWriter@@PEANH_N@Z 0000000000424f30 f   libawd2D:util.obj
 0001:00023fb0       ??$?HDU?$char_traits@D@std@@V?$allocator@D@1@@std@@YA?AV?$basic_string@DU?$char_traits@D@std@@V?$allocator@D@2@@0@$$QEAV10@0@Z 0000000000424fb0 f i libawd2D:shape2D.obj
 0001:00024030       ??$_Allocate@PEAUPoint@p2t@@@std@@YAPEAPEAUPoint@p2t@@_KPEAPEAU12@@Z 0000000000425030 f i libawd2D:shape2D.obj
 0001:00024070       ??$_Allocate@V?$vector@PEAUPoint@p2t@@V?$allocator@PEAUPoint@p2t@@@std@@@std@@@std@@YAPEAV?$vector@PEAUPoint@p2t@@V?$allocator@PEAUPoint@p2t@@@std@@@0@_KPEAV10@@Z 0000000000425070 f i libawd2D:shape2D.obj
 0001:000240b0       ??$_Destroy_range@U?$_Wrap_alloc@V?$allocator@PEAUPoint@p2t@@@std@@@std@@@std@@YAXPEAPEAUPoint@p2t@@0AEAU?$_Wrap_alloc@V?$allocator@PEAUPoint@p2t@@@std@@@0@@Z 00000000004250b0 f i libawd2D:shape2D.obj
 0001:000240c0       ??$_Destroy_range@U?$_Wrap_alloc@V?$allocator@PEAUPoint@p2t@@@std@@@std@@@std@@YAXPEAPEAUPoint@p2t@@0AEAU?$_Wrap_alloc@V?$allocator@PEAUPoint@p2t@@@std@@@0@U_Scalar_ptr_iterator_tag@0@@Z 00000000004250c0 f i libawd2D:shape2D.obj
 0001:000240d0       ??$_Destroy_range@U?$_Wrap_alloc@V?$allocator@PEAVTriangle@p2t@@@std@@@std@@@std@@YAXPEAPEAVTriangle@p2t@@0AEAU?$_Wrap_alloc@V?$allocator@PEAVTriangle@p2t@@@std@@@0@@Z 00000000004250d0 f i libawd2D:shape2D.obj
 0001:000240e0       ??$_Destroy_range@U?$_Wrap_alloc@V?$allocator@PEAVTriangle@p2t@@@std@@@std@@@std@@YAXPEAPEAVTriangle@p2t@@0AEAU?$_Wrap_alloc@V?$allocator@PEAVTriangle@p2t@@@std@@@0@U_Scalar_ptr_iterator_tag@0@@Z 00000000004250e0 f i libawd2D:shape2D.obj
 0001:000240f0       ??$_Destroy_range@U?$_Wrap_alloc@V?$allocator@V?$vector@PEAUPoint@p2t@@V?$allocator@PEAUPoint@p2t@@@std@@@std@@@std@@@std@@@std@@YAXPEAV?$vector@PEAUPoint@p2t@@V?$allocator@PEAUPoint@p2t@@@std@@@0@0AEAU?$_Wrap_alloc@V?$allocator@V?$vector@PEAUPoint@p2t@@V?$allocator@PEAUPoint@p2t@@@std@@@std@@@std@@@0@@Z 00000000004250f0 f i libawd2D:shape2D.obj
 0001:00024150       ??$_Destroy_range@U?$_Wrap_alloc@V?$allocator@V?$vector@PEAUPoint@p2t@@V?$allocator@PEAUPoint@p2t@@@std@@@std@@@std@@@std@@@std@@YAXPEAV?$vector@PEAUPoint@p2t@@V?$allocator@PEAUPoint@p2t@@@std@@@0@0AEAU?$_Wrap_alloc@V?$allocator@V?$vector@PEAUPoint@p2t@@V?$allocator@PEAUPoint@p2t@@@std@@@std@@@std@@@0@U_Nonscalar_ptr_iterator_tag@0@@Z 0000000000425150 f i libawd2D:shape2D.obj
 0001:000241b0       ??$_Ptr_cat@PEAUPoint@p2t@@PEAU12@@std@@YA?AU_Scalar_ptr_iterator_tag@0@PEAPEAUPoint@p2t@@0@Z 00000000004251b0 f i libawd2D:shape2D.obj
 0001:000241c0       ??$_Ptr_cat@PEAVTriangle@p2t@@PEAV12@@std@@YA?AU_Scalar_ptr_iterator_tag@0@PEAPEAVTriangle@p2t@@0@Z 00000000004251c0 f i libawd2D:shape2D.obj
 0001:000241d0       ??$_Ptr_cat@V?$_Vector_const_iterator@V?$_Vector_val@U?$_Simple_types@PEAUPoint@p2t@@@std@@@std@@@std@@PEAPEAUPoint@p2t@@@std@@YA?AU_Nonscalar_ptr_iterator_tag@0@AEAV?$_Vector_const_iterator@V?$_Vector_val@U?$_Simple_types@PEAUPoint@p2t@@@std@@@std@@@0@AEAPEAPEAUPoint@p2t@@@Z 00000000004251d0 f i libawd2D:shape2D.obj
 0001:000241e0       ??$_Ptr_cat@V?$vector@PEAUPoint@p2t@@V?$allocator@PEAUPoint@p2t@@@std@@@std@@V12@@std@@YA?AU_Nonscalar_ptr_iterator_tag@0@PEAV?$vector@PEAUPoint@p2t@@V?$allocator@PEAUPoint@p2t@@@std@@@0@0@Z 00000000004251e0 f i libawd2D:shape2D.obj
 0001:000241f0       ??$_Ucopy@V?$_Vector_const_iterator@V?$_Vector_val@U?$_Simple_types@PEAUPoint@p2t@@@std@@@std@@@std@@@?$vector@PEAUPoint@p2t@@V?$allocator@PEAUPoint@p2t@@@std@@@std@@IEAAPEAPEAUPoint@p2t@@V?$_Vector_const_iterator@V?$_Vector_val@U?$_Simple_types@PEAUPoint@p2t@@@std@@@std@@@1@0PEAPEAU23@@Z 00000000004251f0 f i libawd2D:shape2D.obj
 0001:00024230       ??$_Umove@PEAPEAUPoint@p2t@@@?$vector@PEAUPoint@p2t@@V?$allocator@PEAUPoint@p2t@@@std@@@std@@IEAAPEAPEAUPoint@p2t@@PEAPEAU23@00@Z 0000000000425230 f i libawd2D:shape2D.obj
 0001:00024260       ??$_Umove@PEAV?$vector@PEAUPoint@p2t@@V?$allocator@PEAUPoint@p2t@@@std@@@std@@@?$vector@V?$vector@PEAUPoint@p2t@@V?$allocator@PEAUPoint@p2t@@@std@@@std@@V?$allocator@V?$vector@PEAUPoint@p2t@@V?$allocator@PEAUPoint@p2t@@@std@@@std@@@2@@std@@IEAAPEAV?$vector@PEAUPoint@p2t@@V?$allocator@PEAUPoint@p2t@@@std@@@1@PEAV21@00@Z 0000000000425260 f i libawd2D:shape2D.obj
 0001:000242a0       ??$_Uninit_copy@V?$_Vector_const_iterator@V?$_Vector_val@U?$_Simple_types@PEAUPoint@p2t@@@std@@@std@@@std@@PEAPEAUPoint@p2t@@V?$allocator@PEAUPoint@p2t@@@2@@std@@YAPEAPEAUPoint@p2t@@V?$_Vector_const_iterator@V?$_Vector_val@U?$_Simple_types@PEAUPoint@p2t@@@std@@@std@@@0@0PEAPEAU12@AEAU?$_Wrap_alloc@V?$allocator@PEAUPoint@p2t@@@std@@@0@U_Nonscalar_ptr_iterator_tag@0@@Z 00000000004252a0 f i libawd2D:shape2D.obj
 0001:000242e0       ??$_Uninit_move@PEAUPoint@p2t@@PEAU12@PEAU12@@std@@YAPEAPEAUPoint@p2t@@PEAPEAU12@00AEAU?$_Wrap_alloc@V?$allocator@PEAUPoint@p2t@@@std@@@0@0U_Scalar_ptr_iterator_tag@0@@Z 00000000004252e0 f i libawd2D:shape2D.obj
 0001:00024310       ??$_Uninit_move@PEAV?$vector@PEAUPoint@p2t@@V?$allocator@PEAUPoint@p2t@@@std@@@std@@PEAV12@V?$allocator@V?$vector@PEAUPoint@p2t@@V?$allocator@PEAUPoint@p2t@@@std@@@std@@@2@V12@@std@@YAPEAV?$vector@PEAUPoint@p2t@@V?$allocator@PEAUPoint@p2t@@@std@@@0@PEAV10@00AEAU?$_Wrap_alloc@V?$allocator@V?$vector@PEAUPoint@p2t@@V?$allocator@PEAUPoint@p2t@@@std@@@std@@@std@@@0@0U_Nonscalar_ptr_iterator_tag@0@@Z 0000000000425310 f i libawd2D:shape2D.obj
 0001:00024390       ??$_Uninitialized_copy@V?$_Vector_const_iterator@V?$_Vector_val@U?$_Simple_types@PEAUPoint@p2t@@@std@@@std@@@std@@PEAPEAUPoint@p2t@@U?$_Wrap_alloc@V?$allocator@PEAUPoint@p2t@@@std@@@2@@std@@YAPEAPEAUPoint@p2t@@V?$_Vector_const_iterator@V?$_Vector_val@U?$_Simple_types@PEAUPoint@p2t@@@std@@@std@@@0@0PEAPEAU12@AEAU?$_Wrap_alloc@V?$allocator@PEAUPoint@p2t@@@std@@@0@@Z 0000000000425390 f i libawd2D:shape2D.obj
 0001:000243b0       ??$_Uninitialized_move@PEAPEAUPoint@p2t@@PEAPEAU12@U?$_Wrap_alloc@V?$allocator@PEAUPoint@p2t@@@std@@@std@@@std@@YAPEAPEAUPoint@p2t@@PEAPEAU12@00AEAU?$_Wrap_alloc@V?$allocator@PEAUPoint@p2t@@@std@@@0@@Z 00000000004253b0 f i libawd2D:shape2D.obj
 0001:000243e0       ??$_Uninitialized_move@PEAV?$vector@PEAUPoint@p2t@@V?$allocator@PEAUPoint@p2t@@@std@@@std@@PEAV12@U?$_Wrap_alloc@V?$allocator@V?$vector@PEAUPoint@p2t@@V?$allocator@PEAUPoint@p2t@@@std@@@std@@@std@@@2@@std@@YAPEAV?$vector@PEAUPoint@p2t@@V?$allocator@PEAUPoint@p2t@@@std@@@0@PEAV10@00AEAU?$_Wrap_alloc@V?$allocator@V?$vector@PEAUPoint@p2t@@V?$allocator@PEAUPoint@p2t@@@std@@@std@@@std@@@0@@Z 00000000004253e0 f i libawd2D:shape2D.obj
 0001:00024400       ??$_Val_type@PEAPEAUPoint@p2t@@@std@@YAPEAPEAUPoint@p2t@@PEAPEAU12@@Z 0000000000425400 f i libawd2D:shape2D.obj
 0001:00024410       ??$_Val_type@PEAV?$vector@PEAUPoint@p2t@@V?$allocator@PEAUPoint@p2t@@@std@@@std@@@std@@YAPEAV?$vector@PEAUPoint@p2t@@V?$allocator@PEAUPoint@p2t@@@std@@@0@PEAV10@@Z 0000000000425410 f i libawd2D:shape2D.obj
 0001:00024420       ??$addressof@$$CBV?$basic_string@DU?$char_traits@D@std@@V?$allocator@D@2@@std@@@std@@YAPEBV?$basic_string@DU?$char_traits@D@std@@V?$allocator@D@2@@0@AEBV10@@Z 0000000000425420 f i libawd2D:shape2D.obj
 0001:00024430       ??$addressof@$$CBV?$vector@PEAUPoint@p2t@@V?$allocator@PEAUPoint@p2t@@@std@@@std@@@std@@YAPEBV?$vector@PEAUPoint@p2t@@V?$allocator@PEAUPoint@p2t@@@std@@@0@AEBV10@@Z 0000000000425430 f i libawd2D:shape2D.obj
 0001:00024440       ??$addressof@QEAUPoint@p2t@@@std@@YAPEBQEAUPoint@p2t@@AEBQEAU12@@Z 0000000000425440 f i libawd2D:shape2D.obj
 0001:00024450       ??$construct@PEAUPoint@p2t@@AEAPEAU12@@?$_Wrap_alloc@V?$allocator@PEAUPoint@p2t@@@std@@@std@@QEAAXPEAPEAUPoint@p2t@@AEAPEAU23@@Z 0000000000425450 f i libawd2D:shape2D.obj
 0001:00024460       ??$construct@PEAUPoint@p2t@@AEAPEAU12@@?$allocator@PEAUPoint@p2t@@@std@@QEAAXPEAPEAUPoint@p2t@@AEAPEAU23@@Z 0000000000425460 f i libawd2D:shape2D.obj
 0001:00024470       ??$construct@PEAUPoint@p2t@@AEAPEAU12@@?$allocator_traits@V?$allocator@PEAUPoint@p2t@@@std@@@std@@SAXAEAV?$allocator@PEAUPoint@p2t@@@1@PEAPEAUPoint@p2t@@AEAPEAU34@@Z 0000000000425470 f i libawd2D:shape2D.obj
 0001:00024480       ??$construct@PEAUPoint@p2t@@AEBQEAU12@@?$_Wrap_alloc@V?$allocator@PEAUPoint@p2t@@@std@@@std@@QEAAXPEAPEAUPoint@p2t@@AEBQEAU23@@Z 0000000000425480 f i libawd2D:shape2D.obj
 0001:00024490       ??$construct@PEAUPoint@p2t@@AEBQEAU12@@?$allocator_traits@V?$allocator@PEAUPoint@p2t@@@std@@@std@@SAXAEAV?$allocator@PEAUPoint@p2t@@@1@PEAPEAUPoint@p2t@@AEBQEAU34@@Z 0000000000425490 f i libawd2D:shape2D.obj
 0001:000244a0       ??$construct@V?$basic_string@DU?$char_traits@D@std@@V?$allocator@D@2@@std@@AEAV12@@?$_Wrap_alloc@V?$allocator@V?$basic_string@DU?$char_traits@D@std@@V?$allocator@D@2@@std@@@std@@@std@@QEAAXPEAV?$basic_string@DU?$char_traits@D@std@@V?$allocator@D@2@@1@AEAV21@@Z 00000000004254a0 f i libawd2D:shape2D.obj
 0001:000244f0       ??$construct@V?$basic_string@DU?$char_traits@D@std@@V?$allocator@D@2@@std@@AEAV12@@?$allocator@V?$basic_string@DU?$char_traits@D@std@@V?$allocator@D@2@@std@@@std@@QEAAXPEAV?$basic_string@DU?$char_traits@D@std@@V?$allocator@D@2@@1@AEAV21@@Z 00000000004254f0 f i libawd2D:shape2D.obj
 0001:00024540       ??$construct@V?$basic_string@DU?$char_traits@D@std@@V?$allocator@D@2@@std@@AEAV12@@?$allocator_traits@V?$allocator@V?$basic_string@DU?$char_traits@D@std@@V?$allocator@D@2@@std@@@std@@@std@@SAXAEAV?$allocator@V?$basic_string@DU?$char_traits@D@std@@V?$allocator@D@2@@std@@@1@PEAV?$basic_string@DU?$char_traits@D@std@@V?$allocator@D@2@@1@AEAV31@@Z 0000000000425540 f i libawd2D:shape2D.obj
 0001:00024590       ??$construct@V?$basic_string@DU?$char_traits@D@std@@V?$allocator@D@2@@std@@AEBV12@@?$_Wrap_alloc@V?$allocator@V?$basic_string@DU?$char_traits@D@std@@V?$allocator@D@2@@std@@@std@@@std@@QEAAXPEAV?$basic_string@DU?$char_traits@D@std@@V?$allocator@D@2@@1@AEBV21@@Z 0000000000425590 f i libawd2D:shape2D.obj
 0001:000245e0       ??$construct@V?$basic_string@DU?$char_traits@D@std@@V?$allocator@D@2@@std@@AEBV12@@?$allocator_traits@V?$allocator@V?$basic_string@DU?$char_traits@D@std@@V?$allocator@D@2@@std@@@std@@@std@@SAXAEAV?$allocator@V?$basic_string@DU?$char_traits@D@std@@V?$allocator@D@2@@std@@@1@PEAV?$basic_string@DU?$char_traits@D@std@@V?$allocator@D@2@@1@AEBV31@@Z 00000000004255e0 f i libawd2D:shape2D.obj
 0001:00024630       ??$construct@V?$vector@PEAUPoint@p2t@@V?$allocator@PEAUPoint@p2t@@@std@@@std@@AEAV12@@?$_Wrap_alloc@V?$allocator@V?$vector@PEAUPoint@p2t@@V?$allocator@PEAUPoint@p2t@@@std@@@std@@@std@@@std@@QEAAXPEAV?$vector@PEAUPoint@p2t@@V?$allocator@PEAUPoint@p2t@@@std@@@1@AEAV21@@Z 0000000000425630 f i libawd2D:shape2D.obj
 0001:00024660       ??$construct@V?$vector@PEAUPoint@p2t@@V?$allocator@PEAUPoint@p2t@@@std@@@std@@AEAV12@@?$allocator@V?$vector@PEAUPoint@p2t@@V?$allocator@PEAUPoint@p2t@@@std@@@std@@@std@@QEAAXPEAV?$vector@PEAUPoint@p2t@@V?$allocator@PEAUPoint@p2t@@@std@@@1@AEAV21@@Z 0000000000425660 f i libawd2D:shape2D.obj
 0001:00024690       ??$construct@V?$vector@PEAUPoint@p2t@@V?$allocator@PEAUPoint@p2t@@@std@@@std@@AEAV12@@?$allocator_traits@V?$allocator@V?$vector@PEAUPoint@p2t@@V?$allocator@PEAUPoint@p2t@@@std@@@std@@@std@@@std@@SAXAEAV?$allocator@V?$vector@PEAUPoint@p2t@@V?$allocator@PEAUPoint@p2t@@@std@@@std@@@1@PEAV?$vector@PEAUPoint@p2t@@V?$allocator@PEAUPoint@p2t@@@std@@@1@AEAV31@@Z 0000000000425690 f i libawd2D:shape2D.obj
 0001:000246c0       ??$construct@V?$vector@PEAUPoint@p2t@@V?$allocator@PEAUPoint@p2t@@@std@@@std@@AEBV12@@?$_Wrap_alloc@V?$allocator@V?$vector@PEAUPoint@p2t@@V?$allocator@PEAUPoint@p2t@@@std@@@std@@@std@@@std@@QEAAXPEAV?$vector@PEAUPoint@p2t@@V?$allocator@PEAUPoint@p2t@@@std@@@1@AEBV21@@Z 00000000004256c0 f i libawd2D:shape2D.obj
 0001:000246f0       ??$construct@V?$vector@PEAUPoint@p2t@@V?$allocator@PEAUPoint@p2t@@@std@@@std@@AEBV12@@?$allocator_traits@V?$allocator@V?$vector@PEAUPoint@p2t@@V?$allocator@PEAUPoint@p2t@@@std@@@std@@@std@@@std@@SAXAEAV?$allocator@V?$vector@PEAUPoint@p2t@@V?$allocator@PEAUPoint@p2t@@@std@@@std@@@1@PEAV?$vector@PEAUPoint@p2t@@V?$allocator@PEAUPoint@p2t@@@std@@@1@AEBV31@@Z 00000000004256f0 f i libawd2D:shape2D.obj
 0001:00024720       ??$construct@V?$vector@PEAUPoint@p2t@@V?$allocator@PEAUPoint@p2t@@@std@@@std@@V12@@?$_Wrap_alloc@V?$allocator@V?$vector@PEAUPoint@p2t@@V?$allocator@PEAUPoint@p2t@@@std@@@std@@@std@@@std@@QEAAXPEAV?$vector@PEAUPoint@p2t@@V?$allocator@PEAUPoint@p2t@@@std@@@1@$$QEAV21@@Z 0000000000425720 f i libawd2D:shape2D.obj
 0001:00024760       ??$construct@V?$vector@PEAUPoint@p2t@@V?$allocator@PEAUPoint@p2t@@@std@@@std@@V12@@?$allocator@V?$vector@PEAUPoint@p2t@@V?$allocator@PEAUPoint@p2t@@@std@@@std@@@std@@QEAAXPEAV?$vector@PEAUPoint@p2t@@V?$allocator@PEAUPoint@p2t@@@std@@@1@$$QEAV21@@Z 0000000000425760 f i libawd2D:shape2D.obj
 0001:000247a0       ??$construct@V?$vector@PEAUPoint@p2t@@V?$allocator@PEAUPoint@p2t@@@std@@@std@@V12@@?$allocator_traits@V?$allocator@V?$vector@PEAUPoint@p2t@@V?$allocator@PEAUPoint@p2t@@@std@@@std@@@std@@@std@@SAXAEAV?$allocator@V?$vector@PEAUPoint@p2t@@V?$allocator@PEAUPoint@p2t@@@std@@@std@@@1@PEAV?$vector@PEAUPoint@p2t@@V?$allocator@PEAUPoint@p2t@@@std@@@1@$$QEAV31@@Z 00000000004257a0 f i libawd2D:shape2D.obj
 0001:000247e0       ??$destroy@PEAUPoint@p2t@@@?$_Wrap_alloc@V?$allocator@PEAUPoint@p2t@@@std@@@std@@QEAAXPEAPEAUPoint@p2t@@@Z 00000000004257e0 f i libawd2D:shape2D.obj
 0001:000247f0       ??$destroy@PEAUPoint@p2t@@@?$allocator@PEAUPoint@p2t@@@std@@QEAAXPEAPEAUPoint@p2t@@@Z 00000000004257f0 f i libawd2D:shape2D.obj
 0001:00024800       ??$destroy@PEAUPoint@p2t@@@?$allocator_traits@V?$allocator@PEAUPoint@p2t@@@std@@@std@@SAXAEAV?$allocator@PEAUPoint@p2t@@@1@PEAPEAUPoint@p2t@@@Z 0000000000425800 f i libawd2D:shape2D.obj
 0001:00024810       ??$destroy@V?$vector@PEAUPoint@p2t@@V?$allocator@PEAUPoint@p2t@@@std@@@std@@@?$_Wrap_alloc@V?$allocator@V?$vector@PEAUPoint@p2t@@V?$allocator@PEAUPoint@p2t@@@std@@@std@@@std@@@std@@QEAAXPEAV?$vector@PEAUPoint@p2t@@V?$allocator@PEAUPoint@p2t@@@std@@@1@@Z 0000000000425810 f i libawd2D:shape2D.obj
 0001:00024840       ??$destroy@V?$vector@PEAUPoint@p2t@@V?$allocator@PEAUPoint@p2t@@@std@@@std@@@?$allocator@V?$vector@PEAUPoint@p2t@@V?$allocator@PEAUPoint@p2t@@@std@@@std@@@std@@QEAAXPEAV?$vector@PEAUPoint@p2t@@V?$allocator@PEAUPoint@p2t@@@std@@@1@@Z 0000000000425840 f i libawd2D:shape2D.obj
 0001:00024870       ??$destroy@V?$vector@PEAUPoint@p2t@@V?$allocator@PEAUPoint@p2t@@@std@@@std@@@?$allocator_traits@V?$allocator@V?$vector@PEAUPoint@p2t@@V?$allocator@PEAUPoint@p2t@@@std@@@std@@@std@@@std@@SAXAEAV?$allocator@V?$vector@PEAUPoint@p2t@@V?$allocator@PEAUPoint@p2t@@@std@@@std@@@1@PEAV?$vector@PEAUPoint@p2t@@V?$allocator@PEAUPoint@p2t@@@std@@@1@@Z 0000000000425870 f i libawd2D:shape2D.obj
 0001:000248a0       ??$forward@AEAPEAUPoint@p2t@@@std@@YAAEAPEAUPoint@p2t@@AEAPEAU12@@Z 00000000004258a0 f i libawd2D:shape2D.obj
 0001:000248b0       ??$forward@AEAV?$vector@PEAUPoint@p2t@@V?$allocator@PEAUPoint@p2t@@@std@@@std@@@std@@YAAEAV?$vector@PEAUPoint@p2t@@V?$allocator@PEAUPoint@p2t@@@std@@@0@AEAV10@@Z 00000000004258b0 f i libawd2D:shape2D.obj
 0001:000248c0       ??$forward@AEBQEAUPoint@p2t@@@std@@YAAEBQEAUPoint@p2t@@AEBQEAU12@@Z 00000000004258c0 f i libawd2D:shape2D.obj
 0001:000248d0       ??$forward@AEBV?$vector@PEAUPoint@p2t@@V?$allocator@PEAUPoint@p2t@@@std@@@std@@@std@@YAAEBV?$vector@PEAUPoint@p2t@@V?$allocator@PEAUPoint@p2t@@@std@@@0@AEBV10@@Z 00000000004258d0 f i libawd2D:shape2D.obj
 0001:000248e0       ??$forward@V?$vector@PEAUPoint@p2t@@V?$allocator@PEAUPoint@p2t@@@std@@@std@@@std@@YA$$QEAV?$vector@PEAUPoint@p2t@@V?$allocator@PEAUPoint@p2t@@@std@@@0@AEAV10@@Z 00000000004258e0 f i libawd2D:shape2D.obj
 0001:000248f0       ??0?$_Vector_alloc@$0A@U?$_Vec_base_types@PEAUPoint@p2t@@V?$allocator@PEAUPoint@p2t@@@std@@@std@@@std@@QEAA@AEBV?$allocator@PEAUPoint@p2t@@@1@@Z 00000000004258f0 f i libawd2D:shape2D.obj
 0001:00024910       ??0?$_Vector_alloc@$0A@U?$_Vec_base_types@V?$vector@PEAUPoint@p2t@@V?$allocator@PEAUPoint@p2t@@@std@@@std@@V?$allocator@V?$vector@PEAUPoint@p2t@@V?$allocator@PEAUPoint@p2t@@@std@@@std@@@2@@std@@@std@@QEAA@AEBV?$allocator@V?$vector@PEAUPoint@p2t@@V?$allocator@PEAUPoint@p2t@@@std@@@std@@@1@@Z 0000000000425910 f i libawd2D:shape2D.obj
 0001:00024930       ??0?$_Vector_const_iterator@V?$_Vector_val@U?$_Simple_types@PEAUPoint@p2t@@@std@@@std@@@std@@QEAA@PEAPEAUPoint@p2t@@PEBU_Container_base0@1@@Z 0000000000425930 f i libawd2D:shape2D.obj
 0001:00024940       ??0?$_Vector_const_iterator@V?$_Vector_val@U?$_Simple_types@PEAVTriangle@p2t@@@std@@@std@@@std@@QEAA@PEAPEAVTriangle@p2t@@PEBU_Container_base0@1@@Z 0000000000425940 f i libawd2D:shape2D.obj
 0001:00024950       ??0?$_Vector_const_iterator@V?$_Vector_val@U?$_Simple_types@V?$basic_string@DU?$char_traits@D@std@@V?$allocator@D@2@@std@@@std@@@std@@@std@@QEAA@PEAV?$basic_string@DU?$char_traits@D@std@@V?$allocator@D@2@@1@PEBU_Container_base0@1@@Z 0000000000425950 f i libawd2D:shape2D.obj
 0001:00024960       ??0?$_Vector_const_iterator@V?$_Vector_val@U?$_Simple_types@V?$vector@PEAUPoint@p2t@@V?$allocator@PEAUPoint@p2t@@@std@@@std@@@std@@@std@@@std@@QEAA@PEAV?$vector@PEAUPoint@p2t@@V?$allocator@PEAUPoint@p2t@@@std@@@1@PEBU_Container_base0@1@@Z 0000000000425960 f i libawd2D:shape2D.obj
 0001:00024970       ??0?$_Vector_iterator@V?$_Vector_val@U?$_Simple_types@PEAUPoint@p2t@@@std@@@std@@@std@@QEAA@PEAPEAUPoint@p2t@@PEBU_Container_base0@1@@Z 0000000000425970 f i libawd2D:shape2D.obj
 0001:00024980       ??0?$_Vector_iterator@V?$_Vector_val@U?$_Simple_types@PEAVTriangle@p2t@@@std@@@std@@@std@@QEAA@PEAPEAVTriangle@p2t@@PEBU_Container_base0@1@@Z 0000000000425980 f i libawd2D:shape2D.obj
 0001:00024990       ??0?$_Vector_iterator@V?$_Vector_val@U?$_Simple_types@V?$basic_string@DU?$char_traits@D@std@@V?$allocator@D@2@@std@@@std@@@std@@@std@@QEAA@PEAV?$basic_string@DU?$char_traits@D@std@@V?$allocator@D@2@@1@PEBU_Container_base0@1@@Z 0000000000425990 f i libawd2D:shape2D.obj
 0001:000249a0       ??0?$_Vector_iterator@V?$_Vector_val@U?$_Simple_types@V?$vector@PEAUPoint@p2t@@V?$allocator@PEAUPoint@p2t@@@std@@@std@@@std@@@std@@@std@@QEAA@PEAV?$vector@PEAUPoint@p2t@@V?$allocator@PEAUPoint@p2t@@@std@@@1@PEBU_Container_base0@1@@Z 00000000004259a0 f i libawd2D:shape2D.obj
 0001:000249b0       ??0?$_Vector_val@U?$_Simple_types@PEAUPoint@p2t@@@std@@@std@@QEAA@XZ 00000000004259b0 f i libawd2D:shape2D.obj
 0001:000249d0       ??0?$_Vector_val@U?$_Simple_types@V?$vector@PEAUPoint@p2t@@V?$allocator@PEAUPoint@p2t@@@std@@@std@@@std@@@std@@QEAA@XZ 00000000004259d0 f i libawd2D:shape2D.obj
 0001:000249f0       ??0?$_Wrap_alloc@V?$allocator@PEAUPoint@p2t@@@std@@@std@@QEAA@AEBV?$allocator@PEAUPoint@p2t@@@1@@Z 00000000004259f0 f i libawd2D:shape2D.obj
 0001:00024a00       ??0?$_Wrap_alloc@V?$allocator@PEAUPoint@p2t@@@std@@@std@@QEAA@XZ 0000000000425a00 f i libawd2D:shape2D.obj
 0001:00024a10       ??0?$_Wrap_alloc@V?$allocator@PEAVTriangle@p2t@@@std@@@std@@QEAA@XZ 0000000000425a10 f i libawd2D:shape2D.obj
 0001:00024a20       ??0?$_Wrap_alloc@V?$allocator@V?$vector@PEAUPoint@p2t@@V?$allocator@PEAUPoint@p2t@@@std@@@std@@@std@@@std@@QEAA@XZ 0000000000425a20 f i libawd2D:shape2D.obj
 0001:00024a30       ??0?$allocator@PEAUPoint@p2t@@@std@@QEAA@AEBV01@@Z 0000000000425a30 f i libawd2D:shape2D.obj
 0001:00024a40       ??0?$allocator@PEAUPoint@p2t@@@std@@QEAA@XZ 0000000000425a40 f i libawd2D:shape2D.obj
 0001:00024a50       ??0?$allocator@PEAVTriangle@p2t@@@std@@QEAA@XZ 0000000000425a50 f i libawd2D:shape2D.obj
 0001:00024a60       ??0?$allocator@V?$vector@PEAUPoint@p2t@@V?$allocator@PEAUPoint@p2t@@@std@@@std@@@std@@QEAA@XZ 0000000000425a60 f i libawd2D:shape2D.obj
 0001:00024a70       ??0?$vector@PEAUPoint@p2t@@V?$allocator@PEAUPoint@p2t@@@std@@@std@@QEAA@$$QEAV01@@Z 0000000000425a70 f i libawd2D:shape2D.obj
 0001:00024ab0       ??0?$vector@PEAUPoint@p2t@@V?$allocator@PEAUPoint@p2t@@@std@@@std@@QEAA@AEBV01@@Z 0000000000425ab0 f i libawd2D:shape2D.obj
 0001:00024b20       ??0?$vector@PEAUPoint@p2t@@V?$allocator@PEAUPoint@p2t@@@std@@@std@@QEAA@XZ 0000000000425b20 f i libawd2D:shape2D.obj
 0001:00024b40       ??0?$vector@V?$vector@PEAUPoint@p2t@@V?$allocator@PEAUPoint@p2t@@@std@@@std@@V?$allocator@V?$vector@PEAUPoint@p2t@@V?$allocator@PEAUPoint@p2t@@@std@@@std@@@2@@std@@QEAA@XZ 0000000000425b40 f i libawd2D:shape2D.obj
 0001:00024b60       ??0AWDShape2D@@QEAA@AEAV?$basic_string@DU?$char_traits@D@std@@V?$allocator@D@2@@std@@@Z 0000000000425b60 f   libawd2D:shape2D.obj
 0001:00024c80       ??0AWDSubShape2D@@QEAA@XZ  0000000000425c80 f   libawd2D:shape2D.obj
 0001:00024cb0       ??1?$vector@PEAUPoint@p2t@@V?$allocator@PEAUPoint@p2t@@@std@@@std@@QEAA@XZ 0000000000425cb0 f i libawd2D:shape2D.obj
 0001:00024ce0       ??1?$vector@PEAVTriangle@p2t@@V?$allocator@PEAVTriangle@p2t@@@std@@@std@@QEAA@XZ 0000000000425ce0 f i libawd2D:shape2D.obj
 0001:00024d10       ??1?$vector@V?$vector@PEAUPoint@p2t@@V?$allocator@PEAUPoint@p2t@@@std@@@std@@V?$allocator@V?$vector@PEAUPoint@p2t@@V?$allocator@PEAUPoint@p2t@@@std@@@std@@@2@@std@@QEAA@XZ 0000000000425d10 f i libawd2D:shape2D.obj
 0001:00024d20       ??1AWDShape2D@@QEAA@XZ     0000000000425d20 f   libawd2D:shape2D.obj
 0001:00024ee0       ??1AWDSubShape2D@@QEAA@XZ  0000000000425ee0 f   libawd2D:shape2D.obj
 0001:00024f60       ??8?$_Vector_const_iterator@V?$_Vector_val@U?$_Simple_types@PEAUPoint@p2t@@@std@@@std@@@std@@QEBA_NAEBV01@@Z 0000000000425f60 f i libawd2D:shape2D.obj
 0001:00024f70       ??8?$_Vector_const_iterator@V?$_Vector_val@U?$_Simple_types@PEAVTriangle@p2t@@@std@@@std@@@std@@QEBA_NAEBV01@@Z 0000000000425f70 f i libawd2D:shape2D.obj
 0001:00024f80       ??8?$_Vector_const_iterator@V?$_Vector_val@U?$_Simple_types@V?$basic_string@DU?$char_traits@D@std@@V?$allocator@D@2@@std@@@std@@@std@@@std@@QEBA_NAEBV01@@Z 0000000000425f80 f i libawd2D:shape2D.obj
 0001:00024f90       ??8?$_Vector_const_iterator@V?$_Vector_val@U?$_Simple_types@V?$vector@PEAUPoint@p2t@@V?$allocator@PEAUPoint@p2t@@@std@@@std@@@std@@@std@@@std@@QEBA_NAEBV01@@Z 0000000000425f90 f i libawd2D:shape2D.obj
 0001:00024fa0       ??9?$_Vector_const_iterator@V?$_Vector_val@U?$_Simple_types@PEAUPoint@p2t@@@std@@@std@@@std@@QEBA_NAEBV01@@Z 0000000000425fa0 f i libawd2D:shape2D.obj
 0001:00024fb0       ??9?$_Vector_const_iterator@V?$_Vector_val@U?$_Simple_types@PEAVTriangle@p2t@@@std@@@std@@@std@@QEBA_NAEBV01@@Z 0000000000425fb0 f i libawd2D:shape2D.obj
 0001:00024fc0       ??9?$_Vector_const_iterator@V?$_Vector_val@U?$_Simple_types@V?$basic_string@DU?$char_traits@D@std@@V?$allocator@D@2@@std@@@std@@@std@@@std@@QEBA_NAEBV01@@Z 0000000000425fc0 f i libawd2D:shape2D.obj
 0001:00024fd0       ??9?$_Vector_const_iterator@V?$_Vector_val@U?$_Simple_types@V?$vector@PEAUPoint@p2t@@V?$allocator@PEAUPoint@p2t@@@std@@@std@@@std@@@std@@@std@@QEBA_NAEBV01@@Z 0000000000425fd0 f i libawd2D:shape2D.obj
 0001:00024fe0       ??A?$vector@IV?$allocator@I@std@@@std@@QEAAAEAI_K@Z 0000000000425fe0 f i libawd2D:shape2D.obj
 0001:00024ff0       ??A?$vector@PEAUPoint@p2t@@V?$allocator@PEAUPoint@p2t@@@std@@@std@@QEAAAEAPEAUPoint@p2t@@_K@Z 0000000000425ff0 f i libawd2D:shape2D.obj
 0001:00025000       ??D?$_Vector_const_iterator@V?$_Vector_val@U?$_Simple_types@PEAUPoint@p2t@@@std@@@std@@@std@@QEBAAEBQEAUPoint@p2t@@XZ 0000000000426000 f i libawd2D:shape2D.obj
 0001:00025010       ??D?$_Vector_const_iterator@V?$_Vector_val@U?$_Simple_types@PEAVTriangle@p2t@@@std@@@std@@@std@@QEBAAEBQEAVTriangle@p2t@@XZ 0000000000426010 f i libawd2D:shape2D.obj
 0001:00025020       ??D?$_Vector_const_iterator@V?$_Vector_val@U?$_Simple_types@V?$basic_string@DU?$char_traits@D@std@@V?$allocator@D@2@@std@@@std@@@std@@@std@@QEBAAEBV?$basic_string@DU?$char_traits@D@std@@V?$allocator@D@2@@1@XZ 0000000000426020 f i libawd2D:shape2D.obj
 0001:00025030       ??D?$_Vector_const_iterator@V?$_Vector_val@U?$_Simple_types@V?$vector@PEAUPoint@p2t@@V?$allocator@PEAUPoint@p2t@@@std@@@std@@@std@@@std@@@std@@QEBAAEBV?$vector@PEAUPoint@p2t@@V?$allocator@PEAUPoint@p2t@@@std@@@1@XZ 0000000000426030 f i libawd2D:shape2D.obj
 0001:00025040       ??D?$_Vector_iterator@V?$_Vector_val@U?$_Simple_types@PEAUPoint@p2t@@@std@@@std@@@std@@QEBAAEAPEAUPoint@p2t@@XZ 0000000000426040 f i libawd2D:shape2D.obj
 0001:00025050       ??D?$_Vector_iterator@V?$_Vector_val@U?$_Simple_types@PEAVTriangle@p2t@@@std@@@std@@@std@@QEBAAEAPEAVTriangle@p2t@@XZ 0000000000426050 f i libawd2D:shape2D.obj
 0001:00025060       ??D?$_Vector_iterator@V?$_Vector_val@U?$_Simple_types@V?$basic_string@DU?$char_traits@D@std@@V?$allocator@D@2@@std@@@std@@@std@@@std@@QEBAAEAV?$basic_string@DU?$char_traits@D@std@@V?$allocator@D@2@@1@XZ 0000000000426060 f i libawd2D:shape2D.obj
 0001:00025070       ??D?$_Vector_iterator@V?$_Vector_val@U?$_Simple_types@V?$vector@PEAUPoint@p2t@@V?$allocator@PEAUPoint@p2t@@@std@@@std@@@std@@@std@@@std@@QEBAAEAV?$vector@PEAUPoint@p2t@@V?$allocator@PEAUPoint@p2t@@@std@@@1@XZ 0000000000426070 f i libawd2D:shape2D.obj
 0001:00025080       ??E?$_Vector_const_iterator@V?$_Vector_val@U?$_Simple_types@PEAUPoint@p2t@@@std@@@std@@@std@@QEAAAEAV01@XZ 0000000000426080 f i libawd2D:shape2D.obj
 0001:00025090       ??E?$_Vector_const_iterator@V?$_Vector_val@U?$_Simple_types@PEAVTriangle@p2t@@@std@@@std@@@std@@QEAAAEAV01@XZ 0000000000426090 f i libawd2D:shape2D.obj
 0001:000250a0       ??E?$_Vector_const_iterator@V?$_Vector_val@U?$_Simple_types@V?$basic_string@DU?$char_traits@D@std@@V?$allocator@D@2@@std@@@std@@@std@@@std@@QEAAAEAV01@XZ 00000000004260a0 f i libawd2D:shape2D.obj
 0001:000250b0       ??E?$_Vector_const_iterator@V?$_Vector_val@U?$_Simple_types@V?$vector@PEAUPoint@p2t@@V?$allocator@PEAUPoint@p2t@@@std@@@std@@@std@@@std@@@std@@QEAAAEAV01@XZ 00000000004260b0 f i libawd2D:shape2D.obj
 0001:000250c0       ??E?$_Vector_iterator@V?$_Vector_val@U?$_Simple_types@PEAUPoint@p2t@@@std@@@std@@@std@@QEAAAEAV01@XZ 00000000004260c0 f i libawd2D:shape2D.obj
 0001:000250d0       ??E?$_Vector_iterator@V?$_Vector_val@U?$_Simple_types@PEAVTriangle@p2t@@@std@@@std@@@std@@QEAAAEAV01@XZ 00000000004260d0 f i libawd2D:shape2D.obj
 0001:000250e0       ??E?$_Vector_iterator@V?$_Vector_val@U?$_Simple_types@V?$basic_string@DU?$char_traits@D@std@@V?$allocator@D@2@@std@@@std@@@std@@@std@@QEAAAEAV01@XZ 00000000004260e0 f i libawd2D:shape2D.obj
 0001:000250f0       ??E?$_Vector_iterator@V?$_Vector_val@U?$_Simple_types@V?$vector@PEAUPoint@p2t@@V?$allocator@PEAUPoint@p2t@@@std@@@std@@@std@@@std@@@std@@QEAAAEAV01@XZ 00000000004260f0 f i libawd2D:shape2D.obj
 0001:00025100       ??G?$_Vector_iterator@V?$_Vector_val@U?$_Simple_types@V?$vector@PEAUPoint@p2t@@V?$allocator@PEAUPoint@p2t@@@std@@@std@@@std@@@std@@@std@@QEBA?AV01@_J@Z 0000000000426100 f i libawd2D:shape2D.obj
 0001:00025110       ??Y?$_Vector_const_iterator@V?$_Vector_val@U?$_Simple_types@V?$vector@PEAUPoint@p2t@@V?$allocator@PEAUPoint@p2t@@@std@@@std@@@std@@@std@@@std@@QEAAAEAV01@_J@Z 0000000000426110 f i libawd2D:shape2D.obj
 0001:00025120       ??Y?$_Vector_iterator@V?$_Vector_val@U?$_Simple_types@V?$vector@PEAUPoint@p2t@@V?$allocator@PEAUPoint@p2t@@@std@@@std@@@std@@@std@@@std@@QEAAAEAV01@_J@Z 0000000000426120 f i libawd2D:shape2D.obj
 0001:00025130       ??Z?$_Vector_iterator@V?$_Vector_val@U?$_Simple_types@V?$vector@PEAUPoint@p2t@@V?$allocator@PEAUPoint@p2t@@@std@@@std@@@std@@@std@@@std@@QEAAAEAV01@_J@Z 0000000000426130 f i libawd2D:shape2D.obj
 0001:00025140       ??_G?$vector@PEAUPoint@p2t@@V?$allocator@PEAUPoint@p2t@@@std@@@std@@QEAAPEAXI@Z 0000000000426140 f i libawd2D:shape2D.obj
 0001:00025190       ??_GAWDDataStream@@QEAAPEAXI@Z 0000000000426190 f i libawd2D:shape2D.obj
 0001:000251c0       ??_GAWDSubShape2D@@QEAAPEAXI@Z 00000000004261c0 f i libawd2D:shape2D.obj
 0001:000251f0       ??_GCDT@p2t@@QEAAPEAXI@Z   00000000004261f0 f i libawd2D:shape2D.obj
 0001:00025220       ?GetPoint@Triangle@p2t@@QEAAPEAUPoint@2@AEBH@Z 0000000000426220 f i libawd2D:shape2D.obj
 0001:00025230       ?_Assign_rv@?$vector@PEAUPoint@p2t@@V?$allocator@PEAUPoint@p2t@@@std@@@std@@QEAAX$$QEAV12@@Z 0000000000426230 f i libawd2D:shape2D.obj
 0001:00025260       ?_Buy@?$vector@PEAUPoint@p2t@@V?$allocator@PEAUPoint@p2t@@@std@@@std@@IEAA_N_K@Z 0000000000426260 f i libawd2D:shape2D.obj
 0001:000252e0       ?_Compat@?$_Vector_const_iterator@V?$_Vector_val@U?$_Simple_types@PEAUPoint@p2t@@@std@@@std@@@std@@QEBAXAEBV12@@Z 00000000004262e0 f i libawd2D:shape2D.obj
 0001:000252f0       ?_Compat@?$_Vector_const_iterator@V?$_Vector_val@U?$_Simple_types@PEAVTriangle@p2t@@@std@@@std@@@std@@QEBAXAEBV12@@Z 00000000004262f0 f i libawd2D:shape2D.obj
 0001:00025300       ?_Compat@?$_Vector_const_iterator@V?$_Vector_val@U?$_Simple_types@V?$basic_string@DU?$char_traits@D@std@@V?$allocator@D@2@@std@@@std@@@std@@@std@@QEBAXAEBV12@@Z 0000000000426300 f i libawd2D:shape2D.obj
 0001:00025310       ?_Compat@?$_Vector_const_iterator@V?$_Vector_val@U?$_Simple_types@V?$vector@PEAUPoint@p2t@@V?$allocator@PEAUPoint@p2t@@@std@@@std@@@std@@@std@@@std@@QEBAXAEBV12@@Z 0000000000426310 f i libawd2D:shape2D.obj
 0001:00025320       ?_Destroy@?$vector@PEAUPoint@p2t@@V?$allocator@PEAUPoint@p2t@@@std@@@std@@IEAAXPEAPEAUPoint@p2t@@0@Z 0000000000426320 f i libawd2D:shape2D.obj
 0001:00025330       ?_Destroy@?$vector@PEAVTriangle@p2t@@V?$allocator@PEAVTriangle@p2t@@@std@@@std@@IEAAXPEAPEAVTriangle@p2t@@0@Z 0000000000426330 f i libawd2D:shape2D.obj
 0001:00025340       ?_Destroy@?$vector@V?$vector@PEAUPoint@p2t@@V?$allocator@PEAUPoint@p2t@@@std@@@std@@V?$allocator@V?$vector@PEAUPoint@p2t@@V?$allocator@PEAUPoint@p2t@@@std@@@std@@@2@@std@@IEAAXPEAV?$vector@PEAUPoint@p2t@@V?$allocator@PEAUPoint@p2t@@@std@@@2@0@Z 0000000000426340 f i libawd2D:shape2D.obj
 0001:000253a0       ?_Getal@?$_Vector_alloc@$0A@U?$_Vec_base_types@PEAUPoint@p2t@@V?$allocator@PEAUPoint@p2t@@@std@@@std@@@std@@QEBA?AU?$_Wrap_alloc@V?$allocator@PEAUPoint@p2t@@@std@@@2@XZ 00000000004263a0 f i libawd2D:shape2D.obj
 0001:000253b0       ?_Getal@?$_Vector_alloc@$0A@U?$_Vec_base_types@PEAVTriangle@p2t@@V?$allocator@PEAVTriangle@p2t@@@std@@@std@@@std@@QEBA?AU?$_Wrap_alloc@V?$allocator@PEAVTriangle@p2t@@@std@@@2@XZ 00000000004263b0 f i libawd2D:shape2D.obj
 0001:000253c0       ?_Getal@?$_Vector_alloc@$0A@U?$_Vec_base_types@V?$vector@PEAUPoint@p2t@@V?$allocator@PEAUPoint@p2t@@@std@@@std@@V?$allocator@V?$vector@PEAUPoint@p2t@@V?$allocator@PEAUPoint@p2t@@@std@@@std@@@2@@std@@@std@@QEBA?AU?$_Wrap_alloc@V?$allocator@V?$vector@PEAUPoint@p2t@@V?$allocator@PEAUPoint@p2t@@@std@@@std@@@std@@@2@XZ 00000000004263c0 f i libawd2D:shape2D.obj
 0001:000253d0       ?_Grow_to@?$vector@PEAUPoint@p2t@@V?$allocator@PEAUPoint@p2t@@@std@@@std@@IEBA_K_K@Z 00000000004263d0 f i libawd2D:shape2D.obj
 0001:00025410       ?_Grow_to@?$vector@V?$vector@PEAUPoint@p2t@@V?$allocator@PEAUPoint@p2t@@@std@@@std@@V?$allocator@V?$vector@PEAUPoint@p2t@@V?$allocator@PEAUPoint@p2t@@@std@@@std@@@2@@std@@IEBA_K_K@Z 0000000000426410 f i libawd2D:shape2D.obj
 0001:00025470       ?_Inside@?$vector@PEAUPoint@p2t@@V?$allocator@PEAUPoint@p2t@@@std@@@std@@IEBA_NPEBQEAUPoint@p2t@@@Z 0000000000426470 f i libawd2D:shape2D.obj
 0001:00025490       ?_Inside@?$vector@V?$vector@PEAUPoint@p2t@@V?$allocator@PEAUPoint@p2t@@@std@@@std@@V?$allocator@V?$vector@PEAUPoint@p2t@@V?$allocator@PEAUPoint@p2t@@@std@@@std@@@2@@std@@IEBA_NPEBV?$vector@PEAUPoint@p2t@@V?$allocator@PEAUPoint@p2t@@@std@@@2@@Z 0000000000426490 f i libawd2D:shape2D.obj
 0001:000254b0       ?_Orphan_range@?$vector@PEAUPoint@p2t@@V?$allocator@PEAUPoint@p2t@@@std@@@std@@IEBAXPEAPEAUPoint@p2t@@0@Z 00000000004264b0 f i libawd2D:shape2D.obj
 0001:000254c0       ?_Orphan_range@?$vector@V?$vector@PEAUPoint@p2t@@V?$allocator@PEAUPoint@p2t@@@std@@@std@@V?$allocator@V?$vector@PEAUPoint@p2t@@V?$allocator@PEAUPoint@p2t@@@std@@@std@@@2@@std@@IEBAXPEAV?$vector@PEAUPoint@p2t@@V?$allocator@PEAUPoint@p2t@@@std@@@2@0@Z 00000000004264c0 f i libawd2D:shape2D.obj
 0001:000254d0       ?_Reallocate@?$vector@PEAUPoint@p2t@@V?$allocator@PEAUPoint@p2t@@@std@@@std@@IEAAX_K@Z 00000000004264d0 f i libawd2D:shape2D.obj
 0001:000255a0       ?_Reallocate@?$vector@V?$vector@PEAUPoint@p2t@@V?$allocator@PEAUPoint@p2t@@@std@@@std@@V?$allocator@V?$vector@PEAUPoint@p2t@@V?$allocator@PEAUPoint@p2t@@@std@@@std@@@2@@std@@IEAAX_K@Z 00000000004265a0 f i libawd2D:shape2D.obj
 0001:000256d0       ?_Reserve@?$vector@PEAUPoint@p2t@@V?$allocator@PEAUPoint@p2t@@@std@@@std@@IEAAX_K@Z 00000000004266d0 f i libawd2D:shape2D.obj
 0001:00025760       ?_Reserve@?$vector@V?$vector@PEAUPoint@p2t@@V?$allocator@PEAUPoint@p2t@@@std@@@std@@V?$allocator@V?$vector@PEAUPoint@p2t@@V?$allocator@PEAUPoint@p2t@@@std@@@std@@@2@@std@@IEAAX_K@Z 0000000000426760 f i libawd2D:shape2D.obj
 0001:00025800       ?_Tidy@?$vector@PEAUPoint@p2t@@V?$allocator@PEAUPoint@p2t@@@std@@@std@@IEAAXXZ 0000000000426800 f i libawd2D:shape2D.obj
 0001:00025830       ?_Tidy@?$vector@PEAVTriangle@p2t@@V?$allocator@PEAVTriangle@p2t@@@std@@@std@@IEAAXXZ 0000000000426830 f i libawd2D:shape2D.obj
 0001:00025860       ?_Tidy@?$vector@V?$vector@PEAUPoint@p2t@@V?$allocator@PEAUPoint@p2t@@@std@@@std@@V?$allocator@V?$vector@PEAUPoint@p2t@@V?$allocator@PEAUPoint@p2t@@@std@@@std@@@2@@std@@IEAAXXZ 0000000000426860 f i libawd2D:shape2D.obj
 0001:000258e0       ?_Unused_capacity@?$vector@PEAUPoint@p2t@@V?$allocator@PEAUPoint@p2t@@@std@@@std@@QEBA_KXZ 00000000004268e0 f i libawd2D:shape2D.obj
 0001:000258f0       ?_Unused_capacity@?$vector@V?$vector@PEAUPoint@p2t@@V?$allocator@PEAUPoint@p2t@@@std@@@std@@V?$allocator@V?$vector@PEAUPoint@p2t@@V?$allocator@PEAUPoint@p2t@@@std@@@std@@@2@@std@@QEBA_KXZ 00000000004268f0 f i libawd2D:shape2D.obj
 0001:00025920       ?_Xlen@?$vector@PEAUPoint@p2t@@V?$allocator@PEAUPoint@p2t@@@std@@@std@@IEBAXXZ 0000000000426920 f i libawd2D:shape2D.obj
 0001:00025940       ?_Xlen@?$vector@V?$vector@PEAUPoint@p2t@@V?$allocator@PEAUPoint@p2t@@@std@@@std@@V?$allocator@V?$vector@PEAUPoint@p2t@@V?$allocator@PEAUPoint@p2t@@@std@@@std@@@2@@std@@IEBAXXZ 0000000000426940 f i libawd2D:shape2D.obj
 0001:00025960       ?abs@@YANN@Z               0000000000426960 f i libawd2D:shape2D.obj
 0001:00025970       ?add_boundary_point@AWDShape2D@@QEAAXPEAUPoint@p2t@@@Z 0000000000426970 f   libawd2D:shape2D.obj
 0001:00025d00       ?add_curve@AWDShape2D@@QEAAXPEAUPoint@p2t@@00@Z 0000000000426d00 f   libawd2D:shape2D.obj
 0001:00025ef0       ?add_hole@AWDShape2D@@QEAAXXZ 0000000000426ef0 f   libawd2D:shape2D.obj
 0001:00025f40       ?add_hole_point@AWDShape2D@@QEAAXPEAUPoint@p2t@@@Z 0000000000426f40 f   libawd2D:shape2D.obj
 0001:000262f0       ?add_straight_edge@AWDShape2D@@QEAAXPEAUPoint@p2t@@0@Z 00000000004272f0 f   libawd2D:shape2D.obj
 0001:00026470       ?add_stream@AWDSubShape2D@@QEAAXW4AWD_shape_stream_type@@W4AWD_field_type@@TAWD_str_ptr@@I@Z 0000000000427470 f   libawd2D:shape2D.obj
 0001:00026510       ?add_sub_mesh@AWDShape2D@@QEAAXPEAVAWDSubShape2D@@@Z 0000000000427510 f   libawd2D:shape2D.obj
 0001:00026540       ?allocate@?$_Wrap_alloc@V?$allocator@PEAUPoint@p2t@@@std@@@std@@QEAAPEAPEAUPoint@p2t@@_K@Z 0000000000427540 f i libawd2D:shape2D.obj
 0001:00026580       ?allocate@?$_Wrap_alloc@V?$allocator@V?$vector@PEAUPoint@p2t@@V?$allocator@PEAUPoint@p2t@@@std@@@std@@@std@@@std@@QEAAPEAV?$vector@PEAUPoint@p2t@@V?$allocator@PEAUPoint@p2t@@@std@@@2@_K@Z 0000000000427580 f i libawd2D:shape2D.obj
 0001:000265c0       ?allocate@?$allocator@PEAUPoint@p2t@@@std@@QEAAPEAPEAUPoint@p2t@@_K@Z 00000000004275c0 f i libawd2D:shape2D.obj
 0001:00026600       ?allocate@?$allocator@V?$vector@PEAUPoint@p2t@@V?$allocator@PEAUPoint@p2t@@@std@@@std@@@std@@QEAAPEAV?$vector@PEAUPoint@p2t@@V?$allocator@PEAUPoint@p2t@@@std@@@2@_K@Z 0000000000427600 f i libawd2D:shape2D.obj
 0001:00026640       ?back@?$vector@V?$vector@PEAUPoint@p2t@@V?$allocator@PEAUPoint@p2t@@@std@@@std@@V?$allocator@V?$vector@PEAUPoint@p2t@@V?$allocator@PEAUPoint@p2t@@@std@@@std@@@2@@std@@QEAAAEAV?$vector@PEAUPoint@p2t@@V?$allocator@PEAUPoint@p2t@@@std@@@2@XZ 0000000000427640 f i libawd2D:shape2D.obj
 0001:00026650       ?begin@?$vector@PEAUPoint@p2t@@V?$allocator@PEAUPoint@p2t@@@std@@@std@@QEAA?AV?$_Vector_iterator@V?$_Vector_val@U?$_Simple_types@PEAUPoint@p2t@@@std@@@std@@@2@XZ 0000000000427650 f i libawd2D:shape2D.obj
 0001:00026660       ?begin@?$vector@PEAUPoint@p2t@@V?$allocator@PEAUPoint@p2t@@@std@@@std@@QEBA?AV?$_Vector_const_iterator@V?$_Vector_val@U?$_Simple_types@PEAUPoint@p2t@@@std@@@std@@@2@XZ 0000000000427660 f i libawd2D:shape2D.obj
 0001:00026670       ?begin@?$vector@PEAVTriangle@p2t@@V?$allocator@PEAVTriangle@p2t@@@std@@@std@@QEAA?AV?$_Vector_iterator@V?$_Vector_val@U?$_Simple_types@PEAVTriangle@p2t@@@std@@@std@@@2@XZ 0000000000427670 f i libawd2D:shape2D.obj
 0001:00026680       ?begin@?$vector@V?$basic_string@DU?$char_traits@D@std@@V?$allocator@D@2@@std@@V?$allocator@V?$basic_string@DU?$char_traits@D@std@@V?$allocator@D@2@@std@@@2@@std@@QEAA?AV?$_Vector_iterator@V?$_Vector_val@U?$_Simple_types@V?$basic_string@DU?$char_traits@D@std@@V?$allocator@D@2@@std@@@std@@@std@@@2@XZ 0000000000427680 f i libawd2D:shape2D.obj
 0001:00026690       ?begin@?$vector@V?$vector@PEAUPoint@p2t@@V?$allocator@PEAUPoint@p2t@@@std@@@std@@V?$allocator@V?$vector@PEAUPoint@p2t@@V?$allocator@PEAUPoint@p2t@@@std@@@std@@@2@@std@@QEAA?AV?$_Vector_iterator@V?$_Vector_val@U?$_Simple_types@V?$vector@PEAUPoint@p2t@@V?$allocator@PEAUPoint@p2t@@@std@@@std@@@std@@@std@@@2@XZ 0000000000427690 f i libawd2D:shape2D.obj
 0001:000266a0       ?calc_body_length@AWDShape2D@@MEAAIPEAVBlockSettings@@@Z 00000000004276a0 f   libawd2D:shape2D.obj
 0001:00026770       ?calc_fill_point@AWDShape2D@@QEAAPEAUPoint@p2t@@PEAU23@00N@Z 0000000000427770 f   libawd2D:shape2D.obj
 0001:00026820       ?calc_streams_length@AWDSubShape2D@@AEAAIXZ 0000000000427820 f   libawd2D:shape2D.obj
 0001:00026860       ?calc_sub_length@AWDSubShape2D@@QEAAIPEAVBlockSettings@@@Z 0000000000427860 f   libawd2D:shape2D.obj
 0001:000268d0       ?capacity@?$basic_string@DU?$char_traits@D@std@@V?$allocator@D@2@@std@@QEBA_KXZ 00000000004278d0 f i libawd2D:shape2D.obj
 0001:000268e0       ?capacity@?$vector@PEAUPoint@p2t@@V?$allocator@PEAUPoint@p2t@@@std@@@std@@QEBA_KXZ 00000000004278e0 f i libawd2D:shape2D.obj
 0001:000268f0       ?capacity@?$vector@V?$vector@PEAUPoint@p2t@@V?$allocator@PEAUPoint@p2t@@@std@@@std@@V?$allocator@V?$vector@PEAUPoint@p2t@@V?$allocator@PEAUPoint@p2t@@@std@@@std@@@2@@std@@QEBA_KXZ 00000000004278f0 f i libawd2D:shape2D.obj
 0001:00026920       ?clear@?$vector@PEAUPoint@p2t@@V?$allocator@PEAUPoint@p2t@@@std@@@std@@QEAAXXZ 0000000000427920 f i libawd2D:shape2D.obj
 0001:00026930       ?clear@?$vector@V?$basic_string@DU?$char_traits@D@std@@V?$allocator@D@2@@std@@V?$allocator@V?$basic_string@DU?$char_traits@D@std@@V?$allocator@D@2@@std@@@2@@std@@QEAAXXZ 0000000000427930 f i libawd2D:shape2D.obj
 0001:000269b0       ?clear@?$vector@V?$vector@PEAUPoint@p2t@@V?$allocator@PEAUPoint@p2t@@@std@@@std@@V?$allocator@V?$vector@PEAUPoint@p2t@@V?$allocator@PEAUPoint@p2t@@@std@@@std@@@2@@std@@QEAAXXZ 00000000004279b0 f i libawd2D:shape2D.obj
 0001:00026a30       ?construct@?$allocator@PEAUPoint@p2t@@@std@@QEAAXPEAPEAUPoint@p2t@@AEBQEAU34@@Z 0000000000427a30 f i libawd2D:shape2D.obj
 0001:00026a40       ?construct@?$allocator@V?$basic_string@DU?$char_traits@D@std@@V?$allocator@D@2@@std@@@std@@QEAAXPEAV?$basic_string@DU?$char_traits@D@std@@V?$allocator@D@2@@2@AEBV32@@Z 0000000000427a40 f i libawd2D:shape2D.obj
 0001:00026a90       ?construct@?$allocator@V?$vector@PEAUPoint@p2t@@V?$allocator@PEAUPoint@p2t@@@std@@@std@@@std@@QEAAXPEAV?$vector@PEAUPoint@p2t@@V?$allocator@PEAUPoint@p2t@@@std@@@2@AEBV32@@Z 0000000000427a90 f i libawd2D:shape2D.obj
 0001:00026ac0       ?create_subshape@AWDShape2D@@QEAAXXZ 0000000000427ac0 f   libawd2D:shape2D.obj
 0001:00029b80       ?deallocate@?$_Wrap_alloc@V?$allocator@PEAUPoint@p2t@@@std@@@std@@QEAAXPEAPEAUPoint@p2t@@_K@Z 000000000042ab80 f i libawd2D:shape2D.obj
 0001:00029b90       ?deallocate@?$_Wrap_alloc@V?$allocator@PEAVTriangle@p2t@@@std@@@std@@QEAAXPEAPEAVTriangle@p2t@@_K@Z 000000000042ab90 f i libawd2D:shape2D.obj
 0001:00029ba0       ?deallocate@?$_Wrap_alloc@V?$allocator@V?$vector@PEAUPoint@p2t@@V?$allocator@PEAUPoint@p2t@@@std@@@std@@@std@@@std@@QEAAXPEAV?$vector@PEAUPoint@p2t@@V?$allocator@PEAUPoint@p2t@@@std@@@2@_K@Z 000000000042aba0 f i libawd2D:shape2D.obj
 0001:00029bb0       ?deallocate@?$allocator@PEAUPoint@p2t@@@std@@QEAAXPEAPEAUPoint@p2t@@_K@Z 000000000042abb0 f i libawd2D:shape2D.obj
 0001:00029bc0       ?deallocate@?$allocator@PEAVTriangle@p2t@@@std@@QEAAXPEAPEAVTriangle@p2t@@_K@Z 000000000042abc0 f i libawd2D:shape2D.obj
 0001:00029bd0       ?deallocate@?$allocator@V?$vector@PEAUPoint@p2t@@V?$allocator@PEAUPoint@p2t@@@std@@@std@@@std@@QEAAXPEAV?$vector@PEAUPoint@p2t@@V?$allocator@PEAUPoint@p2t@@@std@@@2@_K@Z 000000000042abd0 f i libawd2D:shape2D.obj
 0001:00029be0       ?edge_length@AWDShape2D@@QEAANPEAUPoint@p2t@@0@Z 000000000042abe0 f   libawd2D:shape2D.obj
 0001:00029c10       ?end@?$vector@PEAUPoint@p2t@@V?$allocator@PEAUPoint@p2t@@@std@@@std@@QEAA?AV?$_Vector_iterator@V?$_Vector_val@U?$_Simple_types@PEAUPoint@p2t@@@std@@@std@@@2@XZ 000000000042ac10 f i libawd2D:shape2D.obj
 0001:00029c20       ?end@?$vector@PEAUPoint@p2t@@V?$allocator@PEAUPoint@p2t@@@std@@@std@@QEBA?AV?$_Vector_const_iterator@V?$_Vector_val@U?$_Simple_types@PEAUPoint@p2t@@@std@@@std@@@2@XZ 000000000042ac20 f i libawd2D:shape2D.obj
 0001:00029c30       ?end@?$vector@PEAVTriangle@p2t@@V?$allocator@PEAVTriangle@p2t@@@std@@@std@@QEAA?AV?$_Vector_iterator@V?$_Vector_val@U?$_Simple_types@PEAVTriangle@p2t@@@std@@@std@@@2@XZ 000000000042ac30 f i libawd2D:shape2D.obj
 0001:00029c40       ?end@?$vector@V?$basic_string@DU?$char_traits@D@std@@V?$allocator@D@2@@std@@V?$allocator@V?$basic_string@DU?$char_traits@D@std@@V?$allocator@D@2@@std@@@2@@std@@QEAA?AV?$_Vector_iterator@V?$_Vector_val@U?$_Simple_types@V?$basic_string@DU?$char_traits@D@std@@V?$allocator@D@2@@std@@@std@@@std@@@2@XZ 000000000042ac40 f i libawd2D:shape2D.obj
 0001:00029c50       ?end@?$vector@V?$vector@PEAUPoint@p2t@@V?$allocator@PEAUPoint@p2t@@@std@@@std@@V?$allocator@V?$vector@PEAUPoint@p2t@@V?$allocator@PEAUPoint@p2t@@@std@@@std@@@2@@std@@QEAA?AV?$_Vector_iterator@V?$_Vector_val@U?$_Simple_types@V?$vector@PEAUPoint@p2t@@V?$allocator@PEAUPoint@p2t@@@std@@@std@@@std@@@std@@@2@XZ 000000000042ac50 f i libawd2D:shape2D.obj
 0001:00029c60       ?get_curved_control_point@AWDShape2D@@QEAAPEAUPoint@p2t@@PEAU23@0@Z 000000000042ac60 f   libawd2D:shape2D.obj
 0001:00029df0       ?get_edge_string@AWDShape2D@@QEAAAEAV?$basic_string@DU?$char_traits@D@std@@V?$allocator@D@2@@std@@PEAUPoint@p2t@@0@Z 000000000042adf0 f   libawd2D:shape2D.obj
 0001:0002a020       ?get_edge_style@AWDShape2D@@QEAA?AW4AWD_edge_type@@PEAUPoint@p2t@@00@Z 000000000042b020 f   libawd2D:shape2D.obj
 0001:0002a300       ?get_fill@AWDShape2D@@QEAAPEAVAWDBlock@@XZ 000000000042b300 f   libawd2D:shape2D.obj
 0001:0002a310       ?get_fill@AWDSubShape2D@@QEAAPEAVAWDBlock@@XZ 000000000042b310 f   libawd2D:shape2D.obj
 0001:0002a320       ?get_first_sub@AWDShape2D@@QEAAPEAVAWDSubShape2D@@XZ 000000000042b320 f   libawd2D:shape2D.obj
 0001:0002a330       ?get_num_streams@AWDSubShape2D@@QEAAIXZ 000000000042b330 f   libawd2D:shape2D.obj
 0001:0002a340       ?get_num_subs@AWDShape2D@@QEAAIXZ 000000000042b340 f   libawd2D:shape2D.obj
 0001:0002a350       ?get_point_idx@AWDShape2D@@QEAAHPEAUPoint@p2t@@@Z 000000000042b350 f   libawd2D:shape2D.obj
 0001:0002a440       ?get_reading_mode@AWDShape2D@@QEAA?AW4AWD_shape_reading_mode@@XZ 000000000042b440 f   libawd2D:shape2D.obj
 0001:0002a450       ?get_stream_at@AWDSubShape2D@@QEAAPEAVAWDDataStream@@I@Z 000000000042b450 f   libawd2D:shape2D.obj
 0001:0002a480       ?get_sub_at@AWDShape2D@@QEAAPEAVAWDSubShape2D@@I@Z 000000000042b480 f   libawd2D:shape2D.obj
 0001:0002a4b0       ?insert@?$basic_string@DU?$char_traits@D@std@@V?$allocator@D@2@@std@@QEAAAEAV12@_KAEBV12@@Z 000000000042b4b0 f i libawd2D:shape2D.obj
 0001:0002a4d0       ?max@?$numeric_limits@N@std@@SANXZ 000000000042b4d0 f i libawd2D:shape2D.obj
 0001:0002a4e0       ?max_size@?$_Wrap_alloc@V?$allocator@PEAUPoint@p2t@@@std@@@std@@QEBA_KXZ 000000000042b4e0 f i libawd2D:shape2D.obj
 0001:0002a4f0       ?max_size@?$_Wrap_alloc@V?$allocator@V?$vector@PEAUPoint@p2t@@V?$allocator@PEAUPoint@p2t@@@std@@@std@@@std@@@std@@QEBA_KXZ 000000000042b4f0 f i libawd2D:shape2D.obj
 0001:0002a500       ?max_size@?$allocator@PEAUPoint@p2t@@@std@@QEBA_KXZ 000000000042b500 f i libawd2D:shape2D.obj
 0001:0002a510       ?max_size@?$allocator@V?$vector@PEAUPoint@p2t@@V?$allocator@PEAUPoint@p2t@@@std@@@std@@@std@@QEBA_KXZ 000000000042b510 f i libawd2D:shape2D.obj
 0001:0002a520       ?max_size@?$allocator_traits@V?$allocator@PEAUPoint@p2t@@@std@@@std@@SA_KAEBV?$allocator@PEAUPoint@p2t@@@2@@Z 000000000042b520 f i libawd2D:shape2D.obj
 0001:0002a530       ?max_size@?$allocator_traits@V?$allocator@V?$vector@PEAUPoint@p2t@@V?$allocator@PEAUPoint@p2t@@@std@@@std@@@std@@@std@@SA_KAEBV?$allocator@V?$vector@PEAUPoint@p2t@@V?$allocator@PEAUPoint@p2t@@@std@@@std@@@2@@Z 000000000042b530 f i libawd2D:shape2D.obj
 0001:0002a540       ?max_size@?$vector@PEAUPoint@p2t@@V?$allocator@PEAUPoint@p2t@@@std@@@std@@QEBA_KXZ 000000000042b540 f i libawd2D:shape2D.obj
 0001:0002a550       ?max_size@?$vector@V?$vector@PEAUPoint@p2t@@V?$allocator@PEAUPoint@p2t@@@std@@@std@@V?$allocator@V?$vector@PEAUPoint@p2t@@V?$allocator@PEAUPoint@p2t@@@std@@@std@@@2@@std@@QEBA_KXZ 000000000042b550 f i libawd2D:shape2D.obj
 0001:0002a560       ?push_back@?$vector@PEAUPoint@p2t@@V?$allocator@PEAUPoint@p2t@@@std@@@std@@QEAAXAEBQEAUPoint@p2t@@@Z 000000000042b560 f i libawd2D:shape2D.obj
 0001:0002a5f0       ?push_back@?$vector@V?$basic_string@DU?$char_traits@D@std@@V?$allocator@D@2@@std@@V?$allocator@V?$basic_string@DU?$char_traits@D@std@@V?$allocator@D@2@@std@@@2@@std@@QEAAXAEBV?$basic_string@DU?$char_traits@D@std@@V?$allocator@D@2@@2@@Z 000000000042b5f0 f i libawd2D:shape2D.obj
 0001:0002a6d0       ?push_back@?$vector@V?$vector@PEAUPoint@p2t@@V?$allocator@PEAUPoint@p2t@@@std@@@std@@V?$allocator@V?$vector@PEAUPoint@p2t@@V?$allocator@PEAUPoint@p2t@@@std@@@std@@@2@@std@@QEAAXAEBV?$vector@PEAUPoint@p2t@@V?$allocator@PEAUPoint@p2t@@@std@@@2@@Z 000000000042b6d0 f i libawd2D:shape2D.obj
 0001:0002a7a0       ?select_on_container_copy_construction@?$_Wrap_alloc@V?$allocator@PEAUPoint@p2t@@@std@@@std@@QEBA?AU12@XZ 000000000042b7a0 f i libawd2D:shape2D.obj
 0001:0002a7b0       ?select_on_container_copy_construction@?$allocator@PEAUPoint@p2t@@@std@@QEBA?AV12@XZ 000000000042b7b0 f i libawd2D:shape2D.obj
 0001:0002a7c0       ?select_on_container_copy_construction@?$allocator_traits@V?$allocator@PEAUPoint@p2t@@@std@@@std@@SA?AV?$allocator@PEAUPoint@p2t@@@2@AEBV32@@Z 000000000042b7c0 f i libawd2D:shape2D.obj
 0001:0002a7d0       ?set_fill@AWDShape2D@@QEAAXPEAVAWDBlock@@@Z 000000000042b7d0 f   libawd2D:shape2D.obj
 0001:0002a7e0       ?set_fill@AWDSubShape2D@@QEAAXPEAVAWDBlock@@@Z 000000000042b7e0 f   libawd2D:shape2D.obj
 0001:0002a7f0       ?set_reading_mode@AWDShape2D@@QEAAXW4AWD_shape_reading_mode@@@Z 000000000042b7f0 f   libawd2D:shape2D.obj
 0001:0002a800       ?side_of_line@AWDShape2D@@QEAANPEAUPoint@p2t@@00@Z 000000000042b800 f   libawd2D:shape2D.obj
 0001:0002a840       ?size@?$vector@PEAUPoint@p2t@@V?$allocator@PEAUPoint@p2t@@@std@@@std@@QEBA_KXZ 000000000042b840 f i libawd2D:shape2D.obj
 0001:0002a850       ?size@?$vector@V?$vector@PEAUPoint@p2t@@V?$allocator@PEAUPoint@p2t@@@std@@@std@@V?$allocator@V?$vector@PEAUPoint@p2t@@V?$allocator@PEAUPoint@p2t@@@std@@@std@@@2@@std@@QEBA_KXZ 000000000042b850 f i libawd2D:shape2D.obj
 0001:0002a880       ?write_body@AWDShape2D@@MEAAXPEAVAWDFileWriter@@PEAVBlockSettings@@@Z 000000000042b880 f   libawd2D:shape2D.obj
 0001:0002a9a0       ?write_sub@AWDSubShape2D@@QEAAXPEAVAWDFileWriter@@PEAVBlockSettings@@N@Z 000000000042b9a0 f   libawd2D:shape2D.obj
 0001:0002aa60       ??$?8PEAVAWDTimeLineFrame@@PEAV0@@std@@YA_NAEBV?$allocator@PEAVAWDTimeLineFrame@@@0@0@Z 000000000042ba60 f i libawd2D:shape2Dtimeline.obj
 0001:0002aa70       ??$?8V?$allocator@PEAVAWDTimeLineFrame@@@std@@V01@@std@@YA_NAEBU?$_Wrap_alloc@V?$allocator@PEAVAWDTimeLineFrame@@@std@@@0@0@Z 000000000042ba70 f i libawd2D:shape2Dtimeline.obj
 0001:0002aa80       ??$?9V?$allocator@PEAVAWDTimeLineFrame@@@std@@V01@@std@@YA_NAEBU?$_Wrap_alloc@V?$allocator@PEAVAWDTimeLineFrame@@@std@@@0@0@Z 000000000042ba80 f i libawd2D:shape2Dtimeline.obj
 0001:0002aa90       ??$_Allocate@PEAVAWDFrameCommand@@@std@@YAPEAPEAVAWDFrameCommand@@_KPEAPEAV1@@Z 000000000042ba90 f i libawd2D:shape2Dtimeline.obj
 0001:0002aad0       ??$_Allocate@PEAVAWDTimeLineFrame@@@std@@YAPEAPEAVAWDTimeLineFrame@@_KPEAPEAV1@@Z 000000000042bad0 f i libawd2D:shape2Dtimeline.obj
 0001:0002ab10       ??$_Copy_impl@PEAPEAVAWDTimeLineFrame@@PEAPEAV1@@std@@YAPEAPEAVAWDTimeLineFrame@@PEAPEAV1@00@Z 000000000042bb10 f i libawd2D:shape2Dtimeline.obj
 0001:0002ab50       ??$_Copy_impl@PEAPEAVAWDTimeLineFrame@@PEAPEAV1@@std@@YAPEAPEAVAWDTimeLineFrame@@PEAPEAV1@00U_Scalar_ptr_iterator_tag@0@@Z 000000000042bb50 f i libawd2D:shape2Dtimeline.obj
 0001:0002ab90       ??$_Ptr_cat@V?$_Vector_const_iterator@V?$_Vector_val@U?$_Simple_types@PEAVAWDFrameCommand@@@std@@@std@@@std@@PEAPEAVAWDFrameCommand@@@std@@YA?AU_Nonscalar_ptr_iterator_tag@0@AEAV?$_Vector_const_iterator@V?$_Vector_val@U?$_Simple_types@PEAVAWDFrameCommand@@@std@@@std@@@0@AEAPEAPEAVAWDFrameCommand@@@Z 000000000042bb90 f i libawd2D:shape2Dtimeline.obj
 0001:0002aba0       ??$_Ptr_cat@V?$_Vector_const_iterator@V?$_Vector_val@U?$_Simple_types@PEAVAWDTimeLineFrame@@@std@@@std@@@std@@PEAPEAVAWDTimeLineFrame@@@std@@YA?AU_Nonscalar_ptr_iterator_tag@0@AEAV?$_Vector_const_iterator@V?$_Vector_val@U?$_Simple_types@PEAVAWDTimeLineFrame@@@std@@@std@@@0@AEAPEAPEAVAWDTimeLineFrame@@@Z 000000000042bba0 f i libawd2D:shape2Dtimeline.obj
 0001:0002abb0       ??$_Ucopy@PEAPEAVAWDTimeLineFrame@@@?$vector@PEAVAWDTimeLineFrame@@V?$allocator@PEAVAWDTimeLineFrame@@@std@@@std@@IEAAPEAPEAVAWDTimeLineFrame@@PEAPEAV2@00@Z 000000000042bbb0 f i libawd2D:shape2Dtimeline.obj
 0001:0002abe0       ??$_Ucopy@V?$_Vector_const_iterator@V?$_Vector_val@U?$_Simple_types@PEAVAWDFrameCommand@@@std@@@std@@@std@@@?$vector@PEAVAWDFrameCommand@@V?$allocator@PEAVAWDFrameCommand@@@std@@@std@@IEAAPEAPEAVAWDFrameCommand@@V?$_Vector_const_iterator@V?$_Vector_val@U?$_Simple_types@PEAVAWDFrameCommand@@@std@@@std@@@1@0PEAPEAV2@@Z 000000000042bbe0 f i libawd2D:shape2Dtimeline.obj
 0001:0002ac20       ??$_Ucopy@V?$_Vector_const_iterator@V?$_Vector_val@U?$_Simple_types@PEAVAWDTimeLineFrame@@@std@@@std@@@std@@@?$vector@PEAVAWDTimeLineFrame@@V?$allocator@PEAVAWDTimeLineFrame@@@std@@@std@@IEAAPEAPEAVAWDTimeLineFrame@@V?$_Vector_const_iterator@V?$_Vector_val@U?$_Simple_types@PEAVAWDTimeLineFrame@@@std@@@std@@@1@0PEAPEAV2@@Z 000000000042bc20 f i libawd2D:shape2Dtimeline.obj
 0001:0002ac60       ??$_Umove@PEAPEAVAWDFrameCommand@@@?$vector@PEAVAWDFrameCommand@@V?$allocator@PEAVAWDFrameCommand@@@std@@@std@@IEAAPEAPEAVAWDFrameCommand@@PEAPEAV2@00@Z 000000000042bc60 f i libawd2D:shape2Dtimeline.obj
 0001:0002ac90       ??$_Umove@PEAPEAVAWDTimeLineFrame@@@?$vector@PEAVAWDTimeLineFrame@@V?$allocator@PEAVAWDTimeLineFrame@@@std@@@std@@IEAAPEAPEAVAWDTimeLineFrame@@PEAPEAV2@00@Z 000000000042bc90 f i libawd2D:shape2Dtimeline.obj
 0001:0002acc0       ??$_Uninit_copy@PEAVAWDTimeLineFrame@@PEAV1@@std@@YAPEAPEAVAWDTimeLineFrame@@PEAPEAV1@00AEAU?$_Wrap_alloc@V?$allocator@PEAVAWDTimeLineFrame@@@std@@@0@U_Scalar_ptr_iterator_tag@0@@Z 000000000042bcc0 f i libawd2D:shape2Dtimeline.obj
 0001:0002acf0       ??$_Uninit_copy@V?$_Vector_const_iterator@V?$_Vector_val@U?$_Simple_types@PEAVAWDFrameCommand@@@std@@@std@@@std@@PEAPEAVAWDFrameCommand@@V?$allocator@PEAVAWDFrameCommand@@@2@@std@@YAPEAPEAVAWDFrameCommand@@V?$_Vector_const_iterator@V?$_Vector_val@U?$_Simple_types@PEAVAWDFrameCommand@@@std@@@std@@@0@0PEAPEAV1@AEAU?$_Wrap_alloc@V?$allocator@PEAVAWDFrameCommand@@@std@@@0@U_Nonscalar_ptr_iterator_tag@0@@Z 000000000042bcf0 f i libawd2D:shape2Dtimeline.obj
 0001:0002ad30       ??$_Uninit_copy@V?$_Vector_const_iterator@V?$_Vector_val@U?$_Simple_types@PEAVAWDTimeLineFrame@@@std@@@std@@@std@@PEAPEAVAWDTimeLineFrame@@V?$allocator@PEAVAWDTimeLineFrame@@@2@@std@@YAPEAPEAVAWDTimeLineFrame@@V?$_Vector_const_iterator@V?$_Vector_val@U?$_Simple_types@PEAVAWDTimeLineFrame@@@std@@@std@@@0@0PEAPEAV1@AEAU?$_Wrap_alloc@V?$allocator@PEAVAWDTimeLineFrame@@@std@@@0@U_Nonscalar_ptr_iterator_tag@0@@Z 000000000042bd30 f i libawd2D:shape2Dtimeline.obj
 0001:0002ad70       ??$_Uninit_move@PEAVAWDFrameCommand@@PEAV1@PEAV1@@std@@YAPEAPEAVAWDFrameCommand@@PEAPEAV1@00AEAU?$_Wrap_alloc@V?$allocator@PEAVAWDFrameCommand@@@std@@@0@0U_Scalar_ptr_iterator_tag@0@@Z 000000000042bd70 f i libawd2D:shape2Dtimeline.obj
 0001:0002ada0       ??$_Uninit_move@PEAVAWDTimeLineFrame@@PEAV1@PEAV1@@std@@YAPEAPEAVAWDTimeLineFrame@@PEAPEAV1@00AEAU?$_Wrap_alloc@V?$allocator@PEAVAWDTimeLineFrame@@@std@@@0@0U_Scalar_ptr_iterator_tag@0@@Z 000000000042bda0 f i libawd2D:shape2Dtimeline.obj
 0001:0002add0       ??$_Uninitialized_copy@PEAPEAVAWDTimeLineFrame@@PEAPEAV1@U?$_Wrap_alloc@V?$allocator@PEAVAWDTimeLineFrame@@@std@@@std@@@std@@YAPEAPEAVAWDTimeLineFrame@@PEAPEAV1@00AEAU?$_Wrap_alloc@V?$allocator@PEAVAWDTimeLineFrame@@@std@@@0@@Z 000000000042bdd0 f i libawd2D:shape2Dtimeline.obj
 0001:0002ae00       ??$_Uninitialized_copy@V?$_Vector_const_iterator@V?$_Vector_val@U?$_Simple_types@PEAVAWDFrameCommand@@@std@@@std@@@std@@PEAPEAVAWDFrameCommand@@U?$_Wrap_alloc@V?$allocator@PEAVAWDFrameCommand@@@std@@@2@@std@@YAPEAPEAVAWDFrameCommand@@V?$_Vector_const_iterator@V?$_Vector_val@U?$_Simple_types@PEAVAWDFrameCommand@@@std@@@std@@@0@0PEAPEAV1@AEAU?$_Wrap_alloc@V?$allocator@PEAVAWDFrameCommand@@@std@@@0@@Z 000000000042be00 f i libawd2D:shape2Dtimeline.obj
 0001:0002ae20       ??$_Uninitialized_copy@V?$_Vector_const_iterator@V?$_Vector_val@U?$_Simple_types@PEAVAWDTimeLineFrame@@@std@@@std@@@std@@PEAPEAVAWDTimeLineFrame@@U?$_Wrap_alloc@V?$allocator@PEAVAWDTimeLineFrame@@@std@@@2@@std@@YAPEAPEAVAWDTimeLineFrame@@V?$_Vector_const_iterator@V?$_Vector_val@U?$_Simple_types@PEAVAWDTimeLineFrame@@@std@@@std@@@0@0PEAPEAV1@AEAU?$_Wrap_alloc@V?$allocator@PEAVAWDTimeLineFrame@@@std@@@0@@Z 000000000042be20 f i libawd2D:shape2Dtimeline.obj
 0001:0002ae40       ??$_Uninitialized_move@PEAPEAVAWDFrameCommand@@PEAPEAV1@U?$_Wrap_alloc@V?$allocator@PEAVAWDFrameCommand@@@std@@@std@@@std@@YAPEAPEAVAWDFrameCommand@@PEAPEAV1@00AEAU?$_Wrap_alloc@V?$allocator@PEAVAWDFrameCommand@@@std@@@0@@Z 000000000042be40 f i libawd2D:shape2Dtimeline.obj
 0001:0002ae70       ??$_Uninitialized_move@PEAPEAVAWDTimeLineFrame@@PEAPEAV1@U?$_Wrap_alloc@V?$allocator@PEAVAWDTimeLineFrame@@@std@@@std@@@std@@YAPEAPEAVAWDTimeLineFrame@@PEAPEAV1@00AEAU?$_Wrap_alloc@V?$allocator@PEAVAWDTimeLineFrame@@@std@@@0@@Z 000000000042be70 f i libawd2D:shape2Dtimeline.obj
 0001:0002aea0       ??$_Val_type@PEAPEAVAWDFrameCommand@@@std@@YAPEAPEAVAWDFrameCommand@@PEAPEAV1@@Z 000000000042bea0 f i libawd2D:shape2Dtimeline.obj
 0001:0002aeb0       ??$_Val_type@PEAPEAVAWDTimeLineFrame@@@std@@YAPEAPEAVAWDTimeLineFrame@@PEAPEAV1@@Z 000000000042beb0 f i libawd2D:shape2Dtimeline.obj
 0001:0002aec0       ??$addressof@QEAVAWDFrameCommand@@@std@@YAPEBQEAVAWDFrameCommand@@AEBQEAV1@@Z 000000000042bec0 f i libawd2D:shape2Dtimeline.obj
 0001:0002aed0       ??$addressof@QEAVAWDTimeLineFrame@@@std@@YAPEBQEAVAWDTimeLineFrame@@AEBQEAV1@@Z 000000000042bed0 f i libawd2D:shape2Dtimeline.obj
 0001:0002aee0       ??$construct@PEAVAWDFrameCommand@@AEAPEAV1@@?$_Wrap_alloc@V?$allocator@PEAVAWDFrameCommand@@@std@@@std@@QEAAXPEAPEAVAWDFrameCommand@@AEAPEAV2@@Z 000000000042bee0 f i libawd2D:shape2Dtimeline.obj
 0001:0002aef0       ??$construct@PEAVAWDFrameCommand@@AEAPEAV1@@?$allocator@PEAVAWDFrameCommand@@@std@@QEAAXPEAPEAVAWDFrameCommand@@AEAPEAV2@@Z 000000000042bef0 f i libawd2D:shape2Dtimeline.obj
 0001:0002af00       ??$construct@PEAVAWDFrameCommand@@AEAPEAV1@@?$allocator_traits@V?$allocator@PEAVAWDFrameCommand@@@std@@@std@@SAXAEAV?$allocator@PEAVAWDFrameCommand@@@1@PEAPEAVAWDFrameCommand@@AEAPEAV3@@Z 000000000042bf00 f i libawd2D:shape2Dtimeline.obj
 0001:0002af10       ??$construct@PEAVAWDFrameCommand@@AEBQEAV1@@?$_Wrap_alloc@V?$allocator@PEAVAWDFrameCommand@@@std@@@std@@QEAAXPEAPEAVAWDFrameCommand@@AEBQEAV2@@Z 000000000042bf10 f i libawd2D:shape2Dtimeline.obj
 0001:0002af20       ??$construct@PEAVAWDFrameCommand@@AEBQEAV1@@?$allocator_traits@V?$allocator@PEAVAWDFrameCommand@@@std@@@std@@SAXAEAV?$allocator@PEAVAWDFrameCommand@@@1@PEAPEAVAWDFrameCommand@@AEBQEAV3@@Z 000000000042bf20 f i libawd2D:shape2Dtimeline.obj
 0001:0002af30       ??$construct@PEAVAWDTimeLineFrame@@AEAPEAV1@@?$_Wrap_alloc@V?$allocator@PEAVAWDTimeLineFrame@@@std@@@std@@QEAAXPEAPEAVAWDTimeLineFrame@@AEAPEAV2@@Z 000000000042bf30 f i libawd2D:shape2Dtimeline.obj
 0001:0002af40       ??$construct@PEAVAWDTimeLineFrame@@AEAPEAV1@@?$allocator@PEAVAWDTimeLineFrame@@@std@@QEAAXPEAPEAVAWDTimeLineFrame@@AEAPEAV2@@Z 000000000042bf40 f i libawd2D:shape2Dtimeline.obj
 0001:0002af50       ??$construct@PEAVAWDTimeLineFrame@@AEAPEAV1@@?$allocator_traits@V?$allocator@PEAVAWDTimeLineFrame@@@std@@@std@@SAXAEAV?$allocator@PEAVAWDTimeLineFrame@@@1@PEAPEAVAWDTimeLineFrame@@AEAPEAV3@@Z 000000000042bf50 f i libawd2D:shape2Dtimeline.obj
 0001:0002af60       ??$construct@PEAVAWDTimeLineFrame@@AEBQEAV1@@?$_Wrap_alloc@V?$allocator@PEAVAWDTimeLineFrame@@@std@@@std@@QEAAXPEAPEAVAWDTimeLineFrame@@AEBQEAV2@@Z 000000000042bf60 f i libawd2D:shape2Dtimeline.obj
 0001:0002af70       ??$construct@PEAVAWDTimeLineFrame@@AEBQEAV1@@?$allocator_traits@V?$allocator@PEAVAWDTimeLineFrame@@@std@@@std@@SAXAEAV?$allocator@PEAVAWDTimeLineFrame@@@1@PEAPEAVAWDTimeLineFrame@@AEBQEAV3@@Z 000000000042bf70 f i libawd2D:shape2Dtimeline.obj
 0001:0002af80       ??$destroy@PEAVAWDFrameCommand@@@?$_Wrap_alloc@V?$allocator@PEAVAWDFrameCommand@@@std@@@std@@QEAAXPEAPEAVAWDFrameCommand@@@Z 000000000042bf80 f i libawd2D:shape2Dtimeline.obj
 0001:0002af90       ??$destroy@PEAVAWDFrameCommand@@@?$allocator@PEAVAWDFrameCommand@@@std@@QEAAXPEAPEAVAWDFrameCommand@@@Z 000000000042bf90 f i libawd2D:shape2Dtimeline.obj
 0001:0002afa0       ??$destroy@PEAVAWDFrameCommand@@@?$allocator_traits@V?$allocator@PEAVAWDFrameCommand@@@std@@@std@@SAXAEAV?$allocator@PEAVAWDFrameCommand@@@1@PEAPEAVAWDFrameCommand@@@Z 000000000042bfa0 f i libawd2D:shape2Dtimeline.obj
 0001:0002afb0       ??$destroy@PEAVAWDTimeLineFrame@@@?$_Wrap_alloc@V?$allocator@PEAVAWDTimeLineFrame@@@std@@@std@@QEAAXPEAPEAVAWDTimeLineFrame@@@Z 000000000042bfb0 f i libawd2D:shape2Dtimeline.obj
 0001:0002afc0       ??$destroy@PEAVAWDTimeLineFrame@@@?$allocator@PEAVAWDTimeLineFrame@@@std@@QEAAXPEAPEAVAWDTimeLineFrame@@@Z 000000000042bfc0 f i libawd2D:shape2Dtimeline.obj
 0001:0002afd0       ??$destroy@PEAVAWDTimeLineFrame@@@?$allocator_traits@V?$allocator@PEAVAWDTimeLineFrame@@@std@@@std@@SAXAEAV?$allocator@PEAVAWDTimeLineFrame@@@1@PEAPEAVAWDTimeLineFrame@@@Z 000000000042bfd0 f i libawd2D:shape2Dtimeline.obj
 0001:0002afe0       ??$forward@AEAPEAVAWDFrameCommand@@@std@@YAAEAPEAVAWDFrameCommand@@AEAPEAV1@@Z 000000000042bfe0 f i libawd2D:shape2Dtimeline.obj
 0001:0002aff0       ??$forward@AEAPEAVAWDTimeLineFrame@@@std@@YAAEAPEAVAWDTimeLineFrame@@AEAPEAV1@@Z 000000000042bff0 f i libawd2D:shape2Dtimeline.obj
 0001:0002b000       ??$forward@AEBQEAVAWDFrameCommand@@@std@@YAAEBQEAVAWDFrameCommand@@AEBQEAV1@@Z 000000000042c000 f i libawd2D:shape2Dtimeline.obj
 0001:0002b010       ??$forward@AEBQEAVAWDTimeLineFrame@@@std@@YAAEBQEAVAWDTimeLineFrame@@AEBQEAV1@@Z 000000000042c010 f i libawd2D:shape2Dtimeline.obj
 0001:0002b020       ??0?$_Vector_const_iterator@V?$_Vector_val@U?$_Simple_types@PEAVAWDFrameCommand@@@std@@@std@@@std@@QEAA@PEAPEAVAWDFrameCommand@@PEBU_Container_base0@1@@Z 000000000042c020 f i libawd2D:shape2Dtimeline.obj
 0001:0002b030       ??0?$_Vector_const_iterator@V?$_Vector_val@U?$_Simple_types@PEAVAWDTimeLineFrame@@@std@@@std@@@std@@QEAA@PEAPEAVAWDTimeLineFrame@@PEBU_Container_base0@1@@Z 000000000042c030 f i libawd2D:shape2Dtimeline.obj
 0001:0002b040       ??0?$_Vector_iterator@V?$_Vector_val@U?$_Simple_types@PEAVAWDFrameCommand@@@std@@@std@@@std@@QEAA@PEAPEAVAWDFrameCommand@@PEBU_Container_base0@1@@Z 000000000042c040 f i libawd2D:shape2Dtimeline.obj
 0001:0002b050       ??0?$_Vector_iterator@V?$_Vector_val@U?$_Simple_types@PEAVAWDTimeLineFrame@@@std@@@std@@@std@@QEAA@PEAPEAVAWDTimeLineFrame@@PEBU_Container_base0@1@@Z 000000000042c050 f i libawd2D:shape2Dtimeline.obj
 0001:0002b060       ??0?$_Wrap_alloc@V?$allocator@PEAVAWDFrameCommand@@@std@@@std@@QEAA@AEBV?$allocator@PEAVAWDFrameCommand@@@1@@Z 000000000042c060 f i libawd2D:shape2Dtimeline.obj
 0001:0002b070       ??0?$_Wrap_alloc@V?$allocator@PEAVAWDTimeLineFrame@@@std@@@std@@QEAA@AEBV?$allocator@PEAVAWDTimeLineFrame@@@1@@Z 000000000042c070 f i libawd2D:shape2Dtimeline.obj
 0001:0002b080       ??0?$allocator@PEAVAWDFrameCommand@@@std@@QEAA@AEBV01@@Z 000000000042c080 f i libawd2D:shape2Dtimeline.obj
 0001:0002b090       ??0?$allocator@PEAVAWDTimeLineFrame@@@std@@QEAA@AEBV01@@Z 000000000042c090 f i libawd2D:shape2Dtimeline.obj
 0001:0002b0a0       ??0?$vector@PEAVAWDFrameCommand@@V?$allocator@PEAVAWDFrameCommand@@@std@@@std@@QEAA@AEBV01@@Z 000000000042c0a0 f i libawd2D:shape2Dtimeline.obj
 0001:0002b110       ??0?$vector@PEAVAWDTimeLineFrame@@V?$allocator@PEAVAWDTimeLineFrame@@@std@@@std@@QEAA@AEBV01@@Z 000000000042c110 f i libawd2D:shape2Dtimeline.obj
 0001:0002b180       ??0AWDFrameCommand@@QEAA@W4AWD_Frame_Command_type@@@Z 000000000042c180 f   libawd2D:shape2Dtimeline.obj
 0001:0002b220       ??0AWDShape2DTimeline@@QEAA@AEAV?$basic_string@DU?$char_traits@D@std@@V?$allocator@D@2@@std@@@Z 000000000042c220 f   libawd2D:shape2Dtimeline.obj
 0001:0002b280       ??0AWDTimeLineFrame@@QEAA@AEAV?$basic_string@DU?$char_traits@D@std@@V?$allocator@D@2@@std@@@Z 000000000042c280 f   libawd2D:shape2Dtimeline.obj
 0001:0002b310       ??1AWDFrameCommand@@QEAA@XZ 000000000042c310 f   libawd2D:shape2Dtimeline.obj
 0001:0002b3b0       ??1AWDShape2DTimeline@@QEAA@XZ 000000000042c3b0 f   libawd2D:shape2Dtimeline.obj
 0001:0002b410       ??1AWDTimeLineFrame@@QEAA@XZ 000000000042c410 f   libawd2D:shape2Dtimeline.obj
 0001:0002b4d0       ??4?$vector@PEAVAWDTimeLineFrame@@V?$allocator@PEAVAWDTimeLineFrame@@@std@@@std@@QEAAAEAV01@AEBV01@@Z 000000000042c4d0 f i libawd2D:shape2Dtimeline.obj
 0001:0002b620       ??8?$_Vector_const_iterator@V?$_Vector_val@U?$_Simple_types@PEAVAWDFrameCommand@@@std@@@std@@@std@@QEBA_NAEBV01@@Z 000000000042c620 f i libawd2D:shape2Dtimeline.obj
 0001:0002b630       ??8?$_Vector_const_iterator@V?$_Vector_val@U?$_Simple_types@PEAVAWDTimeLineFrame@@@std@@@std@@@std@@QEBA_NAEBV01@@Z 000000000042c630 f i libawd2D:shape2Dtimeline.obj
 0001:0002b640       ??9?$_Vector_const_iterator@V?$_Vector_val@U?$_Simple_types@PEAVAWDFrameCommand@@@std@@@std@@@std@@QEBA_NAEBV01@@Z 000000000042c640 f i libawd2D:shape2Dtimeline.obj
 0001:0002b650       ??9?$_Vector_const_iterator@V?$_Vector_val@U?$_Simple_types@PEAVAWDTimeLineFrame@@@std@@@std@@@std@@QEBA_NAEBV01@@Z 000000000042c650 f i libawd2D:shape2Dtimeline.obj
 0001:0002b660       ??D?$_Vector_const_iterator@V?$_Vector_val@U?$_Simple_types@PEAVAWDFrameCommand@@@std@@@std@@@std@@QEBAAEBQEAVAWDFrameCommand@@XZ 000000000042c660 f i libawd2D:shape2Dtimeline.obj
 0001:0002b670       ??D?$_Vector_const_iterator@V?$_Vector_val@U?$_Simple_types@PEAVAWDTimeLineFrame@@@std@@@std@@@std@@QEBAAEBQEAVAWDTimeLineFrame@@XZ 000000000042c670 f i libawd2D:shape2Dtimeline.obj
 0001:0002b680       ??D?$_Vector_iterator@V?$_Vector_val@U?$_Simple_types@PEAVAWDFrameCommand@@@std@@@std@@@std@@QEBAAEAPEAVAWDFrameCommand@@XZ 000000000042c680 f i libawd2D:shape2Dtimeline.obj
 0001:0002b690       ??D?$_Vector_iterator@V?$_Vector_val@U?$_Simple_types@PEAVAWDTimeLineFrame@@@std@@@std@@@std@@QEBAAEAPEAVAWDTimeLineFrame@@XZ 000000000042c690 f i libawd2D:shape2Dtimeline.obj
 0001:0002b6a0       ??E?$_Vector_const_iterator@V?$_Vector_val@U?$_Simple_types@PEAVAWDFrameCommand@@@std@@@std@@@std@@QEAAAEAV01@XZ 000000000042c6a0 f i libawd2D:shape2Dtimeline.obj
 0001:0002b6b0       ??E?$_Vector_const_iterator@V?$_Vector_val@U?$_Simple_types@PEAVAWDTimeLineFrame@@@std@@@std@@@std@@QEAAAEAV01@XZ 000000000042c6b0 f i libawd2D:shape2Dtimeline.obj
 0001:0002b6c0       ??E?$_Vector_iterator@V?$_Vector_val@U?$_Simple_types@PEAVAWDFrameCommand@@@std@@@std@@@std@@QEAAAEAV01@XZ 000000000042c6c0 f i libawd2D:shape2Dtimeline.obj
 0001:0002b6d0       ??E?$_Vector_iterator@V?$_Vector_val@U?$_Simple_types@PEAVAWDTimeLineFrame@@@std@@@std@@@std@@QEAAAEAV01@XZ 000000000042c6d0 f i libawd2D:shape2Dtimeline.obj
 0001:0002b6e0       ??G?$_Vector_iterator@V?$_Vector_val@U?$_Simple_types@PEAVAWDFrameCommand@@@std@@@std@@@std@@QEBA?AV01@_J@Z 000000000042c6e0 f i libawd2D:shape2Dtimeline.obj
 0001:0002b6f0       ??G?$_Vector_iterator@V?$_Vector_val@U?$_Simple_types@PEAVAWDTimeLineFrame@@@std@@@std@@@std@@QEBA?AV01@_J@Z 000000000042c6f0 f i libawd2D:shape2Dtimeline.obj
 0001:0002b700       ??Y?$_Vector_const_iterator@V?$_Vector_val@U?$_Simple_types@PEAVAWDFrameCommand@@@std@@@std@@@std@@QEAAAEAV01@_J@Z 000000000042c700 f i libawd2D:shape2Dtimeline.obj
 0001:0002b710       ??Y?$_Vector_const_iterator@V?$_Vector_val@U?$_Simple_types@PEAVAWDTimeLineFrame@@@std@@@std@@@std@@QEAAAEAV01@_J@Z 000000000042c710 f i libawd2D:shape2Dtimeline.obj
 0001:0002b720       ??Y?$_Vector_iterator@V?$_Vector_val@U?$_Simple_types@PEAVAWDFrameCommand@@@std@@@std@@@std@@QEAAAEAV01@_J@Z 000000000042c720 f i libawd2D:shape2Dtimeline.obj
 0001:0002b730       ??Y?$_Vector_iterator@V?$_Vector_val@U?$_Simple_types@PEAVAWDTimeLineFrame@@@std@@@std@@@std@@QEAAAEAV01@_J@Z 000000000042c730 f i libawd2D:shape2Dtimeline.obj
 0001:0002b740       ??Z?$_Vector_iterator@V?$_Vector_val@U?$_Simple_types@PEAVAWDFrameCommand@@@std@@@std@@@std@@QEAAAEAV01@_J@Z 000000000042c740 f i libawd2D:shape2Dtimeline.obj
 0001:0002b750       ??Z?$_Vector_iterator@V?$_Vector_val@U?$_Simple_types@PEAVAWDTimeLineFrame@@@std@@@std@@@std@@QEAAAEAV01@_J@Z 000000000042c750 f i libawd2D:shape2Dtimeline.obj
 0001:0002b760       ??_GAWDNumAttrList@@QEAAPEAXI@Z 000000000042c760 f i libawd2D:shape2Dtimeline.obj
 0001:0002b790       ??_GAWDTimeLineFrame@@QEAAPEAXI@Z 000000000042c790 f i libawd2D:shape2Dtimeline.obj
 0001:0002b7c0       ?_Buy@?$vector@PEAVAWDFrameCommand@@V?$allocator@PEAVAWDFrameCommand@@@std@@@std@@IEAA_N_K@Z 000000000042c7c0 f i libawd2D:shape2Dtimeline.obj
 0001:0002b840       ?_Buy@?$vector@PEAVAWDTimeLineFrame@@V?$allocator@PEAVAWDTimeLineFrame@@@std@@@std@@IEAA_N_K@Z 000000000042c840 f i libawd2D:shape2Dtimeline.obj
 0001:0002b8c0       ?_Change_alloc@?$_Vector_alloc@$0A@U?$_Vec_base_types@PEAVAWDTimeLineFrame@@V?$allocator@PEAVAWDTimeLineFrame@@@std@@@std@@@std@@QEAAXAEBU?$_Wrap_alloc@V?$allocator@PEAVAWDTimeLineFrame@@@std@@@2@@Z 000000000042c8c0 f i libawd2D:shape2Dtimeline.obj
 0001:0002b8d0       ?_Compat@?$_Vector_const_iterator@V?$_Vector_val@U?$_Simple_types@PEAVAWDFrameCommand@@@std@@@std@@@std@@QEBAXAEBV12@@Z 000000000042c8d0 f i libawd2D:shape2Dtimeline.obj
 0001:0002b8e0       ?_Compat@?$_Vector_const_iterator@V?$_Vector_val@U?$_Simple_types@PEAVAWDTimeLineFrame@@@std@@@std@@@std@@QEBAXAEBV12@@Z 000000000042c8e0 f i libawd2D:shape2Dtimeline.obj
 0001:0002b8f0       ?_Grow_to@?$vector@PEAVAWDFrameCommand@@V?$allocator@PEAVAWDFrameCommand@@@std@@@std@@IEBA_K_K@Z 000000000042c8f0 f i libawd2D:shape2Dtimeline.obj
 0001:0002b930       ?_Grow_to@?$vector@PEAVAWDTimeLineFrame@@V?$allocator@PEAVAWDTimeLineFrame@@@std@@@std@@IEBA_K_K@Z 000000000042c930 f i libawd2D:shape2Dtimeline.obj
 0001:0002b970       ?_Inside@?$vector@PEAVAWDFrameCommand@@V?$allocator@PEAVAWDFrameCommand@@@std@@@std@@IEBA_NPEBQEAVAWDFrameCommand@@@Z 000000000042c970 f i libawd2D:shape2Dtimeline.obj
 0001:0002b990       ?_Inside@?$vector@PEAVAWDTimeLineFrame@@V?$allocator@PEAVAWDTimeLineFrame@@@std@@@std@@IEBA_NPEBQEAVAWDTimeLineFrame@@@Z 000000000042c990 f i libawd2D:shape2Dtimeline.obj
 0001:0002b9b0       ?_Orphan_range@?$vector@PEAVAWDFrameCommand@@V?$allocator@PEAVAWDFrameCommand@@@std@@@std@@IEBAXPEAPEAVAWDFrameCommand@@0@Z 000000000042c9b0 f i libawd2D:shape2Dtimeline.obj
 0001:0002b9c0       ?_Orphan_range@?$vector@PEAVAWDTimeLineFrame@@V?$allocator@PEAVAWDTimeLineFrame@@@std@@@std@@IEBAXPEAPEAVAWDTimeLineFrame@@0@Z 000000000042c9c0 f i libawd2D:shape2Dtimeline.obj
 0001:0002b9d0       ?_Reallocate@?$vector@PEAVAWDFrameCommand@@V?$allocator@PEAVAWDFrameCommand@@@std@@@std@@IEAAX_K@Z 000000000042c9d0 f i libawd2D:shape2Dtimeline.obj
 0001:0002baa0       ?_Reallocate@?$vector@PEAVAWDTimeLineFrame@@V?$allocator@PEAVAWDTimeLineFrame@@@std@@@std@@IEAAX_K@Z 000000000042caa0 f i libawd2D:shape2Dtimeline.obj
 0001:0002bb70       ?_Reserve@?$vector@PEAVAWDFrameCommand@@V?$allocator@PEAVAWDFrameCommand@@@std@@@std@@IEAAX_K@Z 000000000042cb70 f i libawd2D:shape2Dtimeline.obj
 0001:0002bc00       ?_Reserve@?$vector@PEAVAWDTimeLineFrame@@V?$allocator@PEAVAWDTimeLineFrame@@@std@@@std@@IEAAX_K@Z 000000000042cc00 f i libawd2D:shape2Dtimeline.obj
 0001:0002bc90       ?_Unused_capacity@?$vector@PEAVAWDFrameCommand@@V?$allocator@PEAVAWDFrameCommand@@@std@@@std@@QEBA_KXZ 000000000042cc90 f i libawd2D:shape2Dtimeline.obj
 0001:0002bca0       ?_Unused_capacity@?$vector@PEAVAWDTimeLineFrame@@V?$allocator@PEAVAWDTimeLineFrame@@@std@@@std@@QEBA_KXZ 000000000042cca0 f i libawd2D:shape2Dtimeline.obj
 0001:0002bcb0       ?_Xlen@?$vector@PEAVAWDFrameCommand@@V?$allocator@PEAVAWDFrameCommand@@@std@@@std@@IEBAXXZ 000000000042ccb0 f i libawd2D:shape2Dtimeline.obj
 0001:0002bcd0       ?_Xlen@?$vector@PEAVAWDTimeLineFrame@@V?$allocator@PEAVAWDTimeLineFrame@@@std@@@std@@IEBAXXZ 000000000042ccd0 f i libawd2D:shape2Dtimeline.obj
 0001:0002bcf0       ?add_String@AWDFrameCommand@@QEAAXHAEAV?$basic_string@DU?$char_traits@D@std@@V?$allocator@D@2@@std@@@Z 000000000042ccf0 f   libawd2D:shape2Dtimeline.obj
 0001:0002bd60       ?add_bool_property@AWDFrameCommand@@QEAAXH_N0@Z 000000000042cd60 f   libawd2D:shape2Dtimeline.obj
 0001:0002bdc0       ?add_color_property@AWDFrameCommand@@QEAAXHII@Z 000000000042cdc0 f   libawd2D:shape2Dtimeline.obj
 0001:0002be20       ?add_command@AWDTimeLineFrame@@QEAAXPEAVAWDFrameCommand@@@Z 000000000042ce20 f   libawd2D:shape2Dtimeline.obj
 0001:0002be40       ?add_frame@AWDShape2DTimeline@@QEAAXPEAVAWDTimeLineFrame@@@Z 000000000042ce40 f   libawd2D:shape2Dtimeline.obj
 0001:0002be60       ?add_int32_property@AWDFrameCommand@@QEAAXHHH@Z 000000000042ce60 f   libawd2D:shape2Dtimeline.obj
 0001:0002bec0       ?add_int8_property@AWDFrameCommand@@QEAAXHHH@Z 000000000042cec0 f   libawd2D:shape2Dtimeline.obj
 0001:0002bf20       ?add_int_property@AWDFrameCommand@@QEAAXHHH@Z 000000000042cf20 f   libawd2D:shape2Dtimeline.obj
 0001:0002bf80       ?add_matrix@AWDFrameCommand@@QEAAXHPEAN0@Z 000000000042cf80 f   libawd2D:shape2Dtimeline.obj
 0001:0002c000       ?add_number_property@AWDFrameCommand@@QEAAXHMM@Z 000000000042d000 f   libawd2D:shape2Dtimeline.obj
 0001:0002c070       ?allocate@?$_Wrap_alloc@V?$allocator@PEAVAWDFrameCommand@@@std@@@std@@QEAAPEAPEAVAWDFrameCommand@@_K@Z 000000000042d070 f i libawd2D:shape2Dtimeline.obj
 0001:0002c0b0       ?allocate@?$_Wrap_alloc@V?$allocator@PEAVAWDTimeLineFrame@@@std@@@std@@QEAAPEAPEAVAWDTimeLineFrame@@_K@Z 000000000042d0b0 f i libawd2D:shape2Dtimeline.obj
 0001:0002c0f0       ?allocate@?$allocator@PEAVAWDFrameCommand@@@std@@QEAAPEAPEAVAWDFrameCommand@@_K@Z 000000000042d0f0 f i libawd2D:shape2Dtimeline.obj
 0001:0002c130       ?allocate@?$allocator@PEAVAWDTimeLineFrame@@@std@@QEAAPEAPEAVAWDTimeLineFrame@@_K@Z 000000000042d130 f i libawd2D:shape2Dtimeline.obj
 0001:0002c170       ?back@?$vector@PEAVAWDFrameCommand@@V?$allocator@PEAVAWDFrameCommand@@@std@@@std@@QEAAAEAPEAVAWDFrameCommand@@XZ 000000000042d170 f i libawd2D:shape2Dtimeline.obj
 0001:0002c180       ?back@?$vector@PEAVAWDTimeLineFrame@@V?$allocator@PEAVAWDTimeLineFrame@@@std@@@std@@QEAAAEAPEAVAWDTimeLineFrame@@XZ 000000000042d180 f i libawd2D:shape2Dtimeline.obj
 0001:0002c190       ?begin@?$vector@PEAVAWDFrameCommand@@V?$allocator@PEAVAWDFrameCommand@@@std@@@std@@QEAA?AV?$_Vector_iterator@V?$_Vector_val@U?$_Simple_types@PEAVAWDFrameCommand@@@std@@@std@@@2@XZ 000000000042d190 f i libawd2D:shape2Dtimeline.obj
 0001:0002c1a0       ?begin@?$vector@PEAVAWDFrameCommand@@V?$allocator@PEAVAWDFrameCommand@@@std@@@std@@QEBA?AV?$_Vector_const_iterator@V?$_Vector_val@U?$_Simple_types@PEAVAWDFrameCommand@@@std@@@std@@@2@XZ 000000000042d1a0 f i libawd2D:shape2Dtimeline.obj
 0001:0002c1b0       ?begin@?$vector@PEAVAWDTimeLineFrame@@V?$allocator@PEAVAWDTimeLineFrame@@@std@@@std@@QEAA?AV?$_Vector_iterator@V?$_Vector_val@U?$_Simple_types@PEAVAWDTimeLineFrame@@@std@@@std@@@2@XZ 000000000042d1b0 f i libawd2D:shape2Dtimeline.obj
 0001:0002c1c0       ?begin@?$vector@PEAVAWDTimeLineFrame@@V?$allocator@PEAVAWDTimeLineFrame@@@std@@@std@@QEBA?AV?$_Vector_const_iterator@V?$_Vector_val@U?$_Simple_types@PEAVAWDTimeLineFrame@@@std@@@std@@@2@XZ 000000000042d1c0 f i libawd2D:shape2Dtimeline.obj
 0001:0002c1d0       ?calc_body_length@AWDShape2DTimeline@@MEAAIPEAVBlockSettings@@@Z 000000000042d1d0 f   libawd2D:shape2Dtimeline.obj
 0001:0002c270       ?calc_command_length@AWDFrameCommand@@QEAAIPEAVBlockSettings@@@Z 000000000042d270 f   libawd2D:shape2Dtimeline.obj
 0001:0002c2e0       ?calc_frame_length@AWDTimeLineFrame@@QEAAIPEAVBlockSettings@@@Z 000000000042d2e0 f   libawd2D:shape2Dtimeline.obj
 0001:0002c3b0       ?capacity@?$vector@PEAVAWDFrameCommand@@V?$allocator@PEAVAWDFrameCommand@@@std@@@std@@QEBA_KXZ 000000000042d3b0 f i libawd2D:shape2Dtimeline.obj
 0001:0002c3c0       ?capacity@?$vector@PEAVAWDTimeLineFrame@@V?$allocator@PEAVAWDTimeLineFrame@@@std@@@std@@QEBA_KXZ 000000000042d3c0 f i libawd2D:shape2Dtimeline.obj
 0001:0002c3d0       ?clear@?$vector@PEAVAWDTimeLineFrame@@V?$allocator@PEAVAWDTimeLineFrame@@@std@@@std@@QEAAXXZ 000000000042d3d0 f i libawd2D:shape2Dtimeline.obj
 0001:0002c3e0       ?construct@?$allocator@PEAVAWDFrameCommand@@@std@@QEAAXPEAPEAVAWDFrameCommand@@AEBQEAV3@@Z 000000000042d3e0 f i libawd2D:shape2Dtimeline.obj
 0001:0002c3f0       ?construct@?$allocator@PEAVAWDTimeLineFrame@@@std@@QEAAXPEAPEAVAWDTimeLineFrame@@AEBQEAV3@@Z 000000000042d3f0 f i libawd2D:shape2Dtimeline.obj
 0001:0002c400       ?empty@?$vector@PEAVAWDTimeLineFrame@@V?$allocator@PEAVAWDTimeLineFrame@@@std@@@std@@QEBA_NXZ 000000000042d400 f i libawd2D:shape2Dtimeline.obj
 0001:0002c410       ?end@?$vector@PEAVAWDFrameCommand@@V?$allocator@PEAVAWDFrameCommand@@@std@@@std@@QEAA?AV?$_Vector_iterator@V?$_Vector_val@U?$_Simple_types@PEAVAWDFrameCommand@@@std@@@std@@@2@XZ 000000000042d410 f i libawd2D:shape2Dtimeline.obj
 0001:0002c420       ?end@?$vector@PEAVAWDFrameCommand@@V?$allocator@PEAVAWDFrameCommand@@@std@@@std@@QEBA?AV?$_Vector_const_iterator@V?$_Vector_val@U?$_Simple_types@PEAVAWDFrameCommand@@@std@@@std@@@2@XZ 000000000042d420 f i libawd2D:shape2Dtimeline.obj
 0001:0002c430       ?end@?$vector@PEAVAWDTimeLineFrame@@V?$allocator@PEAVAWDTimeLineFrame@@@std@@@std@@QEAA?AV?$_Vector_iterator@V?$_Vector_val@U?$_Simple_types@PEAVAWDTimeLineFrame@@@std@@@std@@@2@XZ 000000000042d430 f i libawd2D:shape2Dtimeline.obj
 0001:0002c440       ?end@?$vector@PEAVAWDTimeLineFrame@@V?$allocator@PEAVAWDTimeLineFrame@@@std@@@std@@QEBA?AV?$_Vector_const_iterator@V?$_Vector_val@U?$_Simple_types@PEAVAWDTimeLineFrame@@@std@@@std@@@2@XZ 000000000042d440 f i libawd2D:shape2Dtimeline.obj
 0001:0002c450       ?get_command@AWDTimeLineFrame@@QEAAPEAVAWDFrameCommand@@XZ 000000000042d450 f   libawd2D:shape2Dtimeline.obj
 0001:0002c460       ?get_command_properties@AWDFrameCommand@@QEAAPEAVAWDNumAttrList@@XZ 000000000042d460 f   libawd2D:shape2Dtimeline.obj
 0001:0002c470       ?get_command_type@AWDFrameCommand@@QEAA?AW4AWD_Frame_Command_type@@XZ 000000000042d470 f   libawd2D:shape2Dtimeline.obj
 0001:0002c480       ?get_commands@AWDTimeLineFrame@@QEAA?AV?$vector@PEAVAWDFrameCommand@@V?$allocator@PEAVAWDFrameCommand@@@std@@@std@@XZ 000000000042d480 f   libawd2D:shape2Dtimeline.obj
 0001:0002c4b0       ?get_frame@AWDShape2DTimeline@@QEAAPEAVAWDTimeLineFrame@@XZ 000000000042d4b0 f   libawd2D:shape2Dtimeline.obj
 0001:0002c4c0       ?get_frame_code@AWDTimeLineFrame@@QEAAAEAV?$basic_string@DU?$char_traits@D@std@@V?$allocator@D@2@@std@@XZ 000000000042d4c0 f   libawd2D:shape2Dtimeline.obj
 0001:0002c4d0       ?get_frames@AWDShape2DTimeline@@QEAA?AV?$vector@PEAVAWDTimeLineFrame@@V?$allocator@PEAVAWDTimeLineFrame@@@std@@@std@@XZ 000000000042d4d0 f   libawd2D:shape2Dtimeline.obj
 0001:0002c500       ?get_is_processed@AWDShape2DTimeline@@QEAA_NXZ 000000000042d500 f   libawd2D:shape2Dtimeline.obj
 0001:0002c510       ?get_is_scene@AWDShape2DTimeline@@QEAA_NXZ 000000000042d510 f   libawd2D:shape2Dtimeline.obj
 0001:0002c520       ?get_resID@AWDFrameCommand@@QEAAAEAV?$basic_string@DU?$char_traits@D@std@@V?$allocator@D@2@@std@@XZ 000000000042d520 f   libawd2D:shape2Dtimeline.obj
 0001:0002c530       ?max_size@?$_Wrap_alloc@V?$allocator@PEAVAWDFrameCommand@@@std@@@std@@QEBA_KXZ 000000000042d530 f i libawd2D:shape2Dtimeline.obj
 0001:0002c540       ?max_size@?$_Wrap_alloc@V?$allocator@PEAVAWDTimeLineFrame@@@std@@@std@@QEBA_KXZ 000000000042d540 f i libawd2D:shape2Dtimeline.obj
 0001:0002c550       ?max_size@?$allocator@PEAVAWDFrameCommand@@@std@@QEBA_KXZ 000000000042d550 f i libawd2D:shape2Dtimeline.obj
 0001:0002c560       ?max_size@?$allocator@PEAVAWDTimeLineFrame@@@std@@QEBA_KXZ 000000000042d560 f i libawd2D:shape2Dtimeline.obj
 0001:0002c570       ?max_size@?$allocator_traits@V?$allocator@PEAVAWDFrameCommand@@@std@@@std@@SA_KAEBV?$allocator@PEAVAWDFrameCommand@@@2@@Z 000000000042d570 f i libawd2D:shape2Dtimeline.obj
 0001:0002c580       ?max_size@?$allocator_traits@V?$allocator@PEAVAWDTimeLineFrame@@@std@@@std@@SA_KAEBV?$allocator@PEAVAWDTimeLineFrame@@@2@@Z 000000000042d580 f i libawd2D:shape2Dtimeline.obj
 0001:0002c590       ?max_size@?$vector@PEAVAWDFrameCommand@@V?$allocator@PEAVAWDFrameCommand@@@std@@@std@@QEBA_KXZ 000000000042d590 f i libawd2D:shape2Dtimeline.obj
 0001:0002c5a0       ?max_size@?$vector@PEAVAWDTimeLineFrame@@V?$allocator@PEAVAWDTimeLineFrame@@@std@@@std@@QEBA_KXZ 000000000042d5a0 f i libawd2D:shape2Dtimeline.obj
 0001:0002c5b0       ?prepare_and_add_dependencies@AWDFrameCommand@@QEAAXPEAVAWDBlockList@@@Z 000000000042d5b0 f   libawd2D:shape2Dtimeline.obj
 0001:0002c680       ?prepare_and_add_dependencies@AWDShape2DTimeline@@MEAAXPEAVAWDBlockList@@@Z 000000000042d680 f   libawd2D:shape2Dtimeline.obj
 0001:0002c940       ?prepare_and_add_dependencies@AWDTimeLineFrame@@QEAAXPEAVAWDBlockList@@@Z 000000000042d940 f   libawd2D:shape2Dtimeline.obj
 0001:0002c990       ?push_back@?$vector@PEAVAWDFrameCommand@@V?$allocator@PEAVAWDFrameCommand@@@std@@@std@@QEAAXAEBQEAVAWDFrameCommand@@@Z 000000000042d990 f i libawd2D:shape2Dtimeline.obj
 0001:0002ca20       ?push_back@?$vector@PEAVAWDTimeLineFrame@@V?$allocator@PEAVAWDTimeLineFrame@@@std@@@std@@QEAAXAEBQEAVAWDTimeLineFrame@@@Z 000000000042da20 f i libawd2D:shape2Dtimeline.obj
 0001:0002cab0       ?select_on_container_copy_construction@?$_Wrap_alloc@V?$allocator@PEAVAWDFrameCommand@@@std@@@std@@QEBA?AU12@XZ 000000000042dab0 f i libawd2D:shape2Dtimeline.obj
 0001:0002cac0       ?select_on_container_copy_construction@?$_Wrap_alloc@V?$allocator@PEAVAWDTimeLineFrame@@@std@@@std@@QEBA?AU12@XZ 000000000042dac0 f i libawd2D:shape2Dtimeline.obj
 0001:0002cad0       ?select_on_container_copy_construction@?$allocator@PEAVAWDFrameCommand@@@std@@QEBA?AV12@XZ 000000000042dad0 f i libawd2D:shape2Dtimeline.obj
 0001:0002cae0       ?select_on_container_copy_construction@?$allocator@PEAVAWDTimeLineFrame@@@std@@QEBA?AV12@XZ 000000000042dae0 f i libawd2D:shape2Dtimeline.obj
 0001:0002caf0       ?select_on_container_copy_construction@?$allocator_traits@V?$allocator@PEAVAWDFrameCommand@@@std@@@std@@SA?AV?$allocator@PEAVAWDFrameCommand@@@2@AEBV32@@Z 000000000042daf0 f i libawd2D:shape2Dtimeline.obj
 0001:0002cb00       ?select_on_container_copy_construction@?$allocator_traits@V?$allocator@PEAVAWDTimeLineFrame@@@std@@@std@@SA?AV?$allocator@PEAVAWDTimeLineFrame@@@2@AEBV32@@Z 000000000042db00 f i libawd2D:shape2Dtimeline.obj
 0001:0002cb10       ?set_awdBlock1@AWDFrameCommand@@QEAAXPEAVAWDBlock@@@Z 000000000042db10 f   libawd2D:shape2Dtimeline.obj
 0001:0002cb20       ?set_awdBlock2@AWDFrameCommand@@QEAAXPEAVAWDBlock@@@Z 000000000042db20 f   libawd2D:shape2Dtimeline.obj
 0001:0002cb30       ?set_awdBlock3@AWDFrameCommand@@QEAAXPEAVAWDBlock@@@Z 000000000042db30 f   libawd2D:shape2Dtimeline.obj
 0001:0002cb40       ?set_awdBlock4@AWDFrameCommand@@QEAAXPEAVAWDBlock@@@Z 000000000042db40 f   libawd2D:shape2Dtimeline.obj
 0001:0002cb50       ?set_frame_code@AWDTimeLineFrame@@QEAAXAEAV?$basic_string@DU?$char_traits@D@std@@V?$allocator@D@2@@std@@@Z 000000000042db50 f   libawd2D:shape2Dtimeline.obj
 0001:0002cb70       ?set_is_processed@AWDShape2DTimeline@@QEAAX_N@Z 000000000042db70 f   libawd2D:shape2Dtimeline.obj
 0001:0002cb80       ?set_is_scene@AWDShape2DTimeline@@QEAAX_N@Z 000000000042db80 f   libawd2D:shape2Dtimeline.obj
 0001:0002cb90       ?set_resID@AWDFrameCommand@@QEAAXAEAV?$basic_string@DU?$char_traits@D@std@@V?$allocator@D@2@@std@@@Z 000000000042db90 f   libawd2D:shape2Dtimeline.obj
 0001:0002cbb0       ?size@?$vector@PEAVAWDFrameCommand@@V?$allocator@PEAVAWDFrameCommand@@@std@@@std@@QEBA_KXZ 000000000042dbb0 f i libawd2D:shape2Dtimeline.obj
 0001:0002cbc0       ?size@?$vector@PEAVAWDTimeLineFrame@@V?$allocator@PEAVAWDTimeLineFrame@@@std@@@std@@QEBA_KXZ 000000000042dbc0 f i libawd2D:shape2Dtimeline.obj
 0001:0002cbd0       ?write_body@AWDShape2DTimeline@@MEAAXPEAVAWDFileWriter@@PEAVBlockSettings@@@Z 000000000042dbd0 f   libawd2D:shape2Dtimeline.obj
 0001:0002cca0       ?write_command@AWDFrameCommand@@QEAAXPEAVAWDFileWriter@@PEAVBlockSettings@@@Z 000000000042dca0 f   libawd2D:shape2Dtimeline.obj
 0001:0002cd80       ?write_frame@AWDTimeLineFrame@@QEAAXPEAVAWDFileWriter@@PEAVBlockSettings@@@Z 000000000042dd80 f   libawd2D:shape2Dtimeline.obj
 0001:0002ce50       ??0AWD@@QEAA@PEAVBlockSettings@@AEAV?$basic_string@DU?$char_traits@D@std@@V?$allocator@D@2@@std@@@Z 000000000042de50 f   libawd2D:awd.obj
 0001:0002cfe0       ??1AWD@@QEAA@XZ            000000000042dfe0 f   libawd2D:awd.obj
 0001:0002d120       ??_GAWDBlockList@@QEAAPEAXI@Z 000000000042e120 f i libawd2D:awd.obj
 0001:0002d150       ??_GAWDMetaData@@QEAAPEAXI@Z 000000000042e150 f i libawd2D:awd.obj
 0001:0002d180       ??_GBlockSettings@@QEAAPEAXI@Z 000000000042e180 f i libawd2D:awd.obj
 0001:0002d1b0       ?add_namespace@AWD@@QEAAXPEAVAWDNamespace@@@Z 000000000042e1b0 f   libawd2D:awd.obj
 0001:0002d1f0       ?add_shape2Dblock@AWD@@QEAAXPEAVAWDShape2D@@@Z 000000000042e1f0 f   libawd2D:awd.obj
 0001:0002d200       ?add_shapeFillBlock@AWD@@QEAAXPEAVAWDShape2DFill@@@Z 000000000042e200 f   libawd2D:awd.obj
 0001:0002d210       ?add_texture@AWD@@QEAAXPEAVAWDBitmapTexture@@@Z 000000000042e210 f   libawd2D:awd.obj
 0001:0002d220       ?add_timelineBlock@AWD@@QEAAXPEAVAWDShape2DTimeline@@@Z 000000000042e220 f   libawd2D:awd.obj
 0001:0002d230       ?check_exported_blocks@AWD@@AEAAXPEAVAWDBlockList@@@Z 000000000042e230 f   libawd2D:awd.obj
 0001:0002d390       ?count_all_valid_blocks@AWD@@QEAAHXZ 000000000042e390 f   libawd2D:awd.obj
 0001:0002d3f0       ?flush@AWD@@QEAAIXZ        000000000042e3f0 f   libawd2D:awd.obj
 0001:0002d550       ?get_awd_blocks_for_objIDs@AWD@@QEAAXXZ 000000000042e550 f   libawd2D:awd.obj
 0001:0002d720       ?get_bitmap_fill@AWD@@QEAAPEAVAWDShape2DFill@@AEAV?$basic_string@DU?$char_traits@D@std@@V?$allocator@D@2@@std@@@Z 000000000042e720 f   libawd2D:awd.obj
 0001:0002da40       ?get_linear_gradient_fill@AWD@@QEAAPEAVAWDShape2DFill@@XZ 000000000042ea40 f   libawd2D:awd.obj
 0001:0002dae0       ?get_message_blocks@AWD@@QEAAPEAVAWDBlockList@@XZ 000000000042eae0 f   libawd2D:awd.obj
 0001:0002daf0       ?get_namespace@AWD@@QEAAPEAVAWDNamespace@@AEAV?$basic_string@DU?$char_traits@D@std@@V?$allocator@D@2@@std@@@Z 000000000042eaf0 f   libawd2D:awd.obj
 0001:0002dc60       ?get_radial_gradient_fill@AWD@@QEAAPEAVAWDShape2DFill@@XZ 000000000042ec60 f   libawd2D:awd.obj
 0001:0002dd00       ?get_shape2D_blocks@AWD@@QEAAPEAVAWDBlockList@@XZ 000000000042ed00 f   libawd2D:awd.obj
 0001:0002dd10       ?get_shapeFill_blocks@AWD@@QEAAPEAVAWDBlockList@@XZ 000000000042ed10 f   libawd2D:awd.obj
 0001:0002dd20       ?get_solid_fill@AWD@@QEAAPEAVAWDShape2DFill@@I@Z 000000000042ed20 f   libawd2D:awd.obj
 0001:0002de70       ?get_texture@AWD@@QEAAPEAVAWDBitmapTexture@@XZ 000000000042ee70 f   libawd2D:awd.obj
 0001:0002df10       ?get_texture_blocks@AWD@@QEAAPEAVAWDBlockList@@XZ 000000000042ef10 f   libawd2D:awd.obj
 0001:0002df20       ?get_timeline_blocks@AWD@@QEAAPEAVAWDBlockList@@XZ 000000000042ef20 f   libawd2D:awd.obj
 0001:0002df30       ?has_flag@AWD@@QEAA_NH@Z   000000000042ef30 f   libawd2D:awd.obj
 0001:0002df40       ?re_order_blocks@AWD@@AEAAXPEAVAWDBlockList@@0@Z 000000000042ef40 f   libawd2D:awd.obj
 0001:0002dfc0       ?reset_all_blocks2@AWD@@AEAAXXZ 000000000042efc0 f   libawd2D:awd.obj
 0001:0002e060       ?reset_all_blocks@AWD@@AEAAXXZ 000000000042f060 f   libawd2D:awd.obj
 0001:0002e100       ?reset_blocks2@AWD@@AEAAXPEAVAWDBlockList@@@Z 000000000042f100 f   libawd2D:awd.obj
 0001:0002e160       ?reset_blocks@AWD@@AEAAXPEAVAWDBlockList@@@Z 000000000042f160 f   libawd2D:awd.obj
 0001:0002e1c0       ?set_metadata@AWD@@QEAAXPEAVAWDMetaData@@@Z 000000000042f1c0 f   libawd2D:awd.obj
 0001:0002e1d0       ?write_blocks@AWD@@AEAA_KPEAVAWDBlockList@@@Z 000000000042f1d0 f   libawd2D:awd.obj
 0001:0002e250       ?write_blocks_to_file@AWD@@QEAAIPEAVAWDBlockList@@@Z 000000000042f250 f   libawd2D:awd.obj
 0001:0002e330       ?write_header@AWD@@AEAAXI@Z 000000000042f330 f   libawd2D:awd.obj
 0001:0002e410       ??$?HDU?$char_traits@D@std@@V?$allocator@D@1@@std@@YA?AV?$basic_string@DU?$char_traits@D@std@@V?$allocator@D@2@@0@$$QEAV10@D@Z 000000000042f410 f i libawd2D:meta.obj
 0001:0002e450       ??0AWDMetaData@@QEAA@XZ    000000000042f450 f   libawd2D:meta.obj
 0001:0002e740       ??1AWDMetaData@@QEAA@XZ    000000000042f740 f   libawd2D:meta.obj
 0001:0002e830       ?calc_body_length@AWDMetaData@@MEAAIPEAVBlockSettings@@@Z 000000000042f830 f   libawd2D:meta.obj
 0001:0002e880       ?override_encoder_metadata@AWDMetaData@@QEAAXAEAV?$basic_string@DU?$char_traits@D@std@@V?$allocator@D@2@@std@@0@Z 000000000042f880 f   libawd2D:meta.obj
 0001:0002e8d0       ?prepare_and_add_dependencies@AWDMetaData@@MEAAXPEAVAWDBlockList@@@Z 000000000042f8d0 f   libawd2D:meta.obj
 0001:0002e9b0       ?set_generator_metadata@AWDMetaData@@QEAAXAEAV?$basic_string@DU?$char_traits@D@std@@V?$allocator@D@2@@std@@0@Z 000000000042f9b0 f   libawd2D:meta.obj
 0001:0002ea00       ?write_body@AWDMetaData@@MEAAXPEAVAWDFileWriter@@PEAVBlockSettings@@@Z 000000000042fa00 f   libawd2D:meta.obj
 0001:0002ea10       ??0AWDFileWriter@@QEAA@PEAU_iobuf@@@Z 000000000042fa10 f   libawd2D:FileWriter.obj
 0001:0002ea20       ??1AWDFileWriter@@QEAA@XZ  000000000042fa20 f   libawd2D:FileWriter.obj
 0001:0002ea30       ?get_file@AWDFileWriter@@QEAAPEAU_iobuf@@XZ 000000000042fa30 f   libawd2D:FileWriter.obj
 0001:0002ea40       ?set_file@AWDFileWriter@@QEAAXPEAU_iobuf@@@Z 000000000042fa40 f   libawd2D:FileWriter.obj
 0001:0002ea50       ?writeBOOL@AWDFileWriter@@QEAAXE@Z 000000000042fa50 f   libawd2D:FileWriter.obj
 0001:0002ea90       ?writeFLOAT32@AWDFileWriter@@QEAAXM@Z 000000000042fa90 f   libawd2D:FileWriter.obj
 0001:0002eaf0       ?writeFLOAT64@AWDFileWriter@@QEAAXN@Z 000000000042faf0 f   libawd2D:FileWriter.obj
 0001:0002eb50       ?writeSTRING@AWDFileWriter@@QEAAXAEAV?$basic_string@DU?$char_traits@D@std@@V?$allocator@D@2@@std@@H@Z 000000000042fb50 f   libawd2D:FileWriter.obj
 0001:0002ebe0       ?writeUINT16@AWDFileWriter@@QEAAXG@Z 000000000042fbe0 f   libawd2D:FileWriter.obj
 0001:0002ec40       ?writeUINT32@AWDFileWriter@@QEAAXI@Z 000000000042fc40 f   libawd2D:FileWriter.obj
 0001:0002ec90       ?writeUINT8@AWDFileWriter@@QEAAXE@Z 000000000042fc90 f   libawd2D:FileWriter.obj
 0001:0002ecd0       ??0AWDNamespace@@QEAA@AEAV?$basic_string@DU?$char_traits@D@std@@V?$allocator@D@2@@std@@@Z 000000000042fcd0 f   libawd2D:ns.obj
 0001:0002ed40       ??1AWDNamespace@@QEAA@XZ   000000000042fd40 f   libawd2D:ns.obj
 0001:0002ed90       ?calc_body_length@AWDNamespace@@MEAAIPEAVBlockSettings@@@Z 000000000042fd90 f   libawd2D:ns.obj
 0001:0002edc0       ?get_handle@AWDNamespace@@QEAAEXZ 000000000042fdc0 f   libawd2D:ns.obj
 0001:0002edd0       ?get_uri@AWDNamespace@@QEAAAEAV?$basic_string@DU?$char_traits@D@std@@V?$allocator@D@2@@std@@XZ 000000000042fdd0 f   libawd2D:ns.obj
 0001:0002ede0       ?set_handle@AWDNamespace@@QEAAXE@Z 000000000042fde0 f   libawd2D:ns.obj
 0001:0002edf0       ?write_body@AWDNamespace@@MEAAXPEAVAWDFileWriter@@PEAVBlockSettings@@@Z 000000000042fdf0 f   libawd2D:ns.obj
 0001:0002ee30       ??0AWDBitmapTexture@@QEAA@AEAV?$basic_string@DU?$char_traits@D@std@@V?$allocator@D@2@@std@@@Z 000000000042fe30 f   libawd2D:texture.obj
 0001:0002eec0       ??1AWDBitmapTexture@@QEAA@XZ 000000000042fec0 f   libawd2D:texture.obj
 0001:0002ef60       ?calc_body_length@AWDBitmapTexture@@MEAAIPEAVBlockSettings@@@Z 000000000042ff60 f   libawd2D:texture.obj
 0001:0002efe0       ?get_height@AWDBitmapTexture@@QEAAHXZ 000000000042ffe0 f   libawd2D:texture.obj
 0001:0002eff0       ?get_tex_type@AWDBitmapTexture@@QEAA?AW4AWD_tex_type@@XZ 000000000042fff0 f   libawd2D:texture.obj
 0001:0002f000       ?get_url@AWDBitmapTexture@@QEAA?AV?$basic_string@DU?$char_traits@D@std@@V?$allocator@D@2@@std@@XZ 0000000000430000 f   libawd2D:texture.obj
 0001:0002f040       ?get_width@AWDBitmapTexture@@QEAAHXZ 0000000000430040 f   libawd2D:texture.obj
 0001:0002f050       ?prepare_and_add_dependencies@AWDBitmapTexture@@MEAAXPEAVAWDBlockList@@@Z 0000000000430050 f   libawd2D:texture.obj
 0001:0002f060       ?set_embed_data@AWDBitmapTexture@@QEAAXPEAEI@Z 0000000000430060 f   libawd2D:texture.obj
 0001:0002f070       ?set_height@AWDBitmapTexture@@QEAAXH@Z 0000000000430070 f   libawd2D:texture.obj
 0001:0002f080       ?set_tex_type@AWDBitmapTexture@@QEAAXW4AWD_tex_type@@@Z 0000000000430080 f   libawd2D:texture.obj
 0001:0002f090       ?set_url@AWDBitmapTexture@@QEAAXAEAV?$basic_string@DU?$char_traits@D@std@@V?$allocator@D@2@@std@@@Z 0000000000430090 f   libawd2D:texture.obj
 0001:0002f0b0       ?set_width@AWDBitmapTexture@@QEAAXH@Z 00000000004300b0 f   libawd2D:texture.obj
 0001:0002f0c0       ?write_body@AWDBitmapTexture@@MEAAXPEAVAWDFileWriter@@PEAVBlockSettings@@@Z 00000000004300c0 f   libawd2D:texture.obj
 0001:0002f100       ??0AWDMessageBlock@@QEAA@AEAV?$basic_string@DU?$char_traits@D@std@@V?$allocator@D@2@@std@@0@Z 0000000000430100 f   libawd2D:message.obj
 0001:0002f170       ??1AWDMessageBlock@@QEAA@XZ 0000000000430170 f   libawd2D:message.obj
 0001:0002f1c0       ?calc_body_length@AWDMessageBlock@@MEAAIPEAVBlockSettings@@@Z 00000000004301c0 f   libawd2D:message.obj
 0001:0002f1d0       ?get_message@AWDMessageBlock@@QEAA?AV?$basic_string@DU?$char_traits@D@std@@V?$allocator@D@2@@std@@XZ 00000000004301d0 f   libawd2D:message.obj
 0001:0002f210       ?prepare_and_add_dependencies@AWDMessageBlock@@MEAAXPEAVAWDBlockList@@@Z 0000000000430210 f   libawd2D:message.obj
 0001:0002f220       ?write_body@AWDMessageBlock@@MEAAXPEAVAWDFileWriter@@PEAVBlockSettings@@@Z 0000000000430220 f   libawd2D:message.obj
 0001:0002f230       ??0AWDDataStream@@QEAA@EW4AWD_field_type@@TAWD_str_ptr@@I@Z 0000000000430230 f   libawd2D:stream.obj
 0001:0002f250       ??0AWDGeomDataStream@@QEAA@EW4AWD_field_type@@TAWD_str_ptr@@I@Z 0000000000430250 f   libawd2D:stream.obj
 0001:0002f270       ??0AWDPathDataStream@@QEAA@EW4AWD_field_type@@TAWD_str_ptr@@I@Z 0000000000430270 f   libawd2D:stream.obj
 0001:0002f290       ??1AWDDataStream@@QEAA@XZ  0000000000430290 f   libawd2D:stream.obj
 0001:0002f2b0       ?get_length@AWDDataStream@@QEAAIXZ 00000000004302b0 f   libawd2D:stream.obj
 0001:0002f2e0       ?get_num_elements@AWDDataStream@@QEAAIXZ 00000000004302e0 f   libawd2D:stream.obj
 0001:0002f2f0       ?write_stream@AWDDataStream@@QEAAXPEAVAWDFileWriter@@N@Z 00000000004302f0 f   libawd2D:stream.obj
 0001:0002f590       ??0AWDAttr@@QEAA@XZ        0000000000430590 f i libawd2D:attr.obj
 0001:0002f5a0       ??0AWDAttrElement@@IEAA@XZ 00000000004305a0 f   libawd2D:attr.obj
 0001:0002f610       ??0AWDNumAttr@@QEAA@XZ     0000000000430610 f   libawd2D:attr.obj
 0001:0002f630       ??0AWDNumAttrList@@QEAA@XZ 0000000000430630 f   libawd2D:attr.obj
 0001:0002f640       ??0AWDUserAttr@@QEAA@PEAVAWDNamespace@@AEAV?$basic_string@DU?$char_traits@D@std@@V?$allocator@D@2@@std@@@Z 0000000000430640 f   libawd2D:attr.obj
 0001:0002f6b0       ??0AWDUserAttrList@@QEAA@XZ 00000000004306b0 f   libawd2D:attr.obj
 0001:0002f6c0       ??1AWDAttrElement@@IEAA@XZ 00000000004306c0 f   libawd2D:attr.obj
 0001:0002f710       ??1AWDNumAttr@@QEAA@XZ     0000000000430710 f   libawd2D:attr.obj
 0001:0002f740       ??1AWDNumAttrList@@QEAA@XZ 0000000000430740 f   libawd2D:attr.obj
 0001:0002f7e0       ??1AWDUserAttr@@QEAA@XZ    00000000004307e0 f   libawd2D:attr.obj
 0001:0002f840       ??1AWDUserAttrList@@QEAA@XZ 0000000000430840 f   libawd2D:attr.obj
 0001:0002f900       ??_GAWDNumAttr@@QEAAPEAXI@Z 0000000000430900 f i libawd2D:attr.obj
 0001:0002f960       ??_GAWDUserAttr@@QEAAPEAXI@Z 0000000000430960 f i libawd2D:attr.obj
 0001:0002f9d0       ??_GAWDUserAttrList@@QEAAPEAXI@Z 00000000004309d0 f i libawd2D:attr.obj
 0001:0002fa00       ?add_bool_property@AWDAttrElement@@QEAAXH_N0@Z 0000000000430a00 f   libawd2D:attr.obj
 0001:0002fa60       ?add_color_property@AWDAttrElement@@QEAAXHII@Z 0000000000430a60 f   libawd2D:attr.obj
 0001:0002fac0       ?add_int8_property@AWDAttrElement@@QEAAXHHH@Z 0000000000430ac0 f   libawd2D:attr.obj
 0001:0002fb20       ?add_int_property@AWDAttrElement@@QEAAXHHH@Z 0000000000430b20 f   libawd2D:attr.obj
 0001:0002fb80       ?add_number_property@AWDAttrElement@@QEAAXHMM@Z 0000000000430b80 f   libawd2D:attr.obj
 0001:0002fbf0       ?calc_attr_length@AWDAttrElement@@IEAAI_N0PEAVBlockSettings@@@Z 0000000000430bf0 f   libawd2D:attr.obj
 0001:0002fc50       ?calc_length@AWDNumAttrList@@QEAAIPEAVBlockSettings@@@Z 0000000000430c50 f   libawd2D:attr.obj
 0001:0002fce0       ?calc_length@AWDUserAttrList@@QEAAIPEAVBlockSettings@@@Z 0000000000430ce0 f   libawd2D:attr.obj
 0001:0002fd80       ?find@AWDNumAttrList@@AEAAPEAVAWDNumAttr@@G@Z 0000000000430d80 f   libawd2D:attr.obj
 0001:0002fda0       ?find@AWDUserAttrList@@AEAAPEAVAWDUserAttr@@PEAVAWDNamespace@@AEAV?$basic_string@DU?$char_traits@D@std@@V?$allocator@D@2@@std@@@Z 0000000000430da0 f   libawd2D:attr.obj
 0001:0002fe50       ?get@AWDNumAttrList@@QEAA_NGPEATAWD_field_ptr@@PEAIPEAW4AWD_field_type@@@Z 0000000000430e50 f   libawd2D:attr.obj
 0001:0002fe90       ?get@AWDUserAttrList@@QEAA_NPEAVAWDNamespace@@AEAV?$basic_string@DU?$char_traits@D@std@@V?$allocator@D@2@@std@@PEATAWD_field_ptr@@PEAIPEAW4AWD_field_type@@@Z 0000000000430e90 f   libawd2D:attr.obj
 0001:0002fed0       ?get_attr@AWDAttrElement@@QEAA_NPEAVAWDNamespace@@AEAV?$basic_string@DU?$char_traits@D@std@@V?$allocator@D@2@@std@@PEATAWD_field_ptr@@PEAIPEAW4AWD_field_type@@@Z 0000000000430ed0 f   libawd2D:attr.obj
 0001:0002ff10       ?get_key@AWDUserAttr@@QEAAAEAV?$basic_string@DU?$char_traits@D@std@@V?$allocator@D@2@@std@@XZ 0000000000430f10 f   libawd2D:attr.obj
 0001:0002ff20       ?get_ns@AWDUserAttr@@QEAAPEAVAWDNamespace@@XZ 0000000000430f20 f   libawd2D:attr.obj
 0001:0002ff30       ?get_val@AWDAttr@@QEAA?ATAWD_field_ptr@@PEAIPEAW4AWD_field_type@@@Z 0000000000430f30 f   libawd2D:attr.obj
 0001:0002ff50       ?get_val_len@AWDAttr@@QEAAIPEAVBlockSettings@@@Z 0000000000430f50 f   libawd2D:attr.obj
 0001:0002ffc0       ?set@AWDNumAttrList@@QEAAXGTAWD_field_ptr@@IW4AWD_field_type@@H@Z 0000000000430fc0 f   libawd2D:attr.obj
 0001:00030070       ?set@AWDUserAttrList@@QEAAXPEAVAWDNamespace@@AEAV?$basic_string@DU?$char_traits@D@std@@V?$allocator@D@2@@std@@TAWD_field_ptr@@IW4AWD_field_type@@@Z 0000000000431070 f   libawd2D:attr.obj
 0001:00030130       ?set_attr@AWDAttrElement@@QEAAXPEAVAWDNamespace@@AEAV?$basic_string@DU?$char_traits@D@std@@V?$allocator@D@2@@std@@TAWD_field_ptr@@IW4AWD_field_type@@@Z 0000000000431130 f   libawd2D:attr.obj
 0001:00030160       ?set_val@AWDAttr@@QEAAXTAWD_field_ptr@@IW4AWD_field_type@@H@Z 0000000000431160 f   libawd2D:attr.obj
 0001:00030180       ?write_attr@AWDAttr@@QEAAXPEAVAWDFileWriter@@PEAVBlockSettings@@@Z 0000000000431180 f   libawd2D:attr.obj
 0001:000303c0       ?write_attributes@AWDNumAttrList@@QEAAXPEAVAWDFileWriter@@PEAVBlockSettings@@@Z 00000000004313c0 f   libawd2D:attr.obj
 0001:00030430       ?write_attributes@AWDUserAttrList@@QEAAXPEAVAWDFileWriter@@PEAVBlockSettings@@@Z 0000000000431430 f   libawd2D:attr.obj
 0001:000304a0       ?write_metadata@AWDNumAttr@@MEAAXPEAVAWDFileWriter@@@Z 00000000004314a0 f   libawd2D:attr.obj
 0001:000304d0       ?write_metadata@AWDUserAttr@@MEAAXPEAVAWDFileWriter@@@Z 00000000004314d0 f   libawd2D:attr.obj
 0001:00030550       ??0AWDShape2DFill@@QEAA@AEAV?$basic_string@DU?$char_traits@D@std@@V?$allocator@D@2@@std@@W4AWD_fill_type@@@Z 0000000000431550 f   libawd2D:shape2Dfill.obj
 0001:000305d0       ??1AWDShape2DFill@@QEAA@XZ 00000000004315d0 f   libawd2D:shape2Dfill.obj
 0001:00030630       ?calc_body_length@AWDShape2DFill@@MEAAIPEAVBlockSettings@@@Z 0000000000431630 f   libawd2D:shape2Dfill.obj
 0001:00030680       ?get_color@AWDShape2DFill@@QEAAIXZ 0000000000431680 f   libawd2D:shape2Dfill.obj
 0001:00030690       ?get_fill_type@AWDShape2DFill@@QEAA?AW4AWD_fill_type@@XZ 0000000000431690 f   libawd2D:shape2Dfill.obj
 0001:000306a0       ?get_texture@AWDShape2DFill@@QEAAPEAVAWDBitmapTexture@@XZ 00000000004316a0 f   libawd2D:shape2Dfill.obj
 0001:000306b0       ?get_uv_transform_mtx@AWDShape2DFill@@QEAAPEANXZ 00000000004316b0 f   libawd2D:shape2Dfill.obj
 0001:000306c0       ?prepare_and_add_dependencies@AWDShape2DFill@@MEAAXPEAVAWDBlockList@@@Z 00000000004316c0 f   libawd2D:shape2Dfill.obj
 0001:000306f0       ?set_color@AWDShape2DFill@@QEAAXI@Z 00000000004316f0 f   libawd2D:shape2Dfill.obj
 0001:00030700       ?set_fill_type@AWDShape2DFill@@QEAAXW4AWD_fill_type@@@Z 0000000000431700 f   libawd2D:shape2Dfill.obj
 0001:00030710       ?set_texture@AWDShape2DFill@@QEAAXPEAVAWDBitmapTexture@@@Z 0000000000431710 f   libawd2D:shape2Dfill.obj
 0001:00030720       ?set_uv_transform_mtx@AWDShape2DFill@@QEAAXPEAN@Z 0000000000431720 f   libawd2D:shape2Dfill.obj
 0001:000307a0       ?write_body@AWDShape2DFill@@MEAAXPEAVAWDFileWriter@@PEAVBlockSettings@@@Z 00000000004317a0 f   libawd2D:shape2Dfill.obj
 0001:0003080c       GetModuleFileNameW         000000000043180c f   kernel32:KERNEL32.dll
 0001:00030812       ShellExecuteW              0000000000431812 f   shell32:SHELL32.dll
 0001:00030820       ??$_Destroy_range@U?$_Wrap_alloc@V?$allocator@PEAUNode@p2t@@@std@@@std@@@std@@YAXPEAPEAUNode@p2t@@0AEAU?$_Wrap_alloc@V?$allocator@PEAUNode@p2t@@@std@@@0@@Z 0000000000431820 f i Poly2Tri:cdt.obj
 0001:00030830       ??$_Destroy_range@U?$_Wrap_alloc@V?$allocator@PEAUNode@p2t@@@std@@@std@@@std@@YAXPEAPEAUNode@p2t@@0AEAU?$_Wrap_alloc@V?$allocator@PEAUNode@p2t@@@std@@@0@U_Scalar_ptr_iterator_tag@0@@Z 0000000000431830 f i Poly2Tri:cdt.obj
 0001:00030840       ??$_Ptr_cat@PEAUNode@p2t@@PEAU12@@std@@YA?AU_Scalar_ptr_iterator_tag@0@PEAPEAUNode@p2t@@0@Z 0000000000431840 f i Poly2Tri:cdt.obj
 0001:00030850       ??$addressof@PEAU?$_List_node@PEAVTriangle@p2t@@PEAX@std@@@std@@YAPEAPEAU?$_List_node@PEAVTriangle@p2t@@PEAX@0@AEAPEAU10@@Z 0000000000431850 f i Poly2Tri:cdt.obj
 0001:00030860       ??$addressof@PEAVTriangle@p2t@@@std@@YAPEAPEAVTriangle@p2t@@AEAPEAV12@@Z 0000000000431860 f i Poly2Tri:cdt.obj
 0001:00030870       ??$destroy@PEAU?$_List_node@PEAVTriangle@p2t@@PEAX@std@@@?$_Wrap_alloc@V?$allocator@U?$_List_node@PEAVTriangle@p2t@@PEAX@std@@@std@@@std@@QEAAXPEAPEAU?$_List_node@PEAVTriangle@p2t@@PEAX@1@@Z 0000000000431870 f i Poly2Tri:cdt.obj
 0001:00030880       ??$destroy@PEAU?$_List_node@PEAVTriangle@p2t@@PEAX@std@@@?$allocator@U?$_List_node@PEAVTriangle@p2t@@PEAX@std@@@std@@QEAAXPEAPEAU?$_List_node@PEAVTriangle@p2t@@PEAX@1@@Z 0000000000431880 f i Poly2Tri:cdt.obj
 0001:00030890       ??$destroy@PEAU?$_List_node@PEAVTriangle@p2t@@PEAX@std@@@?$allocator_traits@V?$allocator@U?$_List_node@PEAVTriangle@p2t@@PEAX@std@@@std@@@std@@SAXAEAV?$allocator@U?$_List_node@PEAVTriangle@p2t@@PEAX@std@@@1@PEAPEAU?$_List_node@PEAVTriangle@p2t@@PEAX@1@@Z 0000000000431890 f i Poly2Tri:cdt.obj
 0001:000308a0       ??$destroy@PEAVTriangle@p2t@@@?$_Wrap_alloc@V?$allocator@U?$_List_node@PEAVTriangle@p2t@@PEAX@std@@@std@@@std@@QEAAXPEAPEAVTriangle@p2t@@@Z 00000000004318a0 f i Poly2Tri:cdt.obj
 0001:000308b0       ??$destroy@PEAVTriangle@p2t@@@?$allocator@U?$_List_node@PEAVTriangle@p2t@@PEAX@std@@@std@@QEAAXPEAPEAVTriangle@p2t@@@Z 00000000004318b0 f i Poly2Tri:cdt.obj
 0001:000308c0       ??$destroy@PEAVTriangle@p2t@@@?$allocator_traits@V?$allocator@U?$_List_node@PEAVTriangle@p2t@@PEAX@std@@@std@@@std@@SAXAEAV?$allocator@U?$_List_node@PEAVTriangle@p2t@@PEAX@std@@@1@PEAPEAVTriangle@p2t@@@Z 00000000004318c0 f i Poly2Tri:cdt.obj
 0001:000308d0       ??0?$_Vector_alloc@$0A@U?$_Vec_base_types@PEAUNode@p2t@@V?$allocator@PEAUNode@p2t@@@std@@@std@@@std@@QEAA@AEBV?$allocator@PEAUNode@p2t@@@1@@Z 00000000004318d0 f i Poly2Tri:cdt.obj
 0001:000308f0       ??0?$_Vector_val@U?$_Simple_types@PEAUNode@p2t@@@std@@@std@@QEAA@XZ 00000000004318f0 f i Poly2Tri:cdt.obj
 0001:00030910       ??0?$_Wrap_alloc@V?$allocator@PEAUNode@p2t@@@std@@@std@@QEAA@XZ 0000000000431910 f i Poly2Tri:cdt.obj
 0001:00030920       ??0?$_Wrap_alloc@V?$allocator@U?$_List_node@PEAVTriangle@p2t@@PEAX@std@@@std@@@std@@QEAA@XZ 0000000000431920 f i Poly2Tri:cdt.obj
 0001:00030930       ??0?$allocator@PEAUNode@p2t@@@std@@QEAA@XZ 0000000000431930 f i Poly2Tri:cdt.obj
 0001:00030940       ??0?$allocator@U?$_List_node@PEAVTriangle@p2t@@PEAX@std@@@std@@QEAA@XZ 0000000000431940 f i Poly2Tri:cdt.obj
 0001:00030950       ??0?$vector@PEAUNode@p2t@@V?$allocator@PEAUNode@p2t@@@std@@@std@@QEAA@XZ 0000000000431950 f i Poly2Tri:cdt.obj
 0001:00030970       ??0CDT@p2t@@QEAA@V?$vector@PEAUPoint@p2t@@V?$allocator@PEAUPoint@p2t@@@std@@@std@@@Z 0000000000431970 f   Poly2Tri:cdt.obj
 0001:00030a20       ??0Sweep@p2t@@QEAA@XZ      0000000000431a20 f i Poly2Tri:cdt.obj
 0001:00030a40       ??1?$_List_alloc@$0A@U?$_List_base_types@PEAVTriangle@p2t@@V?$allocator@PEAVTriangle@p2t@@@std@@@std@@@std@@QEAA@XZ 0000000000431a40 f i Poly2Tri:cdt.obj
 0001:00030a50       ??1?$_List_buy@PEAVTriangle@p2t@@V?$allocator@PEAVTriangle@p2t@@@std@@@std@@QEAA@XZ 0000000000431a50 f i Poly2Tri:cdt.obj
 0001:00030a60       ??1?$list@PEAVTriangle@p2t@@V?$allocator@PEAVTriangle@p2t@@@std@@@std@@QEAA@XZ 0000000000431a60 f i Poly2Tri:cdt.obj
 0001:00030ac0       ??1?$vector@PEAUNode@p2t@@V?$allocator@PEAUNode@p2t@@@std@@@std@@QEAA@XZ 0000000000431ac0 f i Poly2Tri:cdt.obj
 0001:00030af0       ??1CDT@p2t@@QEAA@XZ        0000000000431af0 f   Poly2Tri:cdt.obj
 0001:00030b40       ??_GSweep@p2t@@QEAAPEAXI@Z 0000000000431b40 f i Poly2Tri:cdt.obj
 0001:00030b70       ??_GSweepContext@p2t@@QEAAPEAXI@Z 0000000000431b70 f i Poly2Tri:cdt.obj
 0001:00030ba0       ?AddHole@CDT@p2t@@QEAAXV?$vector@PEAUPoint@p2t@@V?$allocator@PEAUPoint@p2t@@@std@@@std@@@Z 0000000000431ba0 f   Poly2Tri:cdt.obj
 0001:00030c00       ?AddPoint@CDT@p2t@@QEAAXPEAUPoint@2@@Z 0000000000431c00 f   Poly2Tri:cdt.obj
 0001:00030c10       ?GetMap@CDT@p2t@@QEAA?AV?$list@PEAVTriangle@p2t@@V?$allocator@PEAVTriangle@p2t@@@std@@@std@@XZ 0000000000431c10 f   Poly2Tri:cdt.obj
 0001:00030c40       ?GetTriangles@CDT@p2t@@QEAA?AV?$vector@PEAVTriangle@p2t@@V?$allocator@PEAVTriangle@p2t@@@std@@@std@@XZ 0000000000431c40 f   Poly2Tri:cdt.obj
 0001:00030c70       ?Triangulate@CDT@p2t@@QEAAXXZ 0000000000431c70 f   Poly2Tri:cdt.obj
 0001:00030c80       ?_Destroy@?$vector@PEAUNode@p2t@@V?$allocator@PEAUNode@p2t@@@std@@@std@@IEAAXPEAPEAUNode@p2t@@0@Z 0000000000431c80 f i Poly2Tri:cdt.obj
 0001:00030c90       ?_Freeheadnode@?$_List_alloc@$0A@U?$_List_base_types@PEAVTriangle@p2t@@V?$allocator@PEAVTriangle@p2t@@@std@@@std@@@std@@QEAAXPEAU?$_List_node@PEAVTriangle@p2t@@PEAX@2@@Z 0000000000431c90 f i Poly2Tri:cdt.obj
 0001:00030ca0       ?_Freenode@?$_List_buy@PEAVTriangle@p2t@@V?$allocator@PEAVTriangle@p2t@@@std@@@std@@QEAAXPEAU?$_List_node@PEAVTriangle@p2t@@PEAX@2@@Z 0000000000431ca0 f i Poly2Tri:cdt.obj
 0001:00030cb0       ?_Getal@?$_List_alloc@$0A@U?$_List_base_types@PEAVTriangle@p2t@@V?$allocator@PEAVTriangle@p2t@@@std@@@std@@@std@@QEBA?AU?$_Wrap_alloc@V?$allocator@U?$_List_node@PEAVTriangle@p2t@@PEAX@std@@@std@@@2@XZ 0000000000431cb0 f i Poly2Tri:cdt.obj
 0001:00030cc0       ?_Getal@?$_Vector_alloc@$0A@U?$_Vec_base_types@PEAUNode@p2t@@V?$allocator@PEAUNode@p2t@@@std@@@std@@@std@@QEBA?AU?$_Wrap_alloc@V?$allocator@PEAUNode@p2t@@@std@@@2@XZ 0000000000431cc0 f i Poly2Tri:cdt.obj
 0001:00030cd0       ?_Myval@?$_List_val@U?$_List_simple_types@PEAVTriangle@p2t@@@std@@@std@@SAAEAPEAVTriangle@p2t@@PEAU?$_List_node@PEAVTriangle@p2t@@PEAX@2@@Z 0000000000431cd0 f i Poly2Tri:cdt.obj
 0001:00030ce0       ?_Nextnode@?$_List_val@U?$_List_simple_types@PEAVTriangle@p2t@@@std@@@std@@SAAEAPEAU?$_List_node@PEAVTriangle@p2t@@PEAX@2@PEAU32@@Z 0000000000431ce0 f i Poly2Tri:cdt.obj
 0001:00030cf0       ?_Prevnode@?$_List_val@U?$_List_simple_types@PEAVTriangle@p2t@@@std@@@std@@SAAEAPEAU?$_List_node@PEAVTriangle@p2t@@PEAX@2@PEAU32@@Z 0000000000431cf0 f i Poly2Tri:cdt.obj
 0001:00030d00       ?_Tidy@?$list@PEAVTriangle@p2t@@V?$allocator@PEAVTriangle@p2t@@@std@@@std@@QEAAXXZ 0000000000431d00 f i Poly2Tri:cdt.obj
 0001:00030d50       ?_Tidy@?$vector@PEAUNode@p2t@@V?$allocator@PEAUNode@p2t@@@std@@@std@@IEAAXXZ 0000000000431d50 f i Poly2Tri:cdt.obj
 0001:00030d80       ?clear@?$list@PEAVTriangle@p2t@@V?$allocator@PEAVTriangle@p2t@@@std@@@std@@QEAAXXZ 0000000000431d80 f i Poly2Tri:cdt.obj
 0001:00030dd0       ?deallocate@?$_Wrap_alloc@V?$allocator@PEAUNode@p2t@@@std@@@std@@QEAAXPEAPEAUNode@p2t@@_K@Z 0000000000431dd0 f i Poly2Tri:cdt.obj
 0001:00030de0       ?deallocate@?$_Wrap_alloc@V?$allocator@U?$_List_node@PEAVTriangle@p2t@@PEAX@std@@@std@@@std@@QEAAXPEAU?$_List_node@PEAVTriangle@p2t@@PEAX@2@_K@Z 0000000000431de0 f i Poly2Tri:cdt.obj
 0001:00030df0       ?deallocate@?$allocator@PEAUNode@p2t@@@std@@QEAAXPEAPEAUNode@p2t@@_K@Z 0000000000431df0 f i Poly2Tri:cdt.obj
 0001:00030e00       ?deallocate@?$allocator@U?$_List_node@PEAVTriangle@p2t@@PEAX@std@@@std@@QEAAXPEAU?$_List_node@PEAVTriangle@p2t@@PEAX@2@_K@Z 0000000000431e00 f i Poly2Tri:cdt.obj
 0001:00030e10       ??$?0AEAPEAPEAUPoint@p2t@@AEAPEAPEAU01@@?$pair@PEAPEAUPoint@p2t@@PEAPEAU12@@std@@QEAA@AEAPEAPEAUPoint@p2t@@0PEAPEAX@Z 0000000000431e10 f i Poly2Tri:sweep_context.obj
 0001:00030e30       ??$?0PEAPEAUPoint@p2t@@PEAPEAU01@@?$pair@PEAPEAUPoint@p2t@@PEAPEAU12@@std@@QEAA@$$QEAU01@PEAPEAX@Z 0000000000431e30 f i Poly2Tri:sweep_context.obj
 0001:00030e50       ??$?0U?$_List_node@PEAVTriangle@p2t@@PEAX@std@@@?$allocator@PEAVTriangle@p2t@@@std@@QEAA@AEBV?$allocator@U?$_List_node@PEAVTriangle@p2t@@PEAX@std@@@1@@Z 0000000000431e50 f i Poly2Tri:sweep_context.obj
 0001:00030e60       ??$?8PEAUPoint@p2t@@PEAU01@@std@@YA_NAEBV?$allocator@PEAUPoint@p2t@@@0@0@Z 0000000000431e60 f i Poly2Tri:sweep_context.obj
 0001:00030e70       ??$?8V?$allocator@PEAUPoint@p2t@@@std@@V01@@std@@YA_NAEBU?$_Wrap_alloc@V?$allocator@PEAUPoint@p2t@@@std@@@0@0@Z 0000000000431e70 f i Poly2Tri:sweep_context.obj
 0001:00030e80       ??$?9V?$allocator@PEAUPoint@p2t@@@std@@V01@@std@@YA_NAEBU?$_Wrap_alloc@V?$allocator@PEAUPoint@p2t@@@std@@@0@0@Z 0000000000431e80 f i Poly2Tri:sweep_context.obj
 0001:00030e90       ??$_Adjust_heap@PEAPEAUPoint@p2t@@_JPEAU12@P6A_NPEBU12@0@Z@std@@YAXPEAPEAUPoint@p2t@@_J1$$QEAPEAU12@P6A_NPEBU12@3@Z@Z 0000000000431e90 f i Poly2Tri:sweep_context.obj
 0001:00030f80       ??$_Allocate@PEAUEdge@p2t@@@std@@YAPEAPEAUEdge@p2t@@_KPEAPEAU12@@Z 0000000000431f80 f i Poly2Tri:sweep_context.obj
 0001:00030fc0       ??$_Allocate@PEAVTriangle@p2t@@@std@@YAPEAPEAVTriangle@p2t@@_KPEAPEAV12@@Z 0000000000431fc0 f i Poly2Tri:sweep_context.obj
 0001:00031000       ??$_Allocate@U?$_List_node@PEAVTriangle@p2t@@PEAX@std@@@std@@YAPEAU?$_List_node@PEAVTriangle@p2t@@PEAX@0@_KPEAU10@@Z 0000000000432000 f i Poly2Tri:sweep_context.obj
 0001:00031040       ??$_Buynode@AEBQEAVTriangle@p2t@@@?$_List_buy@PEAVTriangle@p2t@@V?$allocator@PEAVTriangle@p2t@@@std@@@std@@QEAAPEAU?$_List_node@PEAVTriangle@p2t@@PEAX@1@PEAU21@0AEBQEAVTriangle@p2t@@@Z 0000000000432040 f i Poly2Tri:sweep_context.obj
 0001:00031080       ??$_Copy_impl@PEAPEAUPoint@p2t@@PEAPEAU12@@std@@YAPEAPEAUPoint@p2t@@PEAPEAU12@00@Z 0000000000432080 f i Poly2Tri:sweep_context.obj
 0001:000310c0       ??$_Copy_impl@PEAPEAUPoint@p2t@@PEAPEAU12@@std@@YAPEAPEAUPoint@p2t@@PEAPEAU12@00U_Scalar_ptr_iterator_tag@0@@Z 00000000004320c0 f i Poly2Tri:sweep_context.obj
 0001:00031100       ??$_Dist_type@PEAPEAUPoint@p2t@@@std@@YAPEA_JPEAPEAUPoint@p2t@@@Z 0000000000432100 f i Poly2Tri:sweep_context.obj
 0001:00031110       ??$_Insert@AEBQEAVTriangle@p2t@@@?$list@PEAVTriangle@p2t@@V?$allocator@PEAVTriangle@p2t@@@std@@@std@@QEAAXV?$_List_unchecked_const_iterator@V?$_List_val@U?$_List_simple_types@PEAVTriangle@p2t@@@std@@@std@@U_Iterator_base0@2@@1@AEBQEAVTriangle@p2t@@@Z 0000000000432110 f i Poly2Tri:sweep_context.obj
 0001:00031180       ??$_Insert_range@V?$_List_const_iterator@V?$_List_val@U?$_List_simple_types@PEAVTriangle@p2t@@@std@@@std@@@std@@@?$list@PEAVTriangle@p2t@@V?$allocator@PEAVTriangle@p2t@@@std@@@std@@QEAAXV?$_List_unchecked_const_iterator@V?$_List_val@U?$_List_simple_types@PEAVTriangle@p2t@@@std@@@std@@U_Iterator_base0@2@@1@V?$_List_const_iterator@V?$_List_val@U?$_List_simple_types@PEAVTriangle@p2t@@@std@@@std@@@1@1Uforward_iterator_tag@1@@Z 0000000000432180 f i Poly2Tri:sweep_context.obj
 0001:00031230       ??$_Insertion_sort1@PEAPEAUPoint@p2t@@P6A_NPEBU12@0@ZPEAU12@@std@@YAXPEAPEAUPoint@p2t@@0P6A_NPEBU12@1@Z0@Z 0000000000432230 f i Poly2Tri:sweep_context.obj
 0001:00031310       ??$_Insertion_sort@PEAPEAUPoint@p2t@@P6A_NPEBU12@0@Z@std@@YAXPEAPEAUPoint@p2t@@0P6A_NPEBU12@1@Z@Z 0000000000432310 f i Poly2Tri:sweep_context.obj
 0001:00031320       ??$_Iter_cat@V?$_List_const_iterator@V?$_List_val@U?$_List_simple_types@PEAVTriangle@p2t@@@std@@@std@@@std@@@std@@YA?AUbidirectional_iterator_tag@0@AEBV?$_List_const_iterator@V?$_List_val@U?$_List_simple_types@PEAVTriangle@p2t@@@std@@@std@@@0@@Z 0000000000432320 f i Poly2Tri:sweep_context.obj
 0001:00031330       ??$_Make_heap@PEAPEAUPoint@p2t@@_JPEAU12@P6A_NPEBU12@0@Z@std@@YAXPEAPEAUPoint@p2t@@0P6A_NPEBU12@1@ZPEA_J0@Z 0000000000432330 f i Poly2Tri:sweep_context.obj
 0001:00031450       ??$_Med3@PEAPEAUPoint@p2t@@P6A_NPEBU12@0@Z@std@@YAXPEAPEAUPoint@p2t@@00P6A_NPEBU12@1@Z@Z 0000000000432450 f i Poly2Tri:sweep_context.obj
 0001:000314d0       ??$_Median@PEAPEAUPoint@p2t@@P6A_NPEBU12@0@Z@std@@YAXPEAPEAUPoint@p2t@@00P6A_NPEBU12@1@Z@Z 00000000004324d0 f i Poly2Tri:sweep_context.obj
 0001:000315b0       ??$_Move@AEAPEAUPoint@p2t@@@std@@YA$$QEAPEAUPoint@p2t@@AEAPEAU12@@Z 00000000004325b0 f i Poly2Tri:sweep_context.obj
 0001:000315c0       ??$_Move_backward@PEAPEAUPoint@p2t@@PEAPEAU12@@std@@YAPEAPEAUPoint@p2t@@PEAPEAU12@00@Z 00000000004325c0 f i Poly2Tri:sweep_context.obj
 0001:000315f0       ??$_Move_backward@PEAPEAUPoint@p2t@@PEAPEAU12@@std@@YAPEAPEAUPoint@p2t@@PEAPEAU12@00U_Scalar_ptr_iterator_tag@0@@Z 00000000004325f0 f i Poly2Tri:sweep_context.obj
 0001:00031620       ??$_Pop_heap@PEAPEAUPoint@p2t@@P6A_NPEBU12@0@Z@std@@YAXPEAPEAUPoint@p2t@@0P6A_NPEBU12@1@Z@Z 0000000000432620 f i Poly2Tri:sweep_context.obj
 0001:00031630       ??$_Pop_heap@PEAPEAUPoint@p2t@@_JPEAU12@P6A_NPEBU12@0@Z@std@@YAXPEAPEAUPoint@p2t@@00$$QEAPEAU12@P6A_NPEBU12@2@ZPEA_J@Z 0000000000432630 f i Poly2Tri:sweep_context.obj
 0001:00031650       ??$_Pop_heap_0@PEAPEAUPoint@p2t@@PEAU12@P6A_NPEBU12@0@Z@std@@YAXPEAPEAUPoint@p2t@@0P6A_NPEBU12@1@Z0@Z 0000000000432650 f i Poly2Tri:sweep_context.obj
 0001:00031730       ??$_Ptr_cat@V?$_Vector_const_iterator@V?$_Vector_val@U?$_Simple_types@PEAVTriangle@p2t@@@std@@@std@@@std@@PEAPEAVTriangle@p2t@@@std@@YA?AU_Nonscalar_ptr_iterator_tag@0@AEAV?$_Vector_const_iterator@V?$_Vector_val@U?$_Simple_types@PEAVTriangle@p2t@@@std@@@std@@@0@AEAPEAPEAVTriangle@p2t@@@Z 0000000000432730 f i Poly2Tri:sweep_context.obj
 0001:00031740       ??$_Push_heap@PEAPEAUPoint@p2t@@_JPEAU12@P6A_NPEBU12@0@Z@std@@YAXPEAPEAUPoint@p2t@@_J1$$QEAPEAU12@P6A_NPEBU12@3@Z@Z 0000000000432740 f i Poly2Tri:sweep_context.obj
 0001:000317e0       ??$_Sort@PEAPEAUPoint@p2t@@_JP6A_NPEBU12@0@Z@std@@YAXPEAPEAUPoint@p2t@@0_JP6A_NPEBU12@2@Z@Z 00000000004327e0 f i Poly2Tri:sweep_context.obj
 0001:00031920       ??$_Sort_heap@PEAPEAUPoint@p2t@@P6A_NPEBU12@0@Z@std@@YAXPEAPEAUPoint@p2t@@0P6A_NPEBU12@1@Z@Z 0000000000432920 f i Poly2Tri:sweep_context.obj
 0001:00031990       ??$_Ucopy@PEAPEAUPoint@p2t@@@?$vector@PEAUPoint@p2t@@V?$allocator@PEAUPoint@p2t@@@std@@@std@@IEAAPEAPEAUPoint@p2t@@PEAPEAU23@00@Z 0000000000432990 f i Poly2Tri:sweep_context.obj
 0001:000319c0       ??$_Ucopy@V?$_Vector_const_iterator@V?$_Vector_val@U?$_Simple_types@PEAVTriangle@p2t@@@std@@@std@@@std@@@?$vector@PEAVTriangle@p2t@@V?$allocator@PEAVTriangle@p2t@@@std@@@std@@IEAAPEAPEAVTriangle@p2t@@V?$_Vector_const_iterator@V?$_Vector_val@U?$_Simple_types@PEAVTriangle@p2t@@@std@@@std@@@1@0PEAPEAV23@@Z 00000000004329c0 f i Poly2Tri:sweep_context.obj
 0001:00031a00       ??$_Umove@PEAPEAUEdge@p2t@@@?$vector@PEAUEdge@p2t@@V?$allocator@PEAUEdge@p2t@@@std@@@std@@IEAAPEAPEAUEdge@p2t@@PEAPEAU23@00@Z 0000000000432a00 f i Poly2Tri:sweep_context.obj
 0001:00031a30       ??$_Umove@PEAPEAVTriangle@p2t@@@?$vector@PEAVTriangle@p2t@@V?$allocator@PEAVTriangle@p2t@@@std@@@std@@IEAAPEAPEAVTriangle@p2t@@PEAPEAV23@00@Z 0000000000432a30 f i Poly2Tri:sweep_context.obj
 0001:00031a60       ??$_Unchecked@PEAPEAUPoint@p2t@@@std@@YAPEAPEAUPoint@p2t@@PEAPEAU12@@Z 0000000000432a60 f i Poly2Tri:sweep_context.obj
 0001:00031a70       ??$_Unchecked@V?$_Vector_val@U?$_Simple_types@PEAUPoint@p2t@@@std@@@std@@@std@@YAPEAPEAUPoint@p2t@@V?$_Vector_iterator@V?$_Vector_val@U?$_Simple_types@PEAUPoint@p2t@@@std@@@std@@@0@@Z 0000000000432a70 f i Poly2Tri:sweep_context.obj
 0001:00031a80       ??$_Unguarded_partition@PEAPEAUPoint@p2t@@P6A_NPEBU12@0@Z@std@@YA?AU?$pair@PEAPEAUPoint@p2t@@PEAPEAU12@@0@PEAPEAUPoint@p2t@@0P6A_NPEBU23@1@Z@Z 0000000000432a80 f i Poly2Tri:sweep_context.obj
 0001:00031c70       ??$_Uninit_copy@PEAUPoint@p2t@@PEAU12@@std@@YAPEAPEAUPoint@p2t@@PEAPEAU12@00AEAU?$_Wrap_alloc@V?$allocator@PEAUPoint@p2t@@@std@@@0@U_Scalar_ptr_iterator_tag@0@@Z 0000000000432c70 f i Poly2Tri:sweep_context.obj
 0001:00031ca0       ??$_Uninit_copy@V?$_Vector_const_iterator@V?$_Vector_val@U?$_Simple_types@PEAVTriangle@p2t@@@std@@@std@@@std@@PEAPEAVTriangle@p2t@@V?$allocator@PEAVTriangle@p2t@@@2@@std@@YAPEAPEAVTriangle@p2t@@V?$_Vector_const_iterator@V?$_Vector_val@U?$_Simple_types@PEAVTriangle@p2t@@@std@@@std@@@0@0PEAPEAV12@AEAU?$_Wrap_alloc@V?$allocator@PEAVTriangle@p2t@@@std@@@0@U_Nonscalar_ptr_iterator_tag@0@@Z 0000000000432ca0 f i Poly2Tri:sweep_context.obj
 0001:00031ce0       ??$_Uninit_move@PEAUEdge@p2t@@PEAU12@PEAU12@@std@@YAPEAPEAUEdge@p2t@@PEAPEAU12@00AEAU?$_Wrap_alloc@V?$allocator@PEAUEdge@p2t@@@std@@@0@0U_Scalar_ptr_iterator_tag@0@@Z 0000000000432ce0 f i Poly2Tri:sweep_context.obj
 0001:00031d10       ??$_Uninit_move@PEAVTriangle@p2t@@PEAV12@PEAV12@@std@@YAPEAPEAVTriangle@p2t@@PEAPEAV12@00AEAU?$_Wrap_alloc@V?$allocator@PEAVTriangle@p2t@@@std@@@0@0U_Scalar_ptr_iterator_tag@0@@Z 0000000000432d10 f i Poly2Tri:sweep_context.obj
 0001:00031d40       ??$_Uninitialized_copy@PEAPEAUPoint@p2t@@PEAPEAU12@U?$_Wrap_alloc@V?$allocator@PEAUPoint@p2t@@@std@@@std@@@std@@YAPEAPEAUPoint@p2t@@PEAPEAU12@00AEAU?$_Wrap_alloc@V?$allocator@PEAUPoint@p2t@@@std@@@0@@Z 0000000000432d40 f i Poly2Tri:sweep_context.obj
 0001:00031d70       ??$_Uninitialized_copy@V?$_Vector_const_iterator@V?$_Vector_val@U?$_Simple_types@PEAVTriangle@p2t@@@std@@@std@@@std@@PEAPEAVTriangle@p2t@@U?$_Wrap_alloc@V?$allocator@PEAVTriangle@p2t@@@std@@@2@@std@@YAPEAPEAVTriangle@p2t@@V?$_Vector_const_iterator@V?$_Vector_val@U?$_Simple_types@PEAVTriangle@p2t@@@std@@@std@@@0@0PEAPEAV12@AEAU?$_Wrap_alloc@V?$allocator@PEAVTriangle@p2t@@@std@@@0@@Z 0000000000432d70 f i Poly2Tri:sweep_context.obj
 0001:00031d90       ??$_Uninitialized_move@PEAPEAUEdge@p2t@@PEAPEAU12@U?$_Wrap_alloc@V?$allocator@PEAUEdge@p2t@@@std@@@std@@@std@@YAPEAPEAUEdge@p2t@@PEAPEAU12@00AEAU?$_Wrap_alloc@V?$allocator@PEAUEdge@p2t@@@std@@@0@@Z 0000000000432d90 f i Poly2Tri:sweep_context.obj
 0001:00031dc0       ??$_Uninitialized_move@PEAPEAVTriangle@p2t@@PEAPEAV12@U?$_Wrap_alloc@V?$allocator@PEAVTriangle@p2t@@@std@@@std@@@std@@YAPEAPEAVTriangle@p2t@@PEAPEAV12@00AEAU?$_Wrap_alloc@V?$allocator@PEAVTriangle@p2t@@@std@@@0@@Z 0000000000432dc0 f i Poly2Tri:sweep_context.obj
 0001:00031df0       ??$_Val_type@PEAPEAUEdge@p2t@@@std@@YAPEAPEAUEdge@p2t@@PEAPEAU12@@Z 0000000000432df0 f i Poly2Tri:sweep_context.obj
 0001:00031e00       ??$_Val_type@PEAPEAVTriangle@p2t@@@std@@YAPEAPEAVTriangle@p2t@@PEAPEAV12@@Z 0000000000432e00 f i Poly2Tri:sweep_context.obj
 0001:00031e10       ??$addressof@PEAUEdge@p2t@@@std@@YAPEAPEAUEdge@p2t@@AEAPEAU12@@Z 0000000000432e10 f i Poly2Tri:sweep_context.obj
 0001:00031e20       ??$addressof@QEAUEdge@p2t@@@std@@YAPEBQEAUEdge@p2t@@AEBQEAU12@@Z 0000000000432e20 f i Poly2Tri:sweep_context.obj
 0001:00031e30       ??$addressof@QEAVTriangle@p2t@@@std@@YAPEBQEAVTriangle@p2t@@AEBQEAV12@@Z 0000000000432e30 f i Poly2Tri:sweep_context.obj
 0001:00031e40       ??$construct@PEAU?$_List_node@PEAVTriangle@p2t@@PEAX@std@@AEAPEAU12@@?$_Wrap_alloc@V?$allocator@U?$_List_node@PEAVTriangle@p2t@@PEAX@std@@@std@@@std@@QEAAXPEAPEAU?$_List_node@PEAVTriangle@p2t@@PEAX@1@AEAPEAU21@@Z 0000000000432e40 f i Poly2Tri:sweep_context.obj
 0001:00031e50       ??$construct@PEAU?$_List_node@PEAVTriangle@p2t@@PEAX@std@@AEAPEAU12@@?$allocator@U?$_List_node@PEAVTriangle@p2t@@PEAX@std@@@std@@QEAAXPEAPEAU?$_List_node@PEAVTriangle@p2t@@PEAX@1@AEAPEAU21@@Z 0000000000432e50 f i Poly2Tri:sweep_context.obj
 0001:00031e60       ??$construct@PEAU?$_List_node@PEAVTriangle@p2t@@PEAX@std@@AEAPEAU12@@?$allocator_traits@V?$allocator@U?$_List_node@PEAVTriangle@p2t@@PEAX@std@@@std@@@std@@SAXAEAV?$allocator@U?$_List_node@PEAVTriangle@p2t@@PEAX@std@@@1@PEAPEAU?$_List_node@PEAVTriangle@p2t@@PEAX@1@AEAPEAU31@@Z 0000000000432e60 f i Poly2Tri:sweep_context.obj
 0001:00031e70       ??$construct@PEAUEdge@p2t@@AEAPEAU12@@?$_Wrap_alloc@V?$allocator@PEAUEdge@p2t@@@std@@@std@@QEAAXPEAPEAUEdge@p2t@@AEAPEAU23@@Z 0000000000432e70 f i Poly2Tri:sweep_context.obj
 0001:00031e80       ??$construct@PEAUEdge@p2t@@AEAPEAU12@@?$allocator@PEAUEdge@p2t@@@std@@QEAAXPEAPEAUEdge@p2t@@AEAPEAU23@@Z 0000000000432e80 f i Poly2Tri:sweep_context.obj
 0001:00031e90       ??$construct@PEAUEdge@p2t@@AEAPEAU12@@?$allocator_traits@V?$allocator@PEAUEdge@p2t@@@std@@@std@@SAXAEAV?$allocator@PEAUEdge@p2t@@@1@PEAPEAUEdge@p2t@@AEAPEAU34@@Z 0000000000432e90 f i Poly2Tri:sweep_context.obj
 0001:00031ea0       ??$construct@PEAUEdge@p2t@@AEBQEAU12@@?$_Wrap_alloc@V?$allocator@PEAUEdge@p2t@@@std@@@std@@QEAAXPEAPEAUEdge@p2t@@AEBQEAU23@@Z 0000000000432ea0 f i Poly2Tri:sweep_context.obj
 0001:00031eb0       ??$construct@PEAUEdge@p2t@@AEBQEAU12@@?$allocator_traits@V?$allocator@PEAUEdge@p2t@@@std@@@std@@SAXAEAV?$allocator@PEAUEdge@p2t@@@1@PEAPEAUEdge@p2t@@AEBQEAU34@@Z 0000000000432eb0 f i Poly2Tri:sweep_context.obj
 0001:00031ec0       ??$construct@PEAUEdge@p2t@@PEAU12@@?$_Wrap_alloc@V?$allocator@PEAUEdge@p2t@@@std@@@std@@QEAAXPEAPEAUEdge@p2t@@$$QEAPEAU23@@Z 0000000000432ec0 f i Poly2Tri:sweep_context.obj
 0001:00031ed0       ??$construct@PEAUEdge@p2t@@PEAU12@@?$allocator@PEAUEdge@p2t@@@std@@QEAAXPEAPEAUEdge@p2t@@$$QEAPEAU23@@Z 0000000000432ed0 f i Poly2Tri:sweep_context.obj
 0001:00031ee0       ??$construct@PEAUEdge@p2t@@PEAU12@@?$allocator_traits@V?$allocator@PEAUEdge@p2t@@@std@@@std@@SAXAEAV?$allocator@PEAUEdge@p2t@@@1@PEAPEAUEdge@p2t@@$$QEAPEAU34@@Z 0000000000432ee0 f i Poly2Tri:sweep_context.obj
 0001:00031ef0       ??$construct@PEAVTriangle@p2t@@AEAPEAV12@@?$_Wrap_alloc@V?$allocator@PEAVTriangle@p2t@@@std@@@std@@QEAAXPEAPEAVTriangle@p2t@@AEAPEAV23@@Z 0000000000432ef0 f i Poly2Tri:sweep_context.obj
 0001:00031f00       ??$construct@PEAVTriangle@p2t@@AEAPEAV12@@?$allocator@PEAVTriangle@p2t@@@std@@QEAAXPEAPEAVTriangle@p2t@@AEAPEAV23@@Z 0000000000432f00 f i Poly2Tri:sweep_context.obj
 0001:00031f10       ??$construct@PEAVTriangle@p2t@@AEAPEAV12@@?$allocator_traits@V?$allocator@PEAVTriangle@p2t@@@std@@@std@@SAXAEAV?$allocator@PEAVTriangle@p2t@@@1@PEAPEAVTriangle@p2t@@AEAPEAV34@@Z 0000000000432f10 f i Poly2Tri:sweep_context.obj
 0001:00031f20       ??$construct@PEAVTriangle@p2t@@AEBQEAV12@@?$_Wrap_alloc@V?$allocator@PEAVTriangle@p2t@@@std@@@std@@QEAAXPEAPEAVTriangle@p2t@@AEBQEAV23@@Z 0000000000432f20 f i Poly2Tri:sweep_context.obj
 0001:00031f30       ??$construct@PEAVTriangle@p2t@@AEBQEAV12@@?$_Wrap_alloc@V?$allocator@U?$_List_node@PEAVTriangle@p2t@@PEAX@std@@@std@@@std@@QEAAXPEAPEAVTriangle@p2t@@AEBQEAV23@@Z 0000000000432f30 f i Poly2Tri:sweep_context.obj
 0001:00031f40       ??$construct@PEAVTriangle@p2t@@AEBQEAV12@@?$allocator@U?$_List_node@PEAVTriangle@p2t@@PEAX@std@@@std@@QEAAXPEAPEAVTriangle@p2t@@AEBQEAV23@@Z 0000000000432f40 f i Poly2Tri:sweep_context.obj
 0001:00031f50       ??$construct@PEAVTriangle@p2t@@AEBQEAV12@@?$allocator_traits@V?$allocator@PEAVTriangle@p2t@@@std@@@std@@SAXAEAV?$allocator@PEAVTriangle@p2t@@@1@PEAPEAVTriangle@p2t@@AEBQEAV34@@Z 0000000000432f50 f i Poly2Tri:sweep_context.obj
 0001:00031f60       ??$construct@PEAVTriangle@p2t@@AEBQEAV12@@?$allocator_traits@V?$allocator@U?$_List_node@PEAVTriangle@p2t@@PEAX@std@@@std@@@std@@SAXAEAV?$allocator@U?$_List_node@PEAVTriangle@p2t@@PEAX@std@@@1@PEAPEAVTriangle@p2t@@AEBQEAV34@@Z 0000000000432f60 f i Poly2Tri:sweep_context.obj
 0001:00031f70       ??$construct@PEAVTriangle@p2t@@PEAV12@@?$_Wrap_alloc@V?$allocator@PEAVTriangle@p2t@@@std@@@std@@QEAAXPEAPEAVTriangle@p2t@@$$QEAPEAV23@@Z 0000000000432f70 f i Poly2Tri:sweep_context.obj
 0001:00031f80       ??$construct@PEAVTriangle@p2t@@PEAV12@@?$allocator@PEAVTriangle@p2t@@@std@@QEAAXPEAPEAVTriangle@p2t@@$$QEAPEAV23@@Z 0000000000432f80 f i Poly2Tri:sweep_context.obj
 0001:00031f90       ??$construct@PEAVTriangle@p2t@@PEAV12@@?$allocator_traits@V?$allocator@PEAVTriangle@p2t@@@std@@@std@@SAXAEAV?$allocator@PEAVTriangle@p2t@@@1@PEAPEAVTriangle@p2t@@$$QEAPEAV34@@Z 0000000000432f90 f i Poly2Tri:sweep_context.obj
 0001:00031fa0       ??$destroy@PEAVTriangle@p2t@@@?$_Wrap_alloc@V?$allocator@PEAVTriangle@p2t@@@std@@@std@@QEAAXPEAPEAVTriangle@p2t@@@Z 0000000000432fa0 f i Poly2Tri:sweep_context.obj
 0001:00031fb0       ??$destroy@PEAVTriangle@p2t@@@?$allocator@PEAVTriangle@p2t@@@std@@QEAAXPEAPEAVTriangle@p2t@@@Z 0000000000432fb0 f i Poly2Tri:sweep_context.obj
 0001:00031fc0       ??$destroy@PEAVTriangle@p2t@@@?$allocator_traits@V?$allocator@PEAVTriangle@p2t@@@std@@@std@@SAXAEAV?$allocator@PEAVTriangle@p2t@@@1@PEAPEAVTriangle@p2t@@@Z 0000000000432fc0 f i Poly2Tri:sweep_context.obj
 0001:00031fd0       ??$forward@AEAPEAPEAUPoint@p2t@@@std@@YAAEAPEAPEAUPoint@p2t@@AEAPEAPEAU12@@Z 0000000000432fd0 f i Poly2Tri:sweep_context.obj
 0001:00031fe0       ??$forward@AEAPEAU?$_List_node@PEAVTriangle@p2t@@PEAX@std@@@std@@YAAEAPEAU?$_List_node@PEAVTriangle@p2t@@PEAX@0@AEAPEAU10@@Z 0000000000432fe0 f i Poly2Tri:sweep_context.obj
 0001:00031ff0       ??$forward@AEAPEAUEdge@p2t@@@std@@YAAEAPEAUEdge@p2t@@AEAPEAU12@@Z 0000000000432ff0 f i Poly2Tri:sweep_context.obj
 0001:00032000       ??$forward@AEAPEAVTriangle@p2t@@@std@@YAAEAPEAVTriangle@p2t@@AEAPEAV12@@Z 0000000000433000 f i Poly2Tri:sweep_context.obj
 0001:00032010       ??$forward@AEBQEAUEdge@p2t@@@std@@YAAEBQEAUEdge@p2t@@AEBQEAU12@@Z 0000000000433010 f i Poly2Tri:sweep_context.obj
 0001:00032020       ??$forward@AEBQEAVTriangle@p2t@@@std@@YAAEBQEAVTriangle@p2t@@AEBQEAV12@@Z 0000000000433020 f i Poly2Tri:sweep_context.obj
 0001:00032030       ??$forward@PEAPEAUPoint@p2t@@@std@@YA$$QEAPEAPEAUPoint@p2t@@AEAPEAPEAU12@@Z 0000000000433030 f i Poly2Tri:sweep_context.obj
 0001:00032040       ??$forward@PEAUEdge@p2t@@@std@@YA$$QEAPEAUEdge@p2t@@AEAPEAU12@@Z 0000000000433040 f i Poly2Tri:sweep_context.obj
 0001:00032050       ??$forward@PEAVTriangle@p2t@@@std@@YA$$QEAPEAVTriangle@p2t@@AEAPEAV12@@Z 0000000000433050 f i Poly2Tri:sweep_context.obj
 0001:00032060       ??$insert@V?$_List_const_iterator@V?$_List_val@U?$_List_simple_types@PEAVTriangle@p2t@@@std@@@std@@@std@@@?$list@PEAVTriangle@p2t@@V?$allocator@PEAVTriangle@p2t@@@std@@@std@@QEAA?AV?$_List_iterator@V?$_List_val@U?$_List_simple_types@PEAVTriangle@p2t@@@std@@@std@@@1@V?$_List_const_iterator@V?$_List_val@U?$_List_simple_types@PEAVTriangle@p2t@@@std@@@std@@@1@00@Z 0000000000433060 f i Poly2Tri:sweep_context.obj
 0001:000320e0       ??$iter_swap@PEAPEAUPoint@p2t@@PEAPEAU12@@std@@YAXPEAPEAUPoint@p2t@@0@Z 00000000004330e0 f i Poly2Tri:sweep_context.obj
 0001:000320f0       ??$make_heap@PEAPEAUPoint@p2t@@P6A_NPEBU12@0@Z@std@@YAXPEAPEAUPoint@p2t@@0P6A_NPEBU12@1@Z@Z 00000000004330f0 f i Poly2Tri:sweep_context.obj
 0001:00032120       ??$sort@V?$_Vector_iterator@V?$_Vector_val@U?$_Simple_types@PEAUPoint@p2t@@@std@@@std@@@std@@P6A_NPEBUPoint@p2t@@0@Z@std@@YAXV?$_Vector_iterator@V?$_Vector_val@U?$_Simple_types@PEAUPoint@p2t@@@std@@@std@@@0@0P6A_NPEBUPoint@p2t@@1@Z@Z 0000000000433120 f i Poly2Tri:sweep_context.obj
 0001:00032140       ??$sort_heap@PEAPEAUPoint@p2t@@P6A_NPEBU12@0@Z@std@@YAXPEAPEAUPoint@p2t@@0P6A_NPEBU12@1@Z@Z 0000000000433140 f i Poly2Tri:sweep_context.obj
 0001:00032150       ??$swap@PEAUPoint@p2t@@@std@@YAXAEAPEAUPoint@p2t@@0@Z 0000000000433150 f i Poly2Tri:sweep_context.obj
 0001:00032160       ??0?$_List_alloc@$0A@U?$_List_base_types@PEAVTriangle@p2t@@V?$allocator@PEAVTriangle@p2t@@@std@@@std@@@std@@QEAA@AEBV?$allocator@PEAVTriangle@p2t@@@1@@Z 0000000000433160 f i Poly2Tri:sweep_context.obj
 0001:00032190       ??0?$_List_buy@PEAVTriangle@p2t@@V?$allocator@PEAVTriangle@p2t@@@std@@@std@@QEAA@AEBV?$allocator@PEAVTriangle@p2t@@@1@@Z 0000000000433190 f i Poly2Tri:sweep_context.obj
 0001:000321c0       ??0?$_List_const_iterator@V?$_List_val@U?$_List_simple_types@PEAVTriangle@p2t@@@std@@@std@@@std@@QEAA@PEAU?$_List_node@PEAVTriangle@p2t@@PEAX@1@PEBV?$_List_val@U?$_List_simple_types@PEAVTriangle@p2t@@@std@@@1@@Z 00000000004331c0 f i Poly2Tri:sweep_context.obj
 0001:000321d0       ??0?$_List_iterator@V?$_List_val@U?$_List_simple_types@PEAVTriangle@p2t@@@std@@@std@@@std@@QEAA@PEAU?$_List_node@PEAVTriangle@p2t@@PEAX@1@PEBV?$_List_val@U?$_List_simple_types@PEAVTriangle@p2t@@@std@@@1@@Z 00000000004331d0 f i Poly2Tri:sweep_context.obj
 0001:000321e0       ??0?$_List_unchecked_const_iterator@V?$_List_val@U?$_List_simple_types@PEAVTriangle@p2t@@@std@@@std@@U_Iterator_base0@2@@std@@QEAA@PEAU?$_List_node@PEAVTriangle@p2t@@PEAX@1@PEBV?$_List_val@U?$_List_simple_types@PEAVTriangle@p2t@@@std@@@1@@Z 00000000004331e0 f i Poly2Tri:sweep_context.obj
 0001:000321f0       ??0?$_List_unchecked_iterator@V?$_List_val@U?$_List_simple_types@PEAVTriangle@p2t@@@std@@@std@@@std@@QEAA@PEAU?$_List_node@PEAVTriangle@p2t@@PEAX@1@PEBV?$_List_val@U?$_List_simple_types@PEAVTriangle@p2t@@@std@@@1@@Z 00000000004331f0 f i Poly2Tri:sweep_context.obj
 0001:00032200       ??0?$_List_val@U?$_List_simple_types@PEAVTriangle@p2t@@@std@@@std@@QEAA@XZ 0000000000433200 f i Poly2Tri:sweep_context.obj
 0001:00032210       ??0?$_Vector_alloc@$0A@U?$_Vec_base_types@PEAVTriangle@p2t@@V?$allocator@PEAVTriangle@p2t@@@std@@@std@@@std@@QEAA@AEBV?$allocator@PEAVTriangle@p2t@@@1@@Z 0000000000433210 f i Poly2Tri:sweep_context.obj
 0001:00032230       ??0?$_Vector_val@U?$_Simple_types@PEAVTriangle@p2t@@@std@@@std@@QEAA@XZ 0000000000433230 f i Poly2Tri:sweep_context.obj
 0001:00032250       ??0?$_Wrap_alloc@V?$allocator@PEAVTriangle@p2t@@@std@@@std@@QEAA@AEBV?$allocator@PEAVTriangle@p2t@@@1@@Z 0000000000433250 f i Poly2Tri:sweep_context.obj
 0001:00032260       ??0?$_Wrap_alloc@V?$allocator@U?$_List_node@PEAVTriangle@p2t@@PEAX@std@@@std@@@std@@QEAA@AEBV?$allocator@U?$_List_node@PEAVTriangle@p2t@@PEAX@std@@@1@@Z 0000000000433260 f i Poly2Tri:sweep_context.obj
 0001:00032270       ??0?$allocator@PEAVTriangle@p2t@@@std@@QEAA@AEBV01@@Z 0000000000433270 f i Poly2Tri:sweep_context.obj
 0001:00032280       ??0?$allocator@U?$_List_node@PEAVTriangle@p2t@@PEAX@std@@@std@@QEAA@AEBV01@@Z 0000000000433280 f i Poly2Tri:sweep_context.obj
 0001:00032290       ??0?$list@PEAVTriangle@p2t@@V?$allocator@PEAVTriangle@p2t@@@std@@@std@@QEAA@AEBV01@@Z 0000000000433290 f i Poly2Tri:sweep_context.obj
 0001:00032300       ??0?$list@PEAVTriangle@p2t@@V?$allocator@PEAVTriangle@p2t@@@std@@@std@@QEAA@XZ 0000000000433300 f i Poly2Tri:sweep_context.obj
 0001:00032330       ??0?$vector@PEAVTriangle@p2t@@V?$allocator@PEAVTriangle@p2t@@@std@@@std@@QEAA@AEBV01@@Z 0000000000433330 f i Poly2Tri:sweep_context.obj
 0001:000323a0       ??0?$vector@PEAVTriangle@p2t@@V?$allocator@PEAVTriangle@p2t@@@std@@@std@@QEAA@XZ 00000000004333a0 f i Poly2Tri:sweep_context.obj
 0001:000323c0       ??0Basin@SweepContext@p2t@@QEAA@XZ 00000000004333c0 f i Poly2Tri:sweep_context.obj
 0001:000323e0       ??0Edge@p2t@@QEAA@AEAUPoint@1@0@Z 00000000004333e0 f i Poly2Tri:sweep_context.obj
 0001:00032500       ??0EdgeEvent@SweepContext@p2t@@QEAA@XZ 0000000000433500 f i Poly2Tri:sweep_context.obj
 0001:00032510       ??0Node@p2t@@QEAA@AEAUPoint@1@@Z 0000000000433510 f i Poly2Tri:sweep_context.obj
 0001:00032530       ??0Node@p2t@@QEAA@AEAUPoint@1@AEAVTriangle@1@@Z 0000000000433530 f i Poly2Tri:sweep_context.obj
 0001:00032550       ??0SweepContext@p2t@@QEAA@V?$vector@PEAUPoint@p2t@@V?$allocator@PEAUPoint@p2t@@@std@@@std@@@Z 0000000000433550 f   Poly2Tri:sweep_context.obj
 0001:000326b0       ??1Point@p2t@@QEAA@XZ      00000000004336b0 f i Poly2Tri:sweep_context.obj
 0001:000326e0       ??1SweepContext@p2t@@QEAA@XZ 00000000004336e0 f   Poly2Tri:sweep_context.obj
 0001:000328a0       ??4?$vector@PEAUPoint@p2t@@V?$allocator@PEAUPoint@p2t@@@std@@@std@@QEAAAEAV01@AEBV01@@Z 00000000004338a0 f i Poly2Tri:sweep_context.obj
 0001:000329f0       ??8?$_List_const_iterator@V?$_List_val@U?$_List_simple_types@PEAVTriangle@p2t@@@std@@@std@@@std@@QEBA_NAEBV01@@Z 00000000004339f0 f i Poly2Tri:sweep_context.obj
 0001:00032a00       ??9?$_List_const_iterator@V?$_List_val@U?$_List_simple_types@PEAVTriangle@p2t@@@std@@@std@@@std@@QEBA_NAEBV01@@Z 0000000000433a00 f i Poly2Tri:sweep_context.obj
 0001:00032a10       ??A?$vector@PEAUEdge@p2t@@V?$allocator@PEAUEdge@p2t@@@std@@@std@@QEAAAEAPEAUEdge@p2t@@_K@Z 0000000000433a10 f i Poly2Tri:sweep_context.obj
 0001:00032a20       ??D?$_List_const_iterator@V?$_List_val@U?$_List_simple_types@PEAVTriangle@p2t@@@std@@@std@@@std@@QEBAAEBQEAVTriangle@p2t@@XZ 0000000000433a20 f i Poly2Tri:sweep_context.obj
 0001:00032a30       ??D?$_List_iterator@V?$_List_val@U?$_List_simple_types@PEAVTriangle@p2t@@@std@@@std@@@std@@QEBAAEAPEAVTriangle@p2t@@XZ 0000000000433a30 f i Poly2Tri:sweep_context.obj
 0001:00032a40       ??E?$_List_const_iterator@V?$_List_val@U?$_List_simple_types@PEAVTriangle@p2t@@@std@@@std@@@std@@QEAAAEAV01@XZ 0000000000433a40 f i Poly2Tri:sweep_context.obj
 0001:00032a50       ??E?$_List_iterator@V?$_List_val@U?$_List_simple_types@PEAVTriangle@p2t@@@std@@@std@@@std@@QEAAAEAV01@XZ 0000000000433a50 f i Poly2Tri:sweep_context.obj
 0001:00032a60       ??F?$_List_const_iterator@V?$_List_val@U?$_List_simple_types@PEAVTriangle@p2t@@@std@@@std@@@std@@QEAAAEAV01@XZ 0000000000433a60 f i Poly2Tri:sweep_context.obj
 0001:00032a70       ??F?$_List_iterator@V?$_List_val@U?$_List_simple_types@PEAVTriangle@p2t@@@std@@@std@@@std@@QEAAAEAV01@XZ 0000000000433a70 f i Poly2Tri:sweep_context.obj
 0001:00032a80       ??F?$_List_unchecked_const_iterator@V?$_List_val@U?$_List_simple_types@PEAVTriangle@p2t@@@std@@@std@@U_Iterator_base0@2@@std@@QEAAAEAV01@XZ 0000000000433a80 f i Poly2Tri:sweep_context.obj
 0001:00032a90       ??G?$_Vector_const_iterator@V?$_Vector_val@U?$_Simple_types@PEAUPoint@p2t@@@std@@@std@@@std@@QEBA_JAEBV01@@Z 0000000000433a90 f i Poly2Tri:sweep_context.obj
 0001:00032aa0       ??G?$_Vector_iterator@V?$_Vector_val@U?$_Simple_types@PEAUPoint@p2t@@@std@@@std@@@std@@QEBA_JAEBV?$_Vector_const_iterator@V?$_Vector_val@U?$_Simple_types@PEAUPoint@p2t@@@std@@@std@@@1@@Z 0000000000433aa0 f i Poly2Tri:sweep_context.obj
 0001:00032ab0       ??G?$_Vector_iterator@V?$_Vector_val@U?$_Simple_types@PEAVTriangle@p2t@@@std@@@std@@@std@@QEBA?AV01@_J@Z 0000000000433ab0 f i Poly2Tri:sweep_context.obj
 0001:00032ac0       ??Y?$_Vector_const_iterator@V?$_Vector_val@U?$_Simple_types@PEAVTriangle@p2t@@@std@@@std@@@std@@QEAAAEAV01@_J@Z 0000000000433ac0 f i Poly2Tri:sweep_context.obj
 0001:00032ad0       ??Y?$_Vector_iterator@V?$_Vector_val@U?$_Simple_types@PEAVTriangle@p2t@@@std@@@std@@@std@@QEAAAEAV01@_J@Z 0000000000433ad0 f i Poly2Tri:sweep_context.obj
 0001:00032ae0       ??Z?$_Vector_iterator@V?$_Vector_val@U?$_Simple_types@PEAVTriangle@p2t@@@std@@@std@@@std@@QEAAAEAV01@_J@Z 0000000000433ae0 f i Poly2Tri:sweep_context.obj
 0001:00032af0       ??_GAdvancingFront@p2t@@QEAAPEAXI@Z 0000000000433af0 f i Poly2Tri:sweep_context.obj
 0001:00032b20       ??_GPoint@p2t@@QEAAPEAXI@Z 0000000000433b20 f i Poly2Tri:sweep_context.obj
 0001:00032b70       ?AddHole@SweepContext@p2t@@QEAAXV?$vector@PEAUPoint@p2t@@V?$allocator@PEAUPoint@p2t@@@std@@@std@@@Z 0000000000433b70 f   Poly2Tri:sweep_context.obj
 0001:00032cb0       ?AddPoint@SweepContext@p2t@@QEAAXPEAUPoint@2@@Z 0000000000433cb0 f   Poly2Tri:sweep_context.obj
 0001:00032cd0       ?AddToMap@SweepContext@p2t@@QEAAXPEAVTriangle@2@@Z 0000000000433cd0 f   Poly2Tri:sweep_context.obj
 0001:00032d40       ?CreateAdvancingFront@SweepContext@p2t@@QEAAXV?$vector@PEAUNode@p2t@@V?$allocator@PEAUNode@p2t@@@std@@@std@@@Z 0000000000433d40 f   Poly2Tri:sweep_context.obj
 0001:00032f40       ?GetMap@SweepContext@p2t@@QEAA?AV?$list@PEAVTriangle@p2t@@V?$allocator@PEAVTriangle@p2t@@@std@@@std@@XZ 0000000000433f40 f   Poly2Tri:sweep_context.obj
 0001:00032f70       ?GetNeighbor@Triangle@p2t@@QEAAPEAV12@AEBH@Z 0000000000433f70 f i Poly2Tri:sweep_context.obj
 0001:00032f80       ?GetPoint@SweepContext@p2t@@QEAAPEAUPoint@2@AEBH@Z 0000000000433f80 f   Poly2Tri:sweep_context.obj
 0001:00032f90       ?GetTriangles@SweepContext@p2t@@QEAA?AV?$vector@PEAVTriangle@p2t@@V?$allocator@PEAVTriangle@p2t@@@std@@@std@@XZ 0000000000433f90 f   Poly2Tri:sweep_context.obj
 0001:00032fc0       ?InitEdges@SweepContext@p2t@@AEAAXV?$vector@PEAUPoint@p2t@@V?$allocator@PEAUPoint@p2t@@@std@@@std@@@Z 0000000000433fc0 f   Poly2Tri:sweep_context.obj
 0001:00033110       ?InitTriangulation@SweepContext@p2t@@AEAAXXZ 0000000000434110 f   Poly2Tri:sweep_context.obj
 0001:00033290       ?IsInterior@Triangle@p2t@@QEAAX_N@Z 0000000000434290 f i Poly2Tri:sweep_context.obj
 0001:000332a0       ?IsInterior@Triangle@p2t@@QEAA_NXZ 00000000004342a0 f i Poly2Tri:sweep_context.obj
 0001:000332b0       ?LocateNode@SweepContext@p2t@@QEAAAEAUNode@2@AEAUPoint@2@@Z 00000000004342b0 f   Poly2Tri:sweep_context.obj
 0001:000332c0       ?MapTriangleToNodes@SweepContext@p2t@@QEAAXAEAVTriangle@2@@Z 00000000004342c0 f   Poly2Tri:sweep_context.obj
 0001:00033330       ?MeshClean@SweepContext@p2t@@QEAAXAEAVTriangle@2@@Z 0000000000434330 f   Poly2Tri:sweep_context.obj
 0001:00033600       ?RemoveFromMap@SweepContext@p2t@@QEAAXPEAVTriangle@2@@Z 0000000000434600 f   Poly2Tri:sweep_context.obj
 0001:00033670       ?RemoveNode@SweepContext@p2t@@QEAAXPEAUNode@2@@Z 0000000000434670 f   Poly2Tri:sweep_context.obj
 0001:00033680       ?_Buy@?$vector@PEAVTriangle@p2t@@V?$allocator@PEAVTriangle@p2t@@@std@@@std@@IEAA_N_K@Z 0000000000434680 f i Poly2Tri:sweep_context.obj
 0001:00033700       ?_Buyheadnode@?$_List_alloc@$0A@U?$_List_base_types@PEAVTriangle@p2t@@V?$allocator@PEAVTriangle@p2t@@@std@@@std@@@std@@QEAAPEAU?$_List_node@PEAVTriangle@p2t@@PEAX@2@XZ 0000000000434700 f i Poly2Tri:sweep_context.obj
 0001:00033710       ?_Buynode0@?$_List_alloc@$0A@U?$_List_base_types@PEAVTriangle@p2t@@V?$allocator@PEAVTriangle@p2t@@@std@@@std@@@std@@QEAAPEAU?$_List_node@PEAVTriangle@p2t@@PEAX@2@PEAU32@0@Z 0000000000434710 f i Poly2Tri:sweep_context.obj
 0001:00033770       ?_Change_alloc@?$_Vector_alloc@$0A@U?$_Vec_base_types@PEAUPoint@p2t@@V?$allocator@PEAUPoint@p2t@@@std@@@std@@@std@@QEAAXAEBU?$_Wrap_alloc@V?$allocator@PEAUPoint@p2t@@@std@@@2@@Z 0000000000434770 f i Poly2Tri:sweep_context.obj
 0001:00033780       ?_Getcont@_Iterator_base0@std@@QEBAPEBU_Container_base0@2@XZ 0000000000434780 f i Poly2Tri:sweep_context.obj
 0001:00033790       ?_Grow_to@?$vector@PEAUEdge@p2t@@V?$allocator@PEAUEdge@p2t@@@std@@@std@@IEBA_K_K@Z 0000000000434790 f i Poly2Tri:sweep_context.obj
 0001:000337d0       ?_Grow_to@?$vector@PEAVTriangle@p2t@@V?$allocator@PEAVTriangle@p2t@@@std@@@std@@IEBA_K_K@Z 00000000004347d0 f i Poly2Tri:sweep_context.obj
